---
triple:          'arm64-apple-darwin'
binary-path:     '/Users/jeffreybenson/Documents/flutter-personal-projects/my-projects/c_valentine_app/build/ios/Release-iphoneos/gRPC-C++/grpcpp.framework/grpcpp'
relocations:
  - { offsetInCU: 0x33, offset: 0x33, size: 0x8, addend: 0x0, symName: _grpcppVersionString, symObjAddr: 0x0, symBinAddr: 0x34520, symSize: 0x0 }
  - { offsetInCU: 0x67, offset: 0x67, size: 0x8, addend: 0x0, symName: _grpcppVersionNumber, symObjAddr: 0x28, symBinAddr: 0x34548, symSize: 0x0 }
  - { offsetInCU: 0x3E, offset: 0xBA, size: 0x8, addend: 0x0, symName: __ZN9grpc_core19NoDestructSingletonINS_14promise_detail10UnwakeableEE6value_E, symObjAddr: 0x2298, symBinAddr: 0x48FE8, symSize: 0x0 }
  - { offsetInCU: 0xDBF4, offset: 0xDC70, size: 0x8, addend: 0x0, symName: __ZNSt3__124__put_character_sequenceB8ue170006IcNS_11char_traitsIcEEEERNS_13basic_ostreamIT_T0_EES7_PKS4_m, symObjAddr: 0xEA0, symBinAddr: 0x4EA0, symSize: 0x164 }
  - { offsetInCU: 0xF537, offset: 0xF5B3, size: 0x8, addend: 0x0, symName: __ZNSt3__116__pad_and_outputB8ue170006IcNS_11char_traitsIcEEEENS_19ostreambuf_iteratorIT_T0_EES6_PKS4_S8_S8_RNS_8ios_baseES4_, symObjAddr: 0x1004, symBinAddr: 0x5004, symSize: 0x13C }
  - { offsetInCU: 0xFBF6, offset: 0xFC72, size: 0x8, addend: 0x0, symName: __ZNSt3__120__throw_length_errorB8ue170006EPKc, symObjAddr: 0x11EC, symBinAddr: 0x51EC, symSize: 0x50 }
  - { offsetInCU: 0xFCF3, offset: 0xFD6F, size: 0x8, addend: 0x0, symName: __ZNSt3__125__throw_bad_function_callB8ue170006Ev, symObjAddr: 0x1AB4, symBinAddr: 0x5AB4, symSize: 0x34 }
  - { offsetInCU: 0x157C0, offset: 0x1583C, size: 0x8, addend: 0x0, symName: __ZN4absl12lts_2024011622internal_any_invocable12LocalInvokerILb0EvRZN4grpc8internal9AlarmImpl3SetEPNS3_15CompletionQueueE12gpr_timespecPvEUlvE_JEEET0_PNS1_15TypeErasedStateEDpNS1_18ForwardedParameterIT2_E4typeE, symObjAddr: 0xAE4, symBinAddr: 0x4AE4, symSize: 0x4 }
  - { offsetInCU: 0x157FB, offset: 0x15877, size: 0x8, addend: 0x0, symName: __ZN4absl12lts_2024011622internal_any_invocable12LocalInvokerILb0EvRZN4grpc8internal9AlarmImpl3SetEPNS3_15CompletionQueueE12gpr_timespecPvEUlvE_JEEET0_PNS1_15TypeErasedStateEDpNS1_18ForwardedParameterIT2_E4typeE, symObjAddr: 0xAE4, symBinAddr: 0x4AE4, symSize: 0x4 }
  - { offsetInCU: 0x15817, offset: 0x15893, size: 0x8, addend: 0x0, symName: __ZN4absl12lts_2024011622internal_any_invocable12LocalInvokerILb0EvRZN4grpc8internal9AlarmImpl3SetEPNS3_15CompletionQueueE12gpr_timespecPvEUlvE_JEEET0_PNS1_15TypeErasedStateEDpNS1_18ForwardedParameterIT2_E4typeE, symObjAddr: 0xAE4, symBinAddr: 0x4AE4, symSize: 0x4 }
  - { offsetInCU: 0x15835, offset: 0x158B1, size: 0x8, addend: 0x0, symName: __ZN4absl12lts_2024011622internal_any_invocable12LocalInvokerILb0EvRZN4grpc8internal9AlarmImpl3SetEPNS3_15CompletionQueueE12gpr_timespecPvEUlvE_JEEET0_PNS1_15TypeErasedStateEDpNS1_18ForwardedParameterIT2_E4typeE, symObjAddr: 0xAE4, symBinAddr: 0x4AE4, symSize: 0x4 }
  - { offsetInCU: 0x15866, offset: 0x158E2, size: 0x8, addend: 0x0, symName: __ZN4absl12lts_2024011622internal_any_invocable19LocalManagerTrivialENS1_14FunctionToCallEPNS1_15TypeErasedStateES4_, symObjAddr: 0x18DC, symBinAddr: 0x58DC, symSize: 0xC }
  - { offsetInCU: 0x158DA, offset: 0x15956, size: 0x8, addend: 0x0, symName: __ZN4absl12lts_2024011622internal_any_invocable12LocalInvokerILb0EvRZN4grpc8internal9AlarmImpl3SetE12gpr_timespecNSt3__18functionIFvbEEEEUlvE_JEEET0_PNS1_15TypeErasedStateEDpNS1_18ForwardedParameterIT2_E4typeE, symObjAddr: 0x19E8, symBinAddr: 0x59E8, symSize: 0xC }
  - { offsetInCU: 0x159CC, offset: 0x15A48, size: 0x8, addend: 0x0, symName: __ZN4absl12lts_2024011622internal_any_invocable12LocalInvokerILb0EvRZN4grpc8internal9AlarmImpl6CancelEvEUlvE_JEEET0_PNS1_15TypeErasedStateEDpNS1_18ForwardedParameterIT2_E4typeE, symObjAddr: 0x1B00, symBinAddr: 0x5B00, symSize: 0xC }
  - { offsetInCU: 0x15ABE, offset: 0x15B3A, size: 0x8, addend: 0x0, symName: __ZN4absl12lts_2024011622internal_any_invocable12LocalInvokerILb0EvRZN4grpc8internal9AlarmImpl6CancelEvEUlvE0_JEEET0_PNS1_15TypeErasedStateEDpNS1_18ForwardedParameterIT2_E4typeE, symObjAddr: 0x1B0C, symBinAddr: 0x5B0C, symSize: 0x4 }
  - { offsetInCU: 0x15AF9, offset: 0x15B75, size: 0x8, addend: 0x0, symName: __ZN4absl12lts_2024011622internal_any_invocable12LocalInvokerILb0EvRZN4grpc8internal9AlarmImpl6CancelEvEUlvE0_JEEET0_PNS1_15TypeErasedStateEDpNS1_18ForwardedParameterIT2_E4typeE, symObjAddr: 0x1B0C, symBinAddr: 0x5B0C, symSize: 0x4 }
  - { offsetInCU: 0x15B15, offset: 0x15B91, size: 0x8, addend: 0x0, symName: __ZN4absl12lts_2024011622internal_any_invocable12LocalInvokerILb0EvRZN4grpc8internal9AlarmImpl6CancelEvEUlvE0_JEEET0_PNS1_15TypeErasedStateEDpNS1_18ForwardedParameterIT2_E4typeE, symObjAddr: 0x1B0C, symBinAddr: 0x5B0C, symSize: 0x4 }
  - { offsetInCU: 0x15B33, offset: 0x15BAF, size: 0x8, addend: 0x0, symName: __ZN4absl12lts_2024011622internal_any_invocable12LocalInvokerILb0EvRZN4grpc8internal9AlarmImpl6CancelEvEUlvE0_JEEET0_PNS1_15TypeErasedStateEDpNS1_18ForwardedParameterIT2_E4typeE, symObjAddr: 0x1B0C, symBinAddr: 0x5B0C, symSize: 0x4 }
  - { offsetInCU: 0x18D34, offset: 0x18DB0, size: 0x8, addend: 0x0, symName: __ZN4absl12lts_2024011612log_internal17MakeCheckOpStringIPKvRKDnEEPNSt3__112basic_stringIcNS7_11char_traitsIcEENS7_9allocatorIcEEEET_T0_PKc, symObjAddr: 0xE04, symBinAddr: 0x4E04, symSize: 0x9C }
  - { offsetInCU: 0x1BFCF, offset: 0x1C04B, size: 0x8, addend: 0x0, symName: __ZN4grpc8internal9AlarmImpl3SetEPNS_15CompletionQueueE12gpr_timespecPv, symObjAddr: 0xD8, symBinAddr: 0x40D8, symSize: 0x270 }
  - { offsetInCU: 0x1C5B0, offset: 0x1C62C, size: 0x8, addend: 0x0, symName: __ZN4grpc8internal9AlarmImpl3SetE12gpr_timespecNSt3__18functionIFvbEEE, symObjAddr: 0x430, symBinAddr: 0x4430, symSize: 0x21C }
  - { offsetInCU: 0x1CAAE, offset: 0x1CB2A, size: 0x8, addend: 0x0, symName: __ZN4grpc8internal9AlarmImpl6CancelEv, symObjAddr: 0x6FC, symBinAddr: 0x46FC, symSize: 0x158 }
  - { offsetInCU: 0x1F45A, offset: 0x1F4D6, size: 0x8, addend: 0x0, symName: __ZN4grpc5AlarmC2Ev, symObjAddr: 0x0, symBinAddr: 0x4000, symSize: 0x8C }
  - { offsetInCU: 0x1F501, offset: 0x1F57D, size: 0x8, addend: 0x0, symName: __ZN4grpc8internal9AlarmImplC2Ev, symObjAddr: 0x86C, symBinAddr: 0x486C, symSize: 0xC4 }
  - { offsetInCU: 0x1F86A, offset: 0x1F8E6, size: 0x8, addend: 0x0, symName: __ZN4grpc8internal11GrpcLibraryD2Ev, symObjAddr: 0x8C, symBinAddr: 0x408C, symSize: 0x40 }
  - { offsetInCU: 0x1F8AB, offset: 0x1F927, size: 0x8, addend: 0x0, symName: __ZN4grpc5AlarmC1Ev, symObjAddr: 0xCC, symBinAddr: 0x40CC, symSize: 0x4 }
  - { offsetInCU: 0x1F8D9, offset: 0x1F955, size: 0x8, addend: 0x0, symName: __ZN4grpc5AlarmC1Ev, symObjAddr: 0xCC, symBinAddr: 0x40CC, symSize: 0x4 }
  - { offsetInCU: 0x1F8ED, offset: 0x1F969, size: 0x8, addend: 0x0, symName: __ZN4grpc5Alarm11SetInternalEPNS_15CompletionQueueE12gpr_timespecPv, symObjAddr: 0xD0, symBinAddr: 0x40D0, symSize: 0x8 }
  - { offsetInCU: 0x1FDFC, offset: 0x1FE78, size: 0x8, addend: 0x0, symName: __ZN9grpc_core7ExecCtxC2Ev, symObjAddr: 0xA54, symBinAddr: 0x4A54, symSize: 0x70 }
  - { offsetInCU: 0x1FEFA, offset: 0x1FF76, size: 0x8, addend: 0x0, symName: __ZN9grpc_core7ExecCtxD2Ev, symObjAddr: 0x18E8, symBinAddr: 0x58E8, symSize: 0x70 }
  - { offsetInCU: 0x20083, offset: 0x200FF, size: 0x8, addend: 0x0, symName: __ZN4grpc5Alarm11SetInternalE12gpr_timespecNSt3__18functionIFvbEEE, symObjAddr: 0x348, symBinAddr: 0x4348, symSize: 0xE8 }
  - { offsetInCU: 0x2028F, offset: 0x2030B, size: 0x8, addend: 0x0, symName: __ZNSt3__110__function12__value_funcIFvbEEC2B8ue170006EOS3_, symObjAddr: 0x1B80, symBinAddr: 0x5B80, symSize: 0x64 }
  - { offsetInCU: 0x20490, offset: 0x2050C, size: 0x8, addend: 0x0, symName: __ZNSt3__110__function12__value_funcIFvbEEaSB8ue170006EOS3_, symObjAddr: 0x1958, symBinAddr: 0x5958, symSize: 0x90 }
  - { offsetInCU: 0x20514, offset: 0x20590, size: 0x8, addend: 0x0, symName: __ZN4grpc5AlarmD2Ev, symObjAddr: 0x64C, symBinAddr: 0x464C, symSize: 0x3C }
  - { offsetInCU: 0x20565, offset: 0x205E1, size: 0x8, addend: 0x0, symName: __ZN4grpc8internal9AlarmImpl7DestroyEv, symObjAddr: 0x688, symBinAddr: 0x4688, symSize: 0x48 }
  - { offsetInCU: 0x20614, offset: 0x20690, size: 0x8, addend: 0x0, symName: __ZN4grpc5AlarmD1Ev, symObjAddr: 0x6DC, symBinAddr: 0x46DC, symSize: 0x4 }
  - { offsetInCU: 0x20637, offset: 0x206B3, size: 0x8, addend: 0x0, symName: __ZN4grpc5AlarmD1Ev, symObjAddr: 0x6DC, symBinAddr: 0x46DC, symSize: 0x4 }
  - { offsetInCU: 0x2066C, offset: 0x206E8, size: 0x8, addend: 0x0, symName: __ZN4grpc5AlarmD0Ev, symObjAddr: 0x6E0, symBinAddr: 0x46E0, symSize: 0x14 }
  - { offsetInCU: 0x206CA, offset: 0x20746, size: 0x8, addend: 0x0, symName: __ZN4grpc5Alarm6CancelEv, symObjAddr: 0x6F4, symBinAddr: 0x46F4, symSize: 0x8 }
  - { offsetInCU: 0x20A1D, offset: 0x20A99, size: 0x8, addend: 0x0, symName: __ZN4grpc8internal11GrpcLibraryD1Ev, symObjAddr: 0x854, symBinAddr: 0x4854, symSize: 0x4 }
  - { offsetInCU: 0x20A40, offset: 0x20ABC, size: 0x8, addend: 0x0, symName: __ZN4grpc8internal11GrpcLibraryD1Ev, symObjAddr: 0x854, symBinAddr: 0x4854, symSize: 0x4 }
  - { offsetInCU: 0x20A6E, offset: 0x20AEA, size: 0x8, addend: 0x0, symName: __ZN4grpc8internal11GrpcLibraryD0Ev, symObjAddr: 0x858, symBinAddr: 0x4858, symSize: 0x14 }
  - { offsetInCU: 0x20C4E, offset: 0x20CCA, size: 0x8, addend: 0x0, symName: __ZNSt3__110shared_ptrIN17grpc_event_engine12experimental11EventEngineEED2B8ue170006Ev, symObjAddr: 0x990, symBinAddr: 0x4990, symSize: 0x58 }
  - { offsetInCU: 0x20CE2, offset: 0x20D5E, size: 0x8, addend: 0x0, symName: __ZN4grpc8internal9AlarmImplD1Ev, symObjAddr: 0x930, symBinAddr: 0x4930, symSize: 0x4 }
  - { offsetInCU: 0x20D05, offset: 0x20D81, size: 0x8, addend: 0x0, symName: __ZN4grpc8internal9AlarmImplD1Ev, symObjAddr: 0x930, symBinAddr: 0x4930, symSize: 0x4 }
  - { offsetInCU: 0x20D19, offset: 0x20D95, size: 0x8, addend: 0x0, symName: __ZN4grpc8internal9AlarmImplD2Ev, symObjAddr: 0x9E8, symBinAddr: 0x49E8, symSize: 0x68 }
  - { offsetInCU: 0x20E17, offset: 0x20E93, size: 0x8, addend: 0x0, symName: __ZN4grpc8internal9AlarmImplD0Ev, symObjAddr: 0x934, symBinAddr: 0x4934, symSize: 0x14 }
  - { offsetInCU: 0x20E73, offset: 0x20EEF, size: 0x8, addend: 0x0, symName: __ZN4grpc8internal9AlarmImpl14FinalizeResultEPPvPb, symObjAddr: 0x948, symBinAddr: 0x4948, symSize: 0x48 }
  - { offsetInCU: 0x20F25, offset: 0x20FA1, size: 0x8, addend: 0x0, symName: __ZN9grpc_core7ExecCtxD1Ev, symObjAddr: 0xA50, symBinAddr: 0x4A50, symSize: 0x4 }
  - { offsetInCU: 0x20F48, offset: 0x20FC4, size: 0x8, addend: 0x0, symName: __ZN9grpc_core7ExecCtxD1Ev, symObjAddr: 0xA50, symBinAddr: 0x4A50, symSize: 0x4 }
  - { offsetInCU: 0x20F97, offset: 0x21013, size: 0x8, addend: 0x0, symName: __ZN9grpc_core7ExecCtxD0Ev, symObjAddr: 0xAC4, symBinAddr: 0x4AC4, symSize: 0x18 }
  - { offsetInCU: 0x2100A, offset: 0x21086, size: 0x8, addend: 0x0, symName: __ZN9grpc_core7ExecCtx18CheckReadyToFinishEv, symObjAddr: 0xADC, symBinAddr: 0x4ADC, symSize: 0x8 }
  - { offsetInCU: 0x21031, offset: 0x210AD, size: 0x8, addend: 0x0, symName: __ZN4absl12lts_2024011613base_internal8Callable6InvokeIRZN4grpc8internal9AlarmImpl3SetEPNS4_15CompletionQueueE12gpr_timespecPvEUlvE_JEEEDTclclsr3stdE7declvalIT_EEspclsr3stdE7declvalIT0_EEEEOSD_DpOSE_, symObjAddr: 0xAE8, symBinAddr: 0x4AE8, symSize: 0x60 }
  - { offsetInCU: 0x212DD, offset: 0x21359, size: 0x8, addend: 0x0, symName: __ZN4grpc8internal9AlarmImpl9OnCQAlarmEN4absl12lts_202401166StatusE, symObjAddr: 0xB48, symBinAddr: 0x4B48, symSize: 0x10C }
  - { offsetInCU: 0x2179A, offset: 0x21816, size: 0x8, addend: 0x0, symName: __ZN9grpc_core26ApplicationCallbackExecCtx3SetEPS0_m, symObjAddr: 0xC84, symBinAddr: 0x4C84, symSize: 0x54 }
  - { offsetInCU: 0x218A1, offset: 0x2191D, size: 0x8, addend: 0x0, symName: __ZN9grpc_core26ApplicationCallbackExecCtxD2Ev, symObjAddr: 0xCDC, symBinAddr: 0x4CDC, symSize: 0x128 }
  - { offsetInCU: 0x21ADB, offset: 0x21B57, size: 0x8, addend: 0x0, symName: __ZN4absl12lts_202401166StatusD1Ev, symObjAddr: 0xC54, symBinAddr: 0x4C54, symSize: 0x30 }
  - { offsetInCU: 0x21B38, offset: 0x21BB4, size: 0x8, addend: 0x0, symName: __ZZN4grpc8internal9AlarmImpl9OnCQAlarmEN4absl12lts_202401166StatusEENUlPvP18grpc_cq_completionE_8__invokeES5_S7_, symObjAddr: 0xCD8, symBinAddr: 0x4CD8, symSize: 0x4 }
  - { offsetInCU: 0x21C61, offset: 0x21CDD, size: 0x8, addend: 0x0, symName: __ZN4absl12lts_2024011612log_internal21CheckOpMessageBuilderD2Ev, symObjAddr: 0x1260, symBinAddr: 0x5260, symSize: 0x8C }
  - { offsetInCU: 0x22130, offset: 0x221AC, size: 0x8, addend: 0x0, symName: __ZNSt3__112basic_stringIcNS_11char_traitsIcEENS_9allocatorIcEEEC2B8ue170006Emc, symObjAddr: 0x1140, symBinAddr: 0x5140, symSize: 0x98 }
  - { offsetInCU: 0x22349, offset: 0x223C5, size: 0x8, addend: 0x0, symName: __ZNKSt3__112basic_stringIcNS_11char_traitsIcEENS_9allocatorIcEEE20__throw_length_errorB8ue170006Ev, symObjAddr: 0x11D8, symBinAddr: 0x51D8, symSize: 0x14 }
  - { offsetInCU: 0x22499, offset: 0x22515, size: 0x8, addend: 0x0, symName: __ZNKSt3__112basic_stringIcNS_11char_traitsIcEENS_9allocatorIcEEE20__throw_length_errorB8ue170006Ev, symObjAddr: 0x11D8, symBinAddr: 0x51D8, symSize: 0x14 }
  - { offsetInCU: 0x224C3, offset: 0x2253F, size: 0x8, addend: 0x0, symName: __ZNSt3__120__throw_length_errorB8ue170006EPKc, symObjAddr: 0x11EC, symBinAddr: 0x51EC, symSize: 0x50 }
  - { offsetInCU: 0x224CE, offset: 0x2254A, size: 0x8, addend: 0x0, symName: __ZNSt12length_errorC1B8ue170006EPKc, symObjAddr: 0x123C, symBinAddr: 0x523C, symSize: 0x24 }
  - { offsetInCU: 0x225DF, offset: 0x2265B, size: 0x8, addend: 0x0, symName: __ZNSt3__119basic_ostringstreamIcNS_11char_traitsIcEENS_9allocatorIcEEED1Ev, symObjAddr: 0x12EC, symBinAddr: 0x52EC, symSize: 0x8C }
  - { offsetInCU: 0x22772, offset: 0x227EE, size: 0x8, addend: 0x0, symName: __ZTv0_n24_NSt3__119basic_ostringstreamIcNS_11char_traitsIcEENS_9allocatorIcEEED1Ev, symObjAddr: 0x1378, symBinAddr: 0x5378, symSize: 0x8C }
  - { offsetInCU: 0x22918, offset: 0x22994, size: 0x8, addend: 0x0, symName: __ZNSt3__119basic_ostringstreamIcNS_11char_traitsIcEENS_9allocatorIcEEED0Ev, symObjAddr: 0x1404, symBinAddr: 0x5404, symSize: 0x8C }
  - { offsetInCU: 0x22AE3, offset: 0x22B5F, size: 0x8, addend: 0x0, symName: __ZTv0_n24_NSt3__119basic_ostringstreamIcNS_11char_traitsIcEENS_9allocatorIcEEED0Ev, symObjAddr: 0x1490, symBinAddr: 0x5490, symSize: 0x94 }
  - { offsetInCU: 0x22CA5, offset: 0x22D21, size: 0x8, addend: 0x0, symName: __ZNSt3__115basic_stringbufIcNS_11char_traitsIcEENS_9allocatorIcEEED1Ev, symObjAddr: 0x1524, symBinAddr: 0x5524, symSize: 0x40 }
  - { offsetInCU: 0x22E0E, offset: 0x22E8A, size: 0x8, addend: 0x0, symName: __ZNSt3__115basic_stringbufIcNS_11char_traitsIcEENS_9allocatorIcEEED0Ev, symObjAddr: 0x1564, symBinAddr: 0x5564, symSize: 0x44 }
  - { offsetInCU: 0x23068, offset: 0x230E4, size: 0x8, addend: 0x0, symName: __ZNSt3__115basic_stringbufIcNS_11char_traitsIcEENS_9allocatorIcEEE7seekoffExNS_8ios_base7seekdirEj, symObjAddr: 0x15A8, symBinAddr: 0x55A8, symSize: 0x100 }
  - { offsetInCU: 0x2326A, offset: 0x232E6, size: 0x8, addend: 0x0, symName: __ZNSt3__115basic_stringbufIcNS_11char_traitsIcEENS_9allocatorIcEEE7seekposENS_4fposI11__mbstate_tEEj, symObjAddr: 0x16A8, symBinAddr: 0x56A8, symSize: 0x18 }
  - { offsetInCU: 0x2330D, offset: 0x23389, size: 0x8, addend: 0x0, symName: __ZNSt3__115basic_stringbufIcNS_11char_traitsIcEENS_9allocatorIcEEE9underflowEv, symObjAddr: 0x16C0, symBinAddr: 0x56C0, symSize: 0x50 }
  - { offsetInCU: 0x233B1, offset: 0x2342D, size: 0x8, addend: 0x0, symName: __ZNSt3__115basic_stringbufIcNS_11char_traitsIcEENS_9allocatorIcEEE9pbackfailEi, symObjAddr: 0x1710, symBinAddr: 0x5710, symSize: 0x6C }
  - { offsetInCU: 0x23585, offset: 0x23601, size: 0x8, addend: 0x0, symName: __ZNSt3__115basic_stringbufIcNS_11char_traitsIcEENS_9allocatorIcEEE8overflowEi, symObjAddr: 0x177C, symBinAddr: 0x577C, symSize: 0x160 }
  - { offsetInCU: 0x2397D, offset: 0x239F9, size: 0x8, addend: 0x0, symName: __ZN4grpc8internal9AlarmImpl15OnCallbackAlarmEb, symObjAddr: 0x19F4, symBinAddr: 0x59F4, symSize: 0xC0 }
  - { offsetInCU: 0x23CD6, offset: 0x23D52, size: 0x8, addend: 0x0, symName: __ZNSt3__117bad_function_callD1Ev, symObjAddr: 0x1AE8, symBinAddr: 0x5AE8, symSize: 0x4 }
  - { offsetInCU: 0x23CF8, offset: 0x23D74, size: 0x8, addend: 0x0, symName: __ZNSt3__117bad_function_callD1Ev, symObjAddr: 0x1AE8, symBinAddr: 0x5AE8, symSize: 0x4 }
  - { offsetInCU: 0x23D2C, offset: 0x23DA8, size: 0x8, addend: 0x0, symName: __ZNSt3__117bad_function_callD0Ev, symObjAddr: 0x1AEC, symBinAddr: 0x5AEC, symSize: 0x14 }
  - { offsetInCU: 0x23DD8, offset: 0x23E54, size: 0x8, addend: 0x0, symName: __ZN4absl12lts_2024011613base_internal8Callable6InvokeIRZN4grpc8internal9AlarmImpl6CancelEvEUlvE0_JEEEDTclclsr3stdE7declvalIT_EEspclsr3stdE7declvalIT0_EEEEOS9_DpOSA_, symObjAddr: 0x1B10, symBinAddr: 0x5B10, symSize: 0x70 }
  - { offsetInCU: 0x26, offset: 0x23FD7, size: 0x8, addend: 0x0, symName: __ZN4grpc19AsyncGenericService11RequestCallEPNS_20GenericServerContextEPNS_23ServerAsyncReaderWriterINS_10ByteBufferES4_EEPNS_15CompletionQueueEPNS_21ServerCompletionQueueEPv, symObjAddr: 0x0, symBinAddr: 0x5C18, symSize: 0x8 }
  - { offsetInCU: 0x2135D, offset: 0x4530E, size: 0x8, addend: 0x0, symName: __ZN4grpc19AsyncGenericService11RequestCallEPNS_20GenericServerContextEPNS_23ServerAsyncReaderWriterINS_10ByteBufferES4_EEPNS_15CompletionQueueEPNS_21ServerCompletionQueueEPv, symObjAddr: 0x0, symBinAddr: 0x5C18, symSize: 0x8 }
  - { offsetInCU: 0x21403, offset: 0x453B4, size: 0x8, addend: 0x0, symName: __ZN4grpc15ServerInterface23RequestAsyncGenericCallEPNS_20GenericServerContextEPNS_8internal29ServerAsyncStreamingInterfaceEPNS_15CompletionQueueEPNS_21ServerCompletionQueueEPv, symObjAddr: 0x8, symBinAddr: 0x5C20, symSize: 0x98 }
  - { offsetInCU: 0x26, offset: 0x45450, size: 0x8, addend: 0x0, symName: __ZN4grpc20AuthPropertyIteratorC2Ev, symObjAddr: 0x0, symBinAddr: 0x5CB8, symSize: 0xC }
  - { offsetInCU: 0x428C, offset: 0x496B6, size: 0x8, addend: 0x0, symName: __ZN4grpc20AuthPropertyIteratorC2Ev, symObjAddr: 0x0, symBinAddr: 0x5CB8, symSize: 0xC }
  - { offsetInCU: 0x42CD, offset: 0x496F7, size: 0x8, addend: 0x0, symName: __ZN4grpc20AuthPropertyIteratorC1Ev, symObjAddr: 0xC, symBinAddr: 0x5CC4, symSize: 0xC }
  - { offsetInCU: 0x42FB, offset: 0x49725, size: 0x8, addend: 0x0, symName: __ZN4grpc20AuthPropertyIteratorC1Ev, symObjAddr: 0xC, symBinAddr: 0x5CC4, symSize: 0xC }
  - { offsetInCU: 0x4314, offset: 0x4973E, size: 0x8, addend: 0x0, symName: __ZN4grpc20AuthPropertyIteratorC2EPK18grpc_auth_propertyPK27grpc_auth_property_iterator, symObjAddr: 0x18, symBinAddr: 0x5CD0, symSize: 0x18 }
  - { offsetInCU: 0x4374, offset: 0x4979E, size: 0x8, addend: 0x0, symName: __ZN4grpc20AuthPropertyIteratorC1EPK18grpc_auth_propertyPK27grpc_auth_property_iterator, symObjAddr: 0x30, symBinAddr: 0x5CE8, symSize: 0x18 }
  - { offsetInCU: 0x43BE, offset: 0x497E8, size: 0x8, addend: 0x0, symName: __ZN4grpc20AuthPropertyIteratorC1EPK18grpc_auth_propertyPK27grpc_auth_property_iterator, symObjAddr: 0x30, symBinAddr: 0x5CE8, symSize: 0x18 }
  - { offsetInCU: 0x43E5, offset: 0x4980F, size: 0x8, addend: 0x0, symName: __ZN4grpc20AuthPropertyIteratorD2Ev, symObjAddr: 0x48, symBinAddr: 0x5D00, symSize: 0x4 }
  - { offsetInCU: 0x4410, offset: 0x4983A, size: 0x8, addend: 0x0, symName: __ZN4grpc20AuthPropertyIteratorD1Ev, symObjAddr: 0x4C, symBinAddr: 0x5D04, symSize: 0x4 }
  - { offsetInCU: 0x443B, offset: 0x49865, size: 0x8, addend: 0x0, symName: __ZN4grpc20AuthPropertyIteratorppEv, symObjAddr: 0x50, symBinAddr: 0x5D08, symSize: 0x54 }
  - { offsetInCU: 0x44B7, offset: 0x498E1, size: 0x8, addend: 0x0, symName: __ZN4grpc20AuthPropertyIteratorppEi, symObjAddr: 0xA4, symBinAddr: 0x5D5C, symSize: 0x58 }
  - { offsetInCU: 0x4537, offset: 0x49961, size: 0x8, addend: 0x0, symName: __ZNK4grpc20AuthPropertyIteratoreqERKS0_, symObjAddr: 0xFC, symBinAddr: 0x5DB4, symSize: 0x28 }
  - { offsetInCU: 0x4588, offset: 0x499B2, size: 0x8, addend: 0x0, symName: __ZNK4grpc20AuthPropertyIteratorneERKS0_, symObjAddr: 0x124, symBinAddr: 0x5DDC, symSize: 0x2C }
  - { offsetInCU: 0x45C2, offset: 0x499EC, size: 0x8, addend: 0x0, symName: __ZNK4grpc20AuthPropertyIteratorneERKS0_, symObjAddr: 0x124, symBinAddr: 0x5DDC, symSize: 0x2C }
  - { offsetInCU: 0x4722, offset: 0x49B4C, size: 0x8, addend: 0x0, symName: __ZN4grpc20AuthPropertyIteratordeEv, symObjAddr: 0x150, symBinAddr: 0x5E08, symSize: 0x40 }
  - { offsetInCU: 0x1850, offset: 0x4B495, size: 0x8, addend: 0x0, symName: __ZNSt3__1L19piecewise_constructE, symObjAddr: 0x5767, symBinAddr: 0x347E6, symSize: 0x0 }
  - { offsetInCU: 0x12EDA, offset: 0x5CB1F, size: 0x8, addend: 0x0, symName: __ZNSt3__115allocate_sharedB8ue170006IKN4grpc12experimental20ServerMetricRecorder22BackendMetricDataStateENS_9allocatorIS5_EEJEvEENS_10shared_ptrIT_EERKT0_DpOT1_, symObjAddr: 0x29A4, symBinAddr: 0x8758, symSize: 0x78 }
  - { offsetInCU: 0x13519, offset: 0x5D15E, size: 0x8, addend: 0x0, symName: __ZNSt3__115allocate_sharedB8ue170006IN4grpc12experimental20ServerMetricRecorder22BackendMetricDataStateENS_9allocatorIS4_EEJRKS4_EvEENS_10shared_ptrIT_EERKT0_DpOT1_, symObjAddr: 0x2AEC, symBinAddr: 0x88A0, symSize: 0x58 }
  - { offsetInCU: 0x16485, offset: 0x600CA, size: 0x8, addend: 0x0, symName: __ZNSt3__127__tree_balance_after_insertB8ue170006IPNS_16__tree_node_baseIPvEEEEvT_S5_, symObjAddr: 0x26AC, symBinAddr: 0x84E8, symSize: 0x198 }
  - { offsetInCU: 0x179CB, offset: 0x61610, size: 0x8, addend: 0x0, symName: __ZNSt3__113__tree_removeB8ue170006IPNS_16__tree_node_baseIPvEEEEvT_S5_, symObjAddr: 0x3EB4, symBinAddr: 0x9C1C, symSize: 0x384 }
  - { offsetInCU: 0x1C809, offset: 0x6644E, size: 0x8, addend: 0x0, symName: __ZN4grpc12experimental20ServerMetricRecorder17SetCpuUtilizationEd, symObjAddr: 0x1F4, symBinAddr: 0x603C, symSize: 0x154 }
  - { offsetInCU: 0x1CDFB, offset: 0x66A40, size: 0x8, addend: 0x0, symName: __ZN4grpc12experimental20ServerMetricRecorder20SetMemoryUtilizationEd, symObjAddr: 0x348, symBinAddr: 0x6190, symSize: 0x15C }
  - { offsetInCU: 0x1D3ED, offset: 0x67032, size: 0x8, addend: 0x0, symName: __ZN4grpc12experimental20ServerMetricRecorder25SetApplicationUtilizationEd, symObjAddr: 0x4A4, symBinAddr: 0x62EC, symSize: 0x154 }
  - { offsetInCU: 0x1D9DF, offset: 0x67624, size: 0x8, addend: 0x0, symName: __ZN4grpc12experimental20ServerMetricRecorder6SetQpsEd, symObjAddr: 0x5F8, symBinAddr: 0x6440, symSize: 0x154 }
  - { offsetInCU: 0x1DFD1, offset: 0x67C16, size: 0x8, addend: 0x0, symName: __ZN4grpc12experimental20ServerMetricRecorder6SetEpsEd, symObjAddr: 0x74C, symBinAddr: 0x6594, symSize: 0x154 }
  - { offsetInCU: 0x1E5C3, offset: 0x68208, size: 0x8, addend: 0x0, symName: __ZN4grpc12experimental20ServerMetricRecorder19SetNamedUtilizationENS_10string_refEd, symObjAddr: 0x8A0, symBinAddr: 0x66E8, symSize: 0x1C0 }
  - { offsetInCU: 0x1F114, offset: 0x68D59, size: 0x8, addend: 0x0, symName: __ZN4grpc12experimental20ServerMetricRecorder22SetAllNamedUtilizationENSt3__13mapINS_10string_refEdNS2_4lessIS4_EENS2_9allocatorINS2_4pairIKS4_dEEEEEE, symObjAddr: 0xA60, symBinAddr: 0x68A8, symSize: 0x174 }
  - { offsetInCU: 0x1FB5E, offset: 0x697A3, size: 0x8, addend: 0x0, symName: __ZN4grpc12experimental20ServerMetricRecorder19ClearCpuUtilizationEv, symObjAddr: 0xBD4, symBinAddr: 0x6A1C, symSize: 0x104 }
  - { offsetInCU: 0x1FEE1, offset: 0x69B26, size: 0x8, addend: 0x0, symName: __ZN4grpc12experimental20ServerMetricRecorder22ClearMemoryUtilizationEv, symObjAddr: 0xCD8, symBinAddr: 0x6B20, symSize: 0x104 }
  - { offsetInCU: 0x20264, offset: 0x69EA9, size: 0x8, addend: 0x0, symName: __ZN4grpc12experimental20ServerMetricRecorder27ClearApplicationUtilizationEv, symObjAddr: 0xDDC, symBinAddr: 0x6C24, symSize: 0x104 }
  - { offsetInCU: 0x205E7, offset: 0x6A22C, size: 0x8, addend: 0x0, symName: __ZN4grpc12experimental20ServerMetricRecorder8ClearQpsEv, symObjAddr: 0xEE0, symBinAddr: 0x6D28, symSize: 0x104 }
  - { offsetInCU: 0x2096A, offset: 0x6A5AF, size: 0x8, addend: 0x0, symName: __ZN4grpc12experimental20ServerMetricRecorder8ClearEpsEv, symObjAddr: 0xFE4, symBinAddr: 0x6E2C, symSize: 0x104 }
  - { offsetInCU: 0x20CED, offset: 0x6A932, size: 0x8, addend: 0x0, symName: __ZN4grpc12experimental20ServerMetricRecorder21ClearNamedUtilizationENS_10string_refE, symObjAddr: 0x10E8, symBinAddr: 0x6F30, symSize: 0x134 }
  - { offsetInCU: 0x237E4, offset: 0x6D429, size: 0x8, addend: 0x0, symName: __ZN4grpc12experimental20ServerMetricRecorder6CreateEv, symObjAddr: 0x0, symBinAddr: 0x5E48, symSize: 0x44 }
  - { offsetInCU: 0x238BF, offset: 0x6D504, size: 0x8, addend: 0x0, symName: __ZN4grpc12experimental20ServerMetricRecorderC2Ev, symObjAddr: 0x48, symBinAddr: 0x5E90, symSize: 0x50 }
  - { offsetInCU: 0x239BC, offset: 0x6D601, size: 0x8, addend: 0x0, symName: __ZN4grpc12experimental20ServerMetricRecorderC1Ev, symObjAddr: 0x44, symBinAddr: 0x5E8C, symSize: 0x4 }
  - { offsetInCU: 0x239DF, offset: 0x6D624, size: 0x8, addend: 0x0, symName: __ZN4grpc12experimental20ServerMetricRecorderC1Ev, symObjAddr: 0x44, symBinAddr: 0x5E8C, symSize: 0x4 }
  - { offsetInCU: 0x23C68, offset: 0x6D8AD, size: 0x8, addend: 0x0, symName: __ZN4grpc12experimental20ServerMetricRecorder28UpdateBackendMetricDataStateENSt3__18functionIFvPN9grpc_core17BackendMetricDataEEEE, symObjAddr: 0x98, symBinAddr: 0x5EE0, symSize: 0xF8 }
  - { offsetInCU: 0x23FC5, offset: 0x6DC0A, size: 0x8, addend: 0x0, symName: __ZNSt3__110shared_ptrIKN4grpc12experimental20ServerMetricRecorder22BackendMetricDataStateEEaSB8ue170006IS4_vEERS6_ONS0_IT_EE, symObjAddr: 0x190, symBinAddr: 0x5FD8, symSize: 0x64 }
  - { offsetInCU: 0x2413B, offset: 0x6DD80, size: 0x8, addend: 0x0, symName: __ZNSt3__110shared_ptrIN4grpc12experimental20ServerMetricRecorder22BackendMetricDataStateEED2B8ue170006Ev, symObjAddr: 0x2C80, symBinAddr: 0x8A34, symSize: 0x58 }
  - { offsetInCU: 0x25907, offset: 0x6F54C, size: 0x8, addend: 0x0, symName: __ZNSt3__112basic_stringIcNS_11char_traitsIcEENS_9allocatorIcEEEC2B8ue170006EPKcm, symObjAddr: 0x2884, symBinAddr: 0x86C0, symSize: 0x98 }
  - { offsetInCU: 0x26225, offset: 0x6FE6A, size: 0x8, addend: 0x0, symName: __ZNSt3__16__treeINS_12__value_typeIN4grpc10string_refEdEENS_19__map_value_compareIS3_S4_NS_4lessIS3_EELb1EEENS_9allocatorIS4_EEE7destroyEPNS_11__tree_nodeIS4_PvEE, symObjAddr: 0x2228, symBinAddr: 0x8064, symSize: 0x40 }
  - { offsetInCU: 0x271C7, offset: 0x70E0C, size: 0x8, addend: 0x0, symName: __ZNK4grpc12experimental20ServerMetricRecorder10GetMetricsEv, symObjAddr: 0x121C, symBinAddr: 0x7064, symSize: 0xEC }
  - { offsetInCU: 0x27564, offset: 0x711A9, size: 0x8, addend: 0x0, symName: __ZNK4grpc12experimental20ServerMetricRecorder19GetMetricsIfChangedEv, symObjAddr: 0x1308, symBinAddr: 0x7150, symSize: 0xB4 }
  - { offsetInCU: 0x277D9, offset: 0x7141E, size: 0x8, addend: 0x0, symName: __ZNSt3__13mapIN4absl12lts_2024011611string_viewEdNS_4lessIS3_EENS_9allocatorINS_4pairIKS3_dEEEEEC2B8ue170006ERKSB_, symObjAddr: 0x2268, symBinAddr: 0x80A4, symSize: 0x54 }
  - { offsetInCU: 0x27985, offset: 0x715CA, size: 0x8, addend: 0x0, symName: __ZNSt3__16__treeINS_12__value_typeIN4absl12lts_2024011611string_viewEdEENS_19__map_value_compareIS4_S5_NS_4lessIS4_EELb1EEENS_9allocatorIS5_EEE7destroyEPNS_11__tree_nodeIS5_PvEE, symObjAddr: 0x2844, symBinAddr: 0x8680, symSize: 0x40 }
  - { offsetInCU: 0x27AC0, offset: 0x71705, size: 0x8, addend: 0x0, symName: __ZNSt3__110shared_ptrIKN4grpc12experimental20ServerMetricRecorder22BackendMetricDataStateEED2B8ue170006Ev, symObjAddr: 0x2A94, symBinAddr: 0x8848, symSize: 0x58 }
  - { offsetInCU: 0x27B9A, offset: 0x717DF, size: 0x8, addend: 0x0, symName: __ZNSt3__110shared_ptrIKN4grpc12experimental20ServerMetricRecorder22BackendMetricDataStateEEaSB8ue170006ERKS6_, symObjAddr: 0x13BC, symBinAddr: 0x7204, symSize: 0x78 }
  - { offsetInCU: 0x27E6E, offset: 0x71AB3, size: 0x8, addend: 0x0, symName: __ZN4grpc18BackendMetricState26RecordCpuUtilizationMetricEd, symObjAddr: 0x1434, symBinAddr: 0x727C, symSize: 0x9C }
  - { offsetInCU: 0x27FE2, offset: 0x71C27, size: 0x8, addend: 0x0, symName: __ZThn8_N4grpc18BackendMetricState26RecordCpuUtilizationMetricEd, symObjAddr: 0x14D0, symBinAddr: 0x7318, symSize: 0x8 }
  - { offsetInCU: 0x28012, offset: 0x71C57, size: 0x8, addend: 0x0, symName: __ZN4grpc18BackendMetricState29RecordMemoryUtilizationMetricEd, symObjAddr: 0x14D8, symBinAddr: 0x7320, symSize: 0xA4 }
  - { offsetInCU: 0x28188, offset: 0x71DCD, size: 0x8, addend: 0x0, symName: __ZThn8_N4grpc18BackendMetricState29RecordMemoryUtilizationMetricEd, symObjAddr: 0x157C, symBinAddr: 0x73C4, symSize: 0x8 }
  - { offsetInCU: 0x281B9, offset: 0x71DFE, size: 0x8, addend: 0x0, symName: __ZN4grpc18BackendMetricState34RecordApplicationUtilizationMetricEd, symObjAddr: 0x1584, symBinAddr: 0x73CC, symSize: 0x9C }
  - { offsetInCU: 0x2832F, offset: 0x71F74, size: 0x8, addend: 0x0, symName: __ZThn8_N4grpc18BackendMetricState34RecordApplicationUtilizationMetricEd, symObjAddr: 0x1620, symBinAddr: 0x7468, symSize: 0x8 }
  - { offsetInCU: 0x28360, offset: 0x71FA5, size: 0x8, addend: 0x0, symName: __ZN4grpc18BackendMetricState15RecordQpsMetricEd, symObjAddr: 0x1628, symBinAddr: 0x7470, symSize: 0x9C }
  - { offsetInCU: 0x284D6, offset: 0x7211B, size: 0x8, addend: 0x0, symName: __ZThn8_N4grpc18BackendMetricState15RecordQpsMetricEd, symObjAddr: 0x16C4, symBinAddr: 0x750C, symSize: 0x8 }
  - { offsetInCU: 0x28507, offset: 0x7214C, size: 0x8, addend: 0x0, symName: __ZN4grpc18BackendMetricState15RecordEpsMetricEd, symObjAddr: 0x16CC, symBinAddr: 0x7514, symSize: 0x9C }
  - { offsetInCU: 0x2867D, offset: 0x722C2, size: 0x8, addend: 0x0, symName: __ZThn8_N4grpc18BackendMetricState15RecordEpsMetricEd, symObjAddr: 0x1768, symBinAddr: 0x75B0, symSize: 0x8 }
  - { offsetInCU: 0x28829, offset: 0x7246E, size: 0x8, addend: 0x0, symName: __ZN4grpc18BackendMetricState23RecordUtilizationMetricENS_10string_refEd, symObjAddr: 0x1770, symBinAddr: 0x75B8, symSize: 0x1F8 }
  - { offsetInCU: 0x29297, offset: 0x72EDC, size: 0x8, addend: 0x0, symName: __ZNSt3__16__treeINS_12__value_typeIN4absl12lts_2024011611string_viewEdEENS_19__map_value_compareIS4_S5_NS_4lessIS4_EELb1EEENS_9allocatorIS5_EEE25__emplace_unique_key_argsIS4_JRKNS_21piecewise_construct_tENS_5tupleIJRKS4_EEENSH_IJEEEEEENS_4pairINS_15__tree_iteratorIS5_PNS_11__tree_nodeIS5_PvEElEEbEERKT_DpOT0_, symObjAddr: 0x4238, symBinAddr: 0x9FA0, symSize: 0x88 }
  - { offsetInCU: 0x29542, offset: 0x73187, size: 0x8, addend: 0x0, symName: __ZThn8_N4grpc18BackendMetricState23RecordUtilizationMetricENS_10string_refEd, symObjAddr: 0x1968, symBinAddr: 0x77B0, symSize: 0x8 }
  - { offsetInCU: 0x2957B, offset: 0x731C0, size: 0x8, addend: 0x0, symName: __ZN4grpc18BackendMetricState23RecordRequestCostMetricENS_10string_refEd, symObjAddr: 0x1970, symBinAddr: 0x77B8, symSize: 0x168 }
  - { offsetInCU: 0x29C16, offset: 0x7385B, size: 0x8, addend: 0x0, symName: __ZThn8_N4grpc18BackendMetricState23RecordRequestCostMetricENS_10string_refEd, symObjAddr: 0x1AD8, symBinAddr: 0x7920, symSize: 0x8 }
  - { offsetInCU: 0x29C4F, offset: 0x73894, size: 0x8, addend: 0x0, symName: __ZN4grpc18BackendMetricState17RecordNamedMetricENS_10string_refEd, symObjAddr: 0x1AE0, symBinAddr: 0x7928, symSize: 0x168 }
  - { offsetInCU: 0x2A2EA, offset: 0x73F2F, size: 0x8, addend: 0x0, symName: __ZThn8_N4grpc18BackendMetricState17RecordNamedMetricENS_10string_refEd, symObjAddr: 0x1C48, symBinAddr: 0x7A90, symSize: 0x8 }
  - { offsetInCU: 0x2A678, offset: 0x742BD, size: 0x8, addend: 0x0, symName: __ZN4grpc18BackendMetricState20GetBackendMetricDataEv, symObjAddr: 0x1C50, symBinAddr: 0x7A98, symSize: 0x410 }
  - { offsetInCU: 0x2B676, offset: 0x752BB, size: 0x8, addend: 0x0, symName: __ZN9grpc_core17BackendMetricDataD1Ev, symObjAddr: 0x2060, symBinAddr: 0x7EA8, symSize: 0x44 }
  - { offsetInCU: 0x2B8C0, offset: 0x75505, size: 0x8, addend: 0x0, symName: __ZN4grpc18BackendMetricStateD1Ev, symObjAddr: 0x20A4, symBinAddr: 0x7EEC, symSize: 0x5C }
  - { offsetInCU: 0x2BB46, offset: 0x7578B, size: 0x8, addend: 0x0, symName: __ZN4grpc18BackendMetricStateD0Ev, symObjAddr: 0x2100, symBinAddr: 0x7F48, symSize: 0x5C }
  - { offsetInCU: 0x2BDC7, offset: 0x75A0C, size: 0x8, addend: 0x0, symName: __ZThn8_N4grpc18BackendMetricStateD1Ev, symObjAddr: 0x215C, symBinAddr: 0x7FA4, symSize: 0x5C }
  - { offsetInCU: 0x2C057, offset: 0x75C9C, size: 0x8, addend: 0x0, symName: __ZThn8_N4grpc18BackendMetricStateD0Ev, symObjAddr: 0x21B8, symBinAddr: 0x8000, symSize: 0x64 }
  - { offsetInCU: 0x2C4A9, offset: 0x760EE, size: 0x8, addend: 0x0, symName: __ZNSt3__13mapIN4absl12lts_2024011611string_viewEdNS_4lessIS3_EENS_9allocatorINS_4pairIKS3_dEEEEE6insertB8ue170006INS_20__map_const_iteratorINS_21__tree_const_iteratorINS_12__value_typeIS3_dEEPNS_11__tree_nodeISG_PvEElEEEEEEvT_SN_, symObjAddr: 0x22BC, symBinAddr: 0x80F8, symSize: 0x84 }
  - { offsetInCU: 0x2C7C1, offset: 0x76406, size: 0x8, addend: 0x0, symName: __ZNSt3__16__treeINS_12__value_typeIN4absl12lts_2024011611string_viewEdEENS_19__map_value_compareIS4_S5_NS_4lessIS4_EELb1EEENS_9allocatorIS5_EEE30__emplace_hint_unique_key_argsIS4_JRKNS_4pairIKS4_dEEEEENSE_INS_15__tree_iteratorIS5_PNS_11__tree_nodeIS5_PvEElEEbEENS_21__tree_const_iteratorIS5_SN_lEERKT_DpOT0_, symObjAddr: 0x2340, symBinAddr: 0x817C, symSize: 0x8C }
  - { offsetInCU: 0x2CB20, offset: 0x76765, size: 0x8, addend: 0x0, symName: __ZNSt3__16__treeINS_12__value_typeIN4absl12lts_2024011611string_viewEdEENS_19__map_value_compareIS4_S5_NS_4lessIS4_EELb1EEENS_9allocatorIS5_EEE12__find_equalIS4_EERPNS_16__tree_node_baseIPvEENS_21__tree_const_iteratorIS5_PNS_11__tree_nodeIS5_SF_EElEERPNS_15__tree_end_nodeISH_EESI_RKT_, symObjAddr: 0x23CC, symBinAddr: 0x8208, symSize: 0x19C }
  - { offsetInCU: 0x2CF68, offset: 0x76BAD, size: 0x8, addend: 0x0, symName: __ZNSt3__16__treeINS_12__value_typeIN4absl12lts_2024011611string_viewEdEENS_19__map_value_compareIS4_S5_NS_4lessIS4_EELb1EEENS_9allocatorIS5_EEE16__insert_node_atEPNS_15__tree_end_nodeIPNS_16__tree_node_baseIPvEEEERSH_SH_, symObjAddr: 0x2568, symBinAddr: 0x83A4, symSize: 0x54 }
  - { offsetInCU: 0x2D079, offset: 0x76CBE, size: 0x8, addend: 0x0, symName: __ZNK4absl12lts_2024011611string_view7compareES1_, symObjAddr: 0x2658, symBinAddr: 0x8494, symSize: 0x54 }
  - { offsetInCU: 0x2D105, offset: 0x76D4A, size: 0x8, addend: 0x0, symName: __ZNSt3__16__treeINS_12__value_typeIN4absl12lts_2024011611string_viewEdEENS_19__map_value_compareIS4_S5_NS_4lessIS4_EELb1EEENS_9allocatorIS5_EEE12__find_equalIS4_EERPNS_16__tree_node_baseIPvEERPNS_15__tree_end_nodeISH_EERKT_, symObjAddr: 0x25BC, symBinAddr: 0x83F8, symSize: 0x9C }
  - { offsetInCU: 0x2D80B, offset: 0x77450, size: 0x8, addend: 0x0, symName: __ZNSt3__120__shared_ptr_emplaceIKN4grpc12experimental20ServerMetricRecorder22BackendMetricDataStateENS_9allocatorIS5_EEED1Ev, symObjAddr: 0x2A1C, symBinAddr: 0x87D0, symSize: 0x14 }
  - { offsetInCU: 0x2D82E, offset: 0x77473, size: 0x8, addend: 0x0, symName: __ZNSt3__120__shared_ptr_emplaceIKN4grpc12experimental20ServerMetricRecorder22BackendMetricDataStateENS_9allocatorIS5_EEED1Ev, symObjAddr: 0x2A1C, symBinAddr: 0x87D0, symSize: 0x14 }
  - { offsetInCU: 0x2D865, offset: 0x774AA, size: 0x8, addend: 0x0, symName: __ZNSt3__120__shared_ptr_emplaceIKN4grpc12experimental20ServerMetricRecorder22BackendMetricDataStateENS_9allocatorIS5_EEED0Ev, symObjAddr: 0x2A30, symBinAddr: 0x87E4, symSize: 0x24 }
  - { offsetInCU: 0x2D903, offset: 0x77548, size: 0x8, addend: 0x0, symName: __ZNSt3__120__shared_ptr_emplaceIKN4grpc12experimental20ServerMetricRecorder22BackendMetricDataStateENS_9allocatorIS5_EEE16__on_zero_sharedEv, symObjAddr: 0x2A54, symBinAddr: 0x8808, symSize: 0x3C }
  - { offsetInCU: 0x2DBE7, offset: 0x7782C, size: 0x8, addend: 0x0, symName: __ZNSt3__120__shared_ptr_emplaceIKN4grpc12experimental20ServerMetricRecorder22BackendMetricDataStateENS_9allocatorIS5_EEE21__on_zero_shared_weakEv, symObjAddr: 0x2A90, symBinAddr: 0x8844, symSize: 0x4 }
  - { offsetInCU: 0x2DC1C, offset: 0x77861, size: 0x8, addend: 0x0, symName: __ZNSt3__120__shared_ptr_emplaceIKN4grpc12experimental20ServerMetricRecorder22BackendMetricDataStateENS_9allocatorIS5_EEE21__on_zero_shared_weakEv, symObjAddr: 0x2A90, symBinAddr: 0x8844, symSize: 0x4 }
  - { offsetInCU: 0x2DC3E, offset: 0x77883, size: 0x8, addend: 0x0, symName: __ZNSt3__120__shared_ptr_emplaceIKN4grpc12experimental20ServerMetricRecorder22BackendMetricDataStateENS_9allocatorIS5_EEE21__on_zero_shared_weakEv, symObjAddr: 0x2A90, symBinAddr: 0x8844, symSize: 0x4 }
  - { offsetInCU: 0x2DC60, offset: 0x778A5, size: 0x8, addend: 0x0, symName: __ZNSt3__120__shared_ptr_emplaceIKN4grpc12experimental20ServerMetricRecorder22BackendMetricDataStateENS_9allocatorIS5_EEE21__on_zero_shared_weakEv, symObjAddr: 0x2A90, symBinAddr: 0x8844, symSize: 0x4 }
  - { offsetInCU: 0x2DC8D, offset: 0x778D2, size: 0x8, addend: 0x0, symName: __ZNSt3__120__shared_ptr_emplaceIKN4grpc12experimental20ServerMetricRecorder22BackendMetricDataStateENS_9allocatorIS5_EEE21__on_zero_shared_weakEv, symObjAddr: 0x2A90, symBinAddr: 0x8844, symSize: 0x4 }
  - { offsetInCU: 0x2DCB5, offset: 0x778FA, size: 0x8, addend: 0x0, symName: __ZNSt3__120__shared_ptr_emplaceIKN4grpc12experimental20ServerMetricRecorder22BackendMetricDataStateENS_9allocatorIS5_EEE21__on_zero_shared_weakEv, symObjAddr: 0x2A90, symBinAddr: 0x8844, symSize: 0x4 }
  - { offsetInCU: 0x2DF24, offset: 0x77B69, size: 0x8, addend: 0x0, symName: __ZNSt3__120__shared_ptr_emplaceIN4grpc12experimental20ServerMetricRecorder22BackendMetricDataStateENS_9allocatorIS4_EEEC2B8ue170006IJRKS4_EEES6_DpOT_, symObjAddr: 0x2B44, symBinAddr: 0x88F8, symSize: 0xC4 }
  - { offsetInCU: 0x2E2C7, offset: 0x77F0C, size: 0x8, addend: 0x0, symName: __ZNSt3__120__shared_ptr_emplaceIN4grpc12experimental20ServerMetricRecorder22BackendMetricDataStateENS_9allocatorIS4_EEED1Ev, symObjAddr: 0x2C08, symBinAddr: 0x89BC, symSize: 0x14 }
  - { offsetInCU: 0x2E2EA, offset: 0x77F2F, size: 0x8, addend: 0x0, symName: __ZNSt3__120__shared_ptr_emplaceIN4grpc12experimental20ServerMetricRecorder22BackendMetricDataStateENS_9allocatorIS4_EEED1Ev, symObjAddr: 0x2C08, symBinAddr: 0x89BC, symSize: 0x14 }
  - { offsetInCU: 0x2E321, offset: 0x77F66, size: 0x8, addend: 0x0, symName: __ZNSt3__120__shared_ptr_emplaceIN4grpc12experimental20ServerMetricRecorder22BackendMetricDataStateENS_9allocatorIS4_EEED0Ev, symObjAddr: 0x2C1C, symBinAddr: 0x89D0, symSize: 0x24 }
  - { offsetInCU: 0x2E387, offset: 0x77FCC, size: 0x8, addend: 0x0, symName: __ZNSt3__120__shared_ptr_emplaceIN4grpc12experimental20ServerMetricRecorder22BackendMetricDataStateENS_9allocatorIS4_EEE16__on_zero_sharedEv, symObjAddr: 0x2C40, symBinAddr: 0x89F4, symSize: 0x3C }
  - { offsetInCU: 0x2E613, offset: 0x78258, size: 0x8, addend: 0x0, symName: __ZNSt3__120__shared_ptr_emplaceIN4grpc12experimental20ServerMetricRecorder22BackendMetricDataStateENS_9allocatorIS4_EEE21__on_zero_shared_weakEv, symObjAddr: 0x2C7C, symBinAddr: 0x8A30, symSize: 0x4 }
  - { offsetInCU: 0x2E648, offset: 0x7828D, size: 0x8, addend: 0x0, symName: __ZNSt3__120__shared_ptr_emplaceIN4grpc12experimental20ServerMetricRecorder22BackendMetricDataStateENS_9allocatorIS4_EEE21__on_zero_shared_weakEv, symObjAddr: 0x2C7C, symBinAddr: 0x8A30, symSize: 0x4 }
  - { offsetInCU: 0x2E66A, offset: 0x782AF, size: 0x8, addend: 0x0, symName: __ZNSt3__120__shared_ptr_emplaceIN4grpc12experimental20ServerMetricRecorder22BackendMetricDataStateENS_9allocatorIS4_EEE21__on_zero_shared_weakEv, symObjAddr: 0x2C7C, symBinAddr: 0x8A30, symSize: 0x4 }
  - { offsetInCU: 0x2E68C, offset: 0x782D1, size: 0x8, addend: 0x0, symName: __ZNSt3__120__shared_ptr_emplaceIN4grpc12experimental20ServerMetricRecorder22BackendMetricDataStateENS_9allocatorIS4_EEE21__on_zero_shared_weakEv, symObjAddr: 0x2C7C, symBinAddr: 0x8A30, symSize: 0x4 }
  - { offsetInCU: 0x2E6B9, offset: 0x782FE, size: 0x8, addend: 0x0, symName: __ZNSt3__120__shared_ptr_emplaceIN4grpc12experimental20ServerMetricRecorder22BackendMetricDataStateENS_9allocatorIS4_EEE21__on_zero_shared_weakEv, symObjAddr: 0x2C7C, symBinAddr: 0x8A30, symSize: 0x4 }
  - { offsetInCU: 0x2E6E1, offset: 0x78326, size: 0x8, addend: 0x0, symName: __ZNSt3__120__shared_ptr_emplaceIN4grpc12experimental20ServerMetricRecorder22BackendMetricDataStateENS_9allocatorIS4_EEE21__on_zero_shared_weakEv, symObjAddr: 0x2C7C, symBinAddr: 0x8A30, symSize: 0x4 }
  - { offsetInCU: 0x2E74D, offset: 0x78392, size: 0x8, addend: 0x0, symName: '__ZNSt3__110__function6__funcIZN4grpc12experimental20ServerMetricRecorder17SetCpuUtilizationEdE3$_0NS_9allocatorIS5_EEFvPN9grpc_core17BackendMetricDataEEED1Ev', symObjAddr: 0x2D24, symBinAddr: 0x8A8C, symSize: 0x4 }
  - { offsetInCU: 0x2E779, offset: 0x783BE, size: 0x8, addend: 0x0, symName: '__ZNSt3__110__function6__funcIZN4grpc12experimental20ServerMetricRecorder17SetCpuUtilizationEdE3$_0NS_9allocatorIS5_EEFvPN9grpc_core17BackendMetricDataEEED0Ev', symObjAddr: 0x2D28, symBinAddr: 0x8A90, symSize: 0x4 }
  - { offsetInCU: 0x2E97D, offset: 0x785C2, size: 0x8, addend: 0x0, symName: '__ZNKSt3__110__function6__funcIZN4grpc12experimental20ServerMetricRecorder17SetCpuUtilizationEdE3$_0NS_9allocatorIS5_EEFvPN9grpc_core17BackendMetricDataEEE7__cloneEv', symObjAddr: 0x2D2C, symBinAddr: 0x8A94, symSize: 0x34 }
  - { offsetInCU: 0x2EC72, offset: 0x788B7, size: 0x8, addend: 0x0, symName: '__ZNKSt3__110__function6__funcIZN4grpc12experimental20ServerMetricRecorder17SetCpuUtilizationEdE3$_0NS_9allocatorIS5_EEFvPN9grpc_core17BackendMetricDataEEE7__cloneEPNS0_6__baseISB_EE', symObjAddr: 0x2D60, symBinAddr: 0x8AC8, symSize: 0x14 }
  - { offsetInCU: 0x2ECAB, offset: 0x788F0, size: 0x8, addend: 0x0, symName: '__ZNKSt3__110__function6__funcIZN4grpc12experimental20ServerMetricRecorder17SetCpuUtilizationEdE3$_0NS_9allocatorIS5_EEFvPN9grpc_core17BackendMetricDataEEE7__cloneEPNS0_6__baseISB_EE', symObjAddr: 0x2D60, symBinAddr: 0x8AC8, symSize: 0x14 }
  - { offsetInCU: 0x2ECD9, offset: 0x7891E, size: 0x8, addend: 0x0, symName: '__ZNKSt3__110__function6__funcIZN4grpc12experimental20ServerMetricRecorder17SetCpuUtilizationEdE3$_0NS_9allocatorIS5_EEFvPN9grpc_core17BackendMetricDataEEE7__cloneEPNS0_6__baseISB_EE', symObjAddr: 0x2D60, symBinAddr: 0x8AC8, symSize: 0x14 }
  - { offsetInCU: 0x2ED07, offset: 0x7894C, size: 0x8, addend: 0x0, symName: '__ZNKSt3__110__function6__funcIZN4grpc12experimental20ServerMetricRecorder17SetCpuUtilizationEdE3$_0NS_9allocatorIS5_EEFvPN9grpc_core17BackendMetricDataEEE7__cloneEPNS0_6__baseISB_EE', symObjAddr: 0x2D60, symBinAddr: 0x8AC8, symSize: 0x14 }
  - { offsetInCU: 0x2ED1C, offset: 0x78961, size: 0x8, addend: 0x0, symName: '__ZNKSt3__110__function6__funcIZN4grpc12experimental20ServerMetricRecorder17SetCpuUtilizationEdE3$_0NS_9allocatorIS5_EEFvPN9grpc_core17BackendMetricDataEEE7__cloneEPNS0_6__baseISB_EE', symObjAddr: 0x2D60, symBinAddr: 0x8AC8, symSize: 0x14 }
  - { offsetInCU: 0x2ED30, offset: 0x78975, size: 0x8, addend: 0x0, symName: '__ZNKSt3__110__function6__funcIZN4grpc12experimental20ServerMetricRecorder17SetCpuUtilizationEdE3$_0NS_9allocatorIS5_EEFvPN9grpc_core17BackendMetricDataEEE7__cloneEPNS0_6__baseISB_EE', symObjAddr: 0x2D60, symBinAddr: 0x8AC8, symSize: 0x14 }
  - { offsetInCU: 0x2ED44, offset: 0x78989, size: 0x8, addend: 0x0, symName: '__ZNKSt3__110__function6__funcIZN4grpc12experimental20ServerMetricRecorder17SetCpuUtilizationEdE3$_0NS_9allocatorIS5_EEFvPN9grpc_core17BackendMetricDataEEE7__cloneEPNS0_6__baseISB_EE', symObjAddr: 0x2D60, symBinAddr: 0x8AC8, symSize: 0x14 }
  - { offsetInCU: 0x2ED58, offset: 0x7899D, size: 0x8, addend: 0x0, symName: '__ZNKSt3__110__function6__funcIZN4grpc12experimental20ServerMetricRecorder17SetCpuUtilizationEdE3$_0NS_9allocatorIS5_EEFvPN9grpc_core17BackendMetricDataEEE7__cloneEPNS0_6__baseISB_EE', symObjAddr: 0x2D60, symBinAddr: 0x8AC8, symSize: 0x14 }
  - { offsetInCU: 0x2ED70, offset: 0x789B5, size: 0x8, addend: 0x0, symName: '__ZNSt3__110__function6__funcIZN4grpc12experimental20ServerMetricRecorder17SetCpuUtilizationEdE3$_0NS_9allocatorIS5_EEFvPN9grpc_core17BackendMetricDataEEE7destroyEv', symObjAddr: 0x2D74, symBinAddr: 0x8ADC, symSize: 0x4 }
  - { offsetInCU: 0x2EDC1, offset: 0x78A06, size: 0x8, addend: 0x0, symName: '__ZNSt3__110__function6__funcIZN4grpc12experimental20ServerMetricRecorder17SetCpuUtilizationEdE3$_0NS_9allocatorIS5_EEFvPN9grpc_core17BackendMetricDataEEE18destroy_deallocateEv', symObjAddr: 0x2D78, symBinAddr: 0x8AE0, symSize: 0x4 }
  - { offsetInCU: 0x2EDF8, offset: 0x78A3D, size: 0x8, addend: 0x0, symName: '__ZNSt3__110__function6__funcIZN4grpc12experimental20ServerMetricRecorder17SetCpuUtilizationEdE3$_0NS_9allocatorIS5_EEFvPN9grpc_core17BackendMetricDataEEE18destroy_deallocateEv', symObjAddr: 0x2D78, symBinAddr: 0x8AE0, symSize: 0x4 }
  - { offsetInCU: 0x2EE1A, offset: 0x78A5F, size: 0x8, addend: 0x0, symName: '__ZNSt3__110__function6__funcIZN4grpc12experimental20ServerMetricRecorder17SetCpuUtilizationEdE3$_0NS_9allocatorIS5_EEFvPN9grpc_core17BackendMetricDataEEE18destroy_deallocateEv', symObjAddr: 0x2D78, symBinAddr: 0x8AE0, symSize: 0x4 }
  - { offsetInCU: 0x2EE45, offset: 0x78A8A, size: 0x8, addend: 0x0, symName: '__ZNSt3__110__function6__funcIZN4grpc12experimental20ServerMetricRecorder17SetCpuUtilizationEdE3$_0NS_9allocatorIS5_EEFvPN9grpc_core17BackendMetricDataEEE18destroy_deallocateEv', symObjAddr: 0x2D78, symBinAddr: 0x8AE0, symSize: 0x4 }
  - { offsetInCU: 0x2EE6B, offset: 0x78AB0, size: 0x8, addend: 0x0, symName: '__ZNSt3__110__function6__funcIZN4grpc12experimental20ServerMetricRecorder17SetCpuUtilizationEdE3$_0NS_9allocatorIS5_EEFvPN9grpc_core17BackendMetricDataEEE18destroy_deallocateEv', symObjAddr: 0x2D78, symBinAddr: 0x8AE0, symSize: 0x4 }
  - { offsetInCU: 0x2EF0F, offset: 0x78B54, size: 0x8, addend: 0x0, symName: '__ZNSt3__110__function6__funcIZN4grpc12experimental20ServerMetricRecorder17SetCpuUtilizationEdE3$_0NS_9allocatorIS5_EEFvPN9grpc_core17BackendMetricDataEEEclEOSA_', symObjAddr: 0x2D7C, symBinAddr: 0x8AE4, symSize: 0x10 }
  - { offsetInCU: 0x2EF48, offset: 0x78B8D, size: 0x8, addend: 0x0, symName: '__ZNSt3__110__function6__funcIZN4grpc12experimental20ServerMetricRecorder17SetCpuUtilizationEdE3$_0NS_9allocatorIS5_EEFvPN9grpc_core17BackendMetricDataEEEclEOSA_', symObjAddr: 0x2D7C, symBinAddr: 0x8AE4, symSize: 0x10 }
  - { offsetInCU: 0x2EF6D, offset: 0x78BB2, size: 0x8, addend: 0x0, symName: '__ZNSt3__110__function6__funcIZN4grpc12experimental20ServerMetricRecorder17SetCpuUtilizationEdE3$_0NS_9allocatorIS5_EEFvPN9grpc_core17BackendMetricDataEEEclEOSA_', symObjAddr: 0x2D7C, symBinAddr: 0x8AE4, symSize: 0x10 }
  - { offsetInCU: 0x2EF91, offset: 0x78BD6, size: 0x8, addend: 0x0, symName: '__ZNSt3__110__function6__funcIZN4grpc12experimental20ServerMetricRecorder17SetCpuUtilizationEdE3$_0NS_9allocatorIS5_EEFvPN9grpc_core17BackendMetricDataEEEclEOSA_', symObjAddr: 0x2D7C, symBinAddr: 0x8AE4, symSize: 0x10 }
  - { offsetInCU: 0x2EFDC, offset: 0x78C21, size: 0x8, addend: 0x0, symName: '__ZNKSt3__110__function6__funcIZN4grpc12experimental20ServerMetricRecorder17SetCpuUtilizationEdE3$_0NS_9allocatorIS5_EEFvPN9grpc_core17BackendMetricDataEEE6targetERKSt9type_info', symObjAddr: 0x2D8C, symBinAddr: 0x8AF4, symSize: 0x3C }
  - { offsetInCU: 0x2F02C, offset: 0x78C71, size: 0x8, addend: 0x0, symName: __ZNKSt9type_infoeqB8ue170006ERKS_, symObjAddr: 0x2DD4, symBinAddr: 0x8B3C, symSize: 0x48 }
  - { offsetInCU: 0x2F0B7, offset: 0x78CFC, size: 0x8, addend: 0x0, symName: '__ZNKSt3__110__function6__funcIZN4grpc12experimental20ServerMetricRecorder17SetCpuUtilizationEdE3$_0NS_9allocatorIS5_EEFvPN9grpc_core17BackendMetricDataEEE11target_typeEv', symObjAddr: 0x2DC8, symBinAddr: 0x8B30, symSize: 0xC }
  - { offsetInCU: 0x2F10F, offset: 0x78D54, size: 0x8, addend: 0x0, symName: '__ZNSt3__110__function6__funcIZN4grpc12experimental20ServerMetricRecorder20SetMemoryUtilizationEdE3$_1NS_9allocatorIS5_EEFvPN9grpc_core17BackendMetricDataEEED1Ev', symObjAddr: 0x2E1C, symBinAddr: 0x8B84, symSize: 0x4 }
  - { offsetInCU: 0x2F13B, offset: 0x78D80, size: 0x8, addend: 0x0, symName: '__ZNSt3__110__function6__funcIZN4grpc12experimental20ServerMetricRecorder20SetMemoryUtilizationEdE3$_1NS_9allocatorIS5_EEFvPN9grpc_core17BackendMetricDataEEED0Ev', symObjAddr: 0x2E20, symBinAddr: 0x8B88, symSize: 0x4 }
  - { offsetInCU: 0x2F33F, offset: 0x78F84, size: 0x8, addend: 0x0, symName: '__ZNKSt3__110__function6__funcIZN4grpc12experimental20ServerMetricRecorder20SetMemoryUtilizationEdE3$_1NS_9allocatorIS5_EEFvPN9grpc_core17BackendMetricDataEEE7__cloneEv', symObjAddr: 0x2E24, symBinAddr: 0x8B8C, symSize: 0x34 }
  - { offsetInCU: 0x2F634, offset: 0x79279, size: 0x8, addend: 0x0, symName: '__ZNKSt3__110__function6__funcIZN4grpc12experimental20ServerMetricRecorder20SetMemoryUtilizationEdE3$_1NS_9allocatorIS5_EEFvPN9grpc_core17BackendMetricDataEEE7__cloneEPNS0_6__baseISB_EE', symObjAddr: 0x2E58, symBinAddr: 0x8BC0, symSize: 0x14 }
  - { offsetInCU: 0x2F66D, offset: 0x792B2, size: 0x8, addend: 0x0, symName: '__ZNKSt3__110__function6__funcIZN4grpc12experimental20ServerMetricRecorder20SetMemoryUtilizationEdE3$_1NS_9allocatorIS5_EEFvPN9grpc_core17BackendMetricDataEEE7__cloneEPNS0_6__baseISB_EE', symObjAddr: 0x2E58, symBinAddr: 0x8BC0, symSize: 0x14 }
  - { offsetInCU: 0x2F69B, offset: 0x792E0, size: 0x8, addend: 0x0, symName: '__ZNKSt3__110__function6__funcIZN4grpc12experimental20ServerMetricRecorder20SetMemoryUtilizationEdE3$_1NS_9allocatorIS5_EEFvPN9grpc_core17BackendMetricDataEEE7__cloneEPNS0_6__baseISB_EE', symObjAddr: 0x2E58, symBinAddr: 0x8BC0, symSize: 0x14 }
  - { offsetInCU: 0x2F6C9, offset: 0x7930E, size: 0x8, addend: 0x0, symName: '__ZNKSt3__110__function6__funcIZN4grpc12experimental20ServerMetricRecorder20SetMemoryUtilizationEdE3$_1NS_9allocatorIS5_EEFvPN9grpc_core17BackendMetricDataEEE7__cloneEPNS0_6__baseISB_EE', symObjAddr: 0x2E58, symBinAddr: 0x8BC0, symSize: 0x14 }
  - { offsetInCU: 0x2F6DE, offset: 0x79323, size: 0x8, addend: 0x0, symName: '__ZNKSt3__110__function6__funcIZN4grpc12experimental20ServerMetricRecorder20SetMemoryUtilizationEdE3$_1NS_9allocatorIS5_EEFvPN9grpc_core17BackendMetricDataEEE7__cloneEPNS0_6__baseISB_EE', symObjAddr: 0x2E58, symBinAddr: 0x8BC0, symSize: 0x14 }
  - { offsetInCU: 0x2F6F2, offset: 0x79337, size: 0x8, addend: 0x0, symName: '__ZNKSt3__110__function6__funcIZN4grpc12experimental20ServerMetricRecorder20SetMemoryUtilizationEdE3$_1NS_9allocatorIS5_EEFvPN9grpc_core17BackendMetricDataEEE7__cloneEPNS0_6__baseISB_EE', symObjAddr: 0x2E58, symBinAddr: 0x8BC0, symSize: 0x14 }
  - { offsetInCU: 0x2F706, offset: 0x7934B, size: 0x8, addend: 0x0, symName: '__ZNKSt3__110__function6__funcIZN4grpc12experimental20ServerMetricRecorder20SetMemoryUtilizationEdE3$_1NS_9allocatorIS5_EEFvPN9grpc_core17BackendMetricDataEEE7__cloneEPNS0_6__baseISB_EE', symObjAddr: 0x2E58, symBinAddr: 0x8BC0, symSize: 0x14 }
  - { offsetInCU: 0x2F71A, offset: 0x7935F, size: 0x8, addend: 0x0, symName: '__ZNKSt3__110__function6__funcIZN4grpc12experimental20ServerMetricRecorder20SetMemoryUtilizationEdE3$_1NS_9allocatorIS5_EEFvPN9grpc_core17BackendMetricDataEEE7__cloneEPNS0_6__baseISB_EE', symObjAddr: 0x2E58, symBinAddr: 0x8BC0, symSize: 0x14 }
  - { offsetInCU: 0x2F732, offset: 0x79377, size: 0x8, addend: 0x0, symName: '__ZNSt3__110__function6__funcIZN4grpc12experimental20ServerMetricRecorder20SetMemoryUtilizationEdE3$_1NS_9allocatorIS5_EEFvPN9grpc_core17BackendMetricDataEEE7destroyEv', symObjAddr: 0x2E6C, symBinAddr: 0x8BD4, symSize: 0x4 }
  - { offsetInCU: 0x2F783, offset: 0x793C8, size: 0x8, addend: 0x0, symName: '__ZNSt3__110__function6__funcIZN4grpc12experimental20ServerMetricRecorder20SetMemoryUtilizationEdE3$_1NS_9allocatorIS5_EEFvPN9grpc_core17BackendMetricDataEEE18destroy_deallocateEv', symObjAddr: 0x2E70, symBinAddr: 0x8BD8, symSize: 0x4 }
  - { offsetInCU: 0x2F7BA, offset: 0x793FF, size: 0x8, addend: 0x0, symName: '__ZNSt3__110__function6__funcIZN4grpc12experimental20ServerMetricRecorder20SetMemoryUtilizationEdE3$_1NS_9allocatorIS5_EEFvPN9grpc_core17BackendMetricDataEEE18destroy_deallocateEv', symObjAddr: 0x2E70, symBinAddr: 0x8BD8, symSize: 0x4 }
  - { offsetInCU: 0x2F7DC, offset: 0x79421, size: 0x8, addend: 0x0, symName: '__ZNSt3__110__function6__funcIZN4grpc12experimental20ServerMetricRecorder20SetMemoryUtilizationEdE3$_1NS_9allocatorIS5_EEFvPN9grpc_core17BackendMetricDataEEE18destroy_deallocateEv', symObjAddr: 0x2E70, symBinAddr: 0x8BD8, symSize: 0x4 }
  - { offsetInCU: 0x2F807, offset: 0x7944C, size: 0x8, addend: 0x0, symName: '__ZNSt3__110__function6__funcIZN4grpc12experimental20ServerMetricRecorder20SetMemoryUtilizationEdE3$_1NS_9allocatorIS5_EEFvPN9grpc_core17BackendMetricDataEEE18destroy_deallocateEv', symObjAddr: 0x2E70, symBinAddr: 0x8BD8, symSize: 0x4 }
  - { offsetInCU: 0x2F82D, offset: 0x79472, size: 0x8, addend: 0x0, symName: '__ZNSt3__110__function6__funcIZN4grpc12experimental20ServerMetricRecorder20SetMemoryUtilizationEdE3$_1NS_9allocatorIS5_EEFvPN9grpc_core17BackendMetricDataEEE18destroy_deallocateEv', symObjAddr: 0x2E70, symBinAddr: 0x8BD8, symSize: 0x4 }
  - { offsetInCU: 0x2F8D1, offset: 0x79516, size: 0x8, addend: 0x0, symName: '__ZNSt3__110__function6__funcIZN4grpc12experimental20ServerMetricRecorder20SetMemoryUtilizationEdE3$_1NS_9allocatorIS5_EEFvPN9grpc_core17BackendMetricDataEEEclEOSA_', symObjAddr: 0x2E74, symBinAddr: 0x8BDC, symSize: 0x10 }
  - { offsetInCU: 0x2F90A, offset: 0x7954F, size: 0x8, addend: 0x0, symName: '__ZNSt3__110__function6__funcIZN4grpc12experimental20ServerMetricRecorder20SetMemoryUtilizationEdE3$_1NS_9allocatorIS5_EEFvPN9grpc_core17BackendMetricDataEEEclEOSA_', symObjAddr: 0x2E74, symBinAddr: 0x8BDC, symSize: 0x10 }
  - { offsetInCU: 0x2F92F, offset: 0x79574, size: 0x8, addend: 0x0, symName: '__ZNSt3__110__function6__funcIZN4grpc12experimental20ServerMetricRecorder20SetMemoryUtilizationEdE3$_1NS_9allocatorIS5_EEFvPN9grpc_core17BackendMetricDataEEEclEOSA_', symObjAddr: 0x2E74, symBinAddr: 0x8BDC, symSize: 0x10 }
  - { offsetInCU: 0x2F953, offset: 0x79598, size: 0x8, addend: 0x0, symName: '__ZNSt3__110__function6__funcIZN4grpc12experimental20ServerMetricRecorder20SetMemoryUtilizationEdE3$_1NS_9allocatorIS5_EEFvPN9grpc_core17BackendMetricDataEEEclEOSA_', symObjAddr: 0x2E74, symBinAddr: 0x8BDC, symSize: 0x10 }
  - { offsetInCU: 0x2F99E, offset: 0x795E3, size: 0x8, addend: 0x0, symName: '__ZNKSt3__110__function6__funcIZN4grpc12experimental20ServerMetricRecorder20SetMemoryUtilizationEdE3$_1NS_9allocatorIS5_EEFvPN9grpc_core17BackendMetricDataEEE6targetERKSt9type_info', symObjAddr: 0x2E84, symBinAddr: 0x8BEC, symSize: 0x3C }
  - { offsetInCU: 0x2F9EE, offset: 0x79633, size: 0x8, addend: 0x0, symName: '__ZNKSt3__110__function6__funcIZN4grpc12experimental20ServerMetricRecorder20SetMemoryUtilizationEdE3$_1NS_9allocatorIS5_EEFvPN9grpc_core17BackendMetricDataEEE11target_typeEv', symObjAddr: 0x2EC0, symBinAddr: 0x8C28, symSize: 0xC }
  - { offsetInCU: 0x2FA13, offset: 0x79658, size: 0x8, addend: 0x0, symName: '__ZNSt3__110__function6__funcIZN4grpc12experimental20ServerMetricRecorder25SetApplicationUtilizationEdE3$_2NS_9allocatorIS5_EEFvPN9grpc_core17BackendMetricDataEEED1Ev', symObjAddr: 0x2ECC, symBinAddr: 0x8C34, symSize: 0x4 }
  - { offsetInCU: 0x2FA3F, offset: 0x79684, size: 0x8, addend: 0x0, symName: '__ZNSt3__110__function6__funcIZN4grpc12experimental20ServerMetricRecorder25SetApplicationUtilizationEdE3$_2NS_9allocatorIS5_EEFvPN9grpc_core17BackendMetricDataEEED0Ev', symObjAddr: 0x2ED0, symBinAddr: 0x8C38, symSize: 0x4 }
  - { offsetInCU: 0x2FC43, offset: 0x79888, size: 0x8, addend: 0x0, symName: '__ZNKSt3__110__function6__funcIZN4grpc12experimental20ServerMetricRecorder25SetApplicationUtilizationEdE3$_2NS_9allocatorIS5_EEFvPN9grpc_core17BackendMetricDataEEE7__cloneEv', symObjAddr: 0x2ED4, symBinAddr: 0x8C3C, symSize: 0x34 }
  - { offsetInCU: 0x2FF38, offset: 0x79B7D, size: 0x8, addend: 0x0, symName: '__ZNKSt3__110__function6__funcIZN4grpc12experimental20ServerMetricRecorder25SetApplicationUtilizationEdE3$_2NS_9allocatorIS5_EEFvPN9grpc_core17BackendMetricDataEEE7__cloneEPNS0_6__baseISB_EE', symObjAddr: 0x2F08, symBinAddr: 0x8C70, symSize: 0x14 }
  - { offsetInCU: 0x2FF71, offset: 0x79BB6, size: 0x8, addend: 0x0, symName: '__ZNKSt3__110__function6__funcIZN4grpc12experimental20ServerMetricRecorder25SetApplicationUtilizationEdE3$_2NS_9allocatorIS5_EEFvPN9grpc_core17BackendMetricDataEEE7__cloneEPNS0_6__baseISB_EE', symObjAddr: 0x2F08, symBinAddr: 0x8C70, symSize: 0x14 }
  - { offsetInCU: 0x2FF9F, offset: 0x79BE4, size: 0x8, addend: 0x0, symName: '__ZNKSt3__110__function6__funcIZN4grpc12experimental20ServerMetricRecorder25SetApplicationUtilizationEdE3$_2NS_9allocatorIS5_EEFvPN9grpc_core17BackendMetricDataEEE7__cloneEPNS0_6__baseISB_EE', symObjAddr: 0x2F08, symBinAddr: 0x8C70, symSize: 0x14 }
  - { offsetInCU: 0x2FFCD, offset: 0x79C12, size: 0x8, addend: 0x0, symName: '__ZNKSt3__110__function6__funcIZN4grpc12experimental20ServerMetricRecorder25SetApplicationUtilizationEdE3$_2NS_9allocatorIS5_EEFvPN9grpc_core17BackendMetricDataEEE7__cloneEPNS0_6__baseISB_EE', symObjAddr: 0x2F08, symBinAddr: 0x8C70, symSize: 0x14 }
  - { offsetInCU: 0x2FFE2, offset: 0x79C27, size: 0x8, addend: 0x0, symName: '__ZNKSt3__110__function6__funcIZN4grpc12experimental20ServerMetricRecorder25SetApplicationUtilizationEdE3$_2NS_9allocatorIS5_EEFvPN9grpc_core17BackendMetricDataEEE7__cloneEPNS0_6__baseISB_EE', symObjAddr: 0x2F08, symBinAddr: 0x8C70, symSize: 0x14 }
  - { offsetInCU: 0x2FFF6, offset: 0x79C3B, size: 0x8, addend: 0x0, symName: '__ZNKSt3__110__function6__funcIZN4grpc12experimental20ServerMetricRecorder25SetApplicationUtilizationEdE3$_2NS_9allocatorIS5_EEFvPN9grpc_core17BackendMetricDataEEE7__cloneEPNS0_6__baseISB_EE', symObjAddr: 0x2F08, symBinAddr: 0x8C70, symSize: 0x14 }
  - { offsetInCU: 0x3000A, offset: 0x79C4F, size: 0x8, addend: 0x0, symName: '__ZNKSt3__110__function6__funcIZN4grpc12experimental20ServerMetricRecorder25SetApplicationUtilizationEdE3$_2NS_9allocatorIS5_EEFvPN9grpc_core17BackendMetricDataEEE7__cloneEPNS0_6__baseISB_EE', symObjAddr: 0x2F08, symBinAddr: 0x8C70, symSize: 0x14 }
  - { offsetInCU: 0x3001E, offset: 0x79C63, size: 0x8, addend: 0x0, symName: '__ZNKSt3__110__function6__funcIZN4grpc12experimental20ServerMetricRecorder25SetApplicationUtilizationEdE3$_2NS_9allocatorIS5_EEFvPN9grpc_core17BackendMetricDataEEE7__cloneEPNS0_6__baseISB_EE', symObjAddr: 0x2F08, symBinAddr: 0x8C70, symSize: 0x14 }
  - { offsetInCU: 0x30036, offset: 0x79C7B, size: 0x8, addend: 0x0, symName: '__ZNSt3__110__function6__funcIZN4grpc12experimental20ServerMetricRecorder25SetApplicationUtilizationEdE3$_2NS_9allocatorIS5_EEFvPN9grpc_core17BackendMetricDataEEE7destroyEv', symObjAddr: 0x2F1C, symBinAddr: 0x8C84, symSize: 0x4 }
  - { offsetInCU: 0x30087, offset: 0x79CCC, size: 0x8, addend: 0x0, symName: '__ZNSt3__110__function6__funcIZN4grpc12experimental20ServerMetricRecorder25SetApplicationUtilizationEdE3$_2NS_9allocatorIS5_EEFvPN9grpc_core17BackendMetricDataEEE18destroy_deallocateEv', symObjAddr: 0x2F20, symBinAddr: 0x8C88, symSize: 0x4 }
  - { offsetInCU: 0x300BE, offset: 0x79D03, size: 0x8, addend: 0x0, symName: '__ZNSt3__110__function6__funcIZN4grpc12experimental20ServerMetricRecorder25SetApplicationUtilizationEdE3$_2NS_9allocatorIS5_EEFvPN9grpc_core17BackendMetricDataEEE18destroy_deallocateEv', symObjAddr: 0x2F20, symBinAddr: 0x8C88, symSize: 0x4 }
  - { offsetInCU: 0x300E0, offset: 0x79D25, size: 0x8, addend: 0x0, symName: '__ZNSt3__110__function6__funcIZN4grpc12experimental20ServerMetricRecorder25SetApplicationUtilizationEdE3$_2NS_9allocatorIS5_EEFvPN9grpc_core17BackendMetricDataEEE18destroy_deallocateEv', symObjAddr: 0x2F20, symBinAddr: 0x8C88, symSize: 0x4 }
  - { offsetInCU: 0x3010B, offset: 0x79D50, size: 0x8, addend: 0x0, symName: '__ZNSt3__110__function6__funcIZN4grpc12experimental20ServerMetricRecorder25SetApplicationUtilizationEdE3$_2NS_9allocatorIS5_EEFvPN9grpc_core17BackendMetricDataEEE18destroy_deallocateEv', symObjAddr: 0x2F20, symBinAddr: 0x8C88, symSize: 0x4 }
  - { offsetInCU: 0x30131, offset: 0x79D76, size: 0x8, addend: 0x0, symName: '__ZNSt3__110__function6__funcIZN4grpc12experimental20ServerMetricRecorder25SetApplicationUtilizationEdE3$_2NS_9allocatorIS5_EEFvPN9grpc_core17BackendMetricDataEEE18destroy_deallocateEv', symObjAddr: 0x2F20, symBinAddr: 0x8C88, symSize: 0x4 }
  - { offsetInCU: 0x301D5, offset: 0x79E1A, size: 0x8, addend: 0x0, symName: '__ZNSt3__110__function6__funcIZN4grpc12experimental20ServerMetricRecorder25SetApplicationUtilizationEdE3$_2NS_9allocatorIS5_EEFvPN9grpc_core17BackendMetricDataEEEclEOSA_', symObjAddr: 0x2F24, symBinAddr: 0x8C8C, symSize: 0x10 }
  - { offsetInCU: 0x3020E, offset: 0x79E53, size: 0x8, addend: 0x0, symName: '__ZNSt3__110__function6__funcIZN4grpc12experimental20ServerMetricRecorder25SetApplicationUtilizationEdE3$_2NS_9allocatorIS5_EEFvPN9grpc_core17BackendMetricDataEEEclEOSA_', symObjAddr: 0x2F24, symBinAddr: 0x8C8C, symSize: 0x10 }
  - { offsetInCU: 0x30233, offset: 0x79E78, size: 0x8, addend: 0x0, symName: '__ZNSt3__110__function6__funcIZN4grpc12experimental20ServerMetricRecorder25SetApplicationUtilizationEdE3$_2NS_9allocatorIS5_EEFvPN9grpc_core17BackendMetricDataEEEclEOSA_', symObjAddr: 0x2F24, symBinAddr: 0x8C8C, symSize: 0x10 }
  - { offsetInCU: 0x30257, offset: 0x79E9C, size: 0x8, addend: 0x0, symName: '__ZNSt3__110__function6__funcIZN4grpc12experimental20ServerMetricRecorder25SetApplicationUtilizationEdE3$_2NS_9allocatorIS5_EEFvPN9grpc_core17BackendMetricDataEEEclEOSA_', symObjAddr: 0x2F24, symBinAddr: 0x8C8C, symSize: 0x10 }
  - { offsetInCU: 0x302A2, offset: 0x79EE7, size: 0x8, addend: 0x0, symName: '__ZNKSt3__110__function6__funcIZN4grpc12experimental20ServerMetricRecorder25SetApplicationUtilizationEdE3$_2NS_9allocatorIS5_EEFvPN9grpc_core17BackendMetricDataEEE6targetERKSt9type_info', symObjAddr: 0x2F34, symBinAddr: 0x8C9C, symSize: 0x3C }
  - { offsetInCU: 0x302F2, offset: 0x79F37, size: 0x8, addend: 0x0, symName: '__ZNKSt3__110__function6__funcIZN4grpc12experimental20ServerMetricRecorder25SetApplicationUtilizationEdE3$_2NS_9allocatorIS5_EEFvPN9grpc_core17BackendMetricDataEEE11target_typeEv', symObjAddr: 0x2F70, symBinAddr: 0x8CD8, symSize: 0xC }
  - { offsetInCU: 0x30317, offset: 0x79F5C, size: 0x8, addend: 0x0, symName: '__ZNSt3__110__function6__funcIZN4grpc12experimental20ServerMetricRecorder6SetQpsEdE3$_3NS_9allocatorIS5_EEFvPN9grpc_core17BackendMetricDataEEED1Ev', symObjAddr: 0x2F7C, symBinAddr: 0x8CE4, symSize: 0x4 }
  - { offsetInCU: 0x30343, offset: 0x79F88, size: 0x8, addend: 0x0, symName: '__ZNSt3__110__function6__funcIZN4grpc12experimental20ServerMetricRecorder6SetQpsEdE3$_3NS_9allocatorIS5_EEFvPN9grpc_core17BackendMetricDataEEED0Ev', symObjAddr: 0x2F80, symBinAddr: 0x8CE8, symSize: 0x4 }
  - { offsetInCU: 0x30547, offset: 0x7A18C, size: 0x8, addend: 0x0, symName: '__ZNKSt3__110__function6__funcIZN4grpc12experimental20ServerMetricRecorder6SetQpsEdE3$_3NS_9allocatorIS5_EEFvPN9grpc_core17BackendMetricDataEEE7__cloneEv', symObjAddr: 0x2F84, symBinAddr: 0x8CEC, symSize: 0x34 }
  - { offsetInCU: 0x3083C, offset: 0x7A481, size: 0x8, addend: 0x0, symName: '__ZNKSt3__110__function6__funcIZN4grpc12experimental20ServerMetricRecorder6SetQpsEdE3$_3NS_9allocatorIS5_EEFvPN9grpc_core17BackendMetricDataEEE7__cloneEPNS0_6__baseISB_EE', symObjAddr: 0x2FB8, symBinAddr: 0x8D20, symSize: 0x14 }
  - { offsetInCU: 0x30875, offset: 0x7A4BA, size: 0x8, addend: 0x0, symName: '__ZNKSt3__110__function6__funcIZN4grpc12experimental20ServerMetricRecorder6SetQpsEdE3$_3NS_9allocatorIS5_EEFvPN9grpc_core17BackendMetricDataEEE7__cloneEPNS0_6__baseISB_EE', symObjAddr: 0x2FB8, symBinAddr: 0x8D20, symSize: 0x14 }
  - { offsetInCU: 0x308A3, offset: 0x7A4E8, size: 0x8, addend: 0x0, symName: '__ZNKSt3__110__function6__funcIZN4grpc12experimental20ServerMetricRecorder6SetQpsEdE3$_3NS_9allocatorIS5_EEFvPN9grpc_core17BackendMetricDataEEE7__cloneEPNS0_6__baseISB_EE', symObjAddr: 0x2FB8, symBinAddr: 0x8D20, symSize: 0x14 }
  - { offsetInCU: 0x308D1, offset: 0x7A516, size: 0x8, addend: 0x0, symName: '__ZNKSt3__110__function6__funcIZN4grpc12experimental20ServerMetricRecorder6SetQpsEdE3$_3NS_9allocatorIS5_EEFvPN9grpc_core17BackendMetricDataEEE7__cloneEPNS0_6__baseISB_EE', symObjAddr: 0x2FB8, symBinAddr: 0x8D20, symSize: 0x14 }
  - { offsetInCU: 0x308E6, offset: 0x7A52B, size: 0x8, addend: 0x0, symName: '__ZNKSt3__110__function6__funcIZN4grpc12experimental20ServerMetricRecorder6SetQpsEdE3$_3NS_9allocatorIS5_EEFvPN9grpc_core17BackendMetricDataEEE7__cloneEPNS0_6__baseISB_EE', symObjAddr: 0x2FB8, symBinAddr: 0x8D20, symSize: 0x14 }
  - { offsetInCU: 0x308FA, offset: 0x7A53F, size: 0x8, addend: 0x0, symName: '__ZNKSt3__110__function6__funcIZN4grpc12experimental20ServerMetricRecorder6SetQpsEdE3$_3NS_9allocatorIS5_EEFvPN9grpc_core17BackendMetricDataEEE7__cloneEPNS0_6__baseISB_EE', symObjAddr: 0x2FB8, symBinAddr: 0x8D20, symSize: 0x14 }
  - { offsetInCU: 0x3090E, offset: 0x7A553, size: 0x8, addend: 0x0, symName: '__ZNKSt3__110__function6__funcIZN4grpc12experimental20ServerMetricRecorder6SetQpsEdE3$_3NS_9allocatorIS5_EEFvPN9grpc_core17BackendMetricDataEEE7__cloneEPNS0_6__baseISB_EE', symObjAddr: 0x2FB8, symBinAddr: 0x8D20, symSize: 0x14 }
  - { offsetInCU: 0x30922, offset: 0x7A567, size: 0x8, addend: 0x0, symName: '__ZNKSt3__110__function6__funcIZN4grpc12experimental20ServerMetricRecorder6SetQpsEdE3$_3NS_9allocatorIS5_EEFvPN9grpc_core17BackendMetricDataEEE7__cloneEPNS0_6__baseISB_EE', symObjAddr: 0x2FB8, symBinAddr: 0x8D20, symSize: 0x14 }
  - { offsetInCU: 0x3093A, offset: 0x7A57F, size: 0x8, addend: 0x0, symName: '__ZNSt3__110__function6__funcIZN4grpc12experimental20ServerMetricRecorder6SetQpsEdE3$_3NS_9allocatorIS5_EEFvPN9grpc_core17BackendMetricDataEEE7destroyEv', symObjAddr: 0x2FCC, symBinAddr: 0x8D34, symSize: 0x4 }
  - { offsetInCU: 0x3098B, offset: 0x7A5D0, size: 0x8, addend: 0x0, symName: '__ZNSt3__110__function6__funcIZN4grpc12experimental20ServerMetricRecorder6SetQpsEdE3$_3NS_9allocatorIS5_EEFvPN9grpc_core17BackendMetricDataEEE18destroy_deallocateEv', symObjAddr: 0x2FD0, symBinAddr: 0x8D38, symSize: 0x4 }
  - { offsetInCU: 0x309C2, offset: 0x7A607, size: 0x8, addend: 0x0, symName: '__ZNSt3__110__function6__funcIZN4grpc12experimental20ServerMetricRecorder6SetQpsEdE3$_3NS_9allocatorIS5_EEFvPN9grpc_core17BackendMetricDataEEE18destroy_deallocateEv', symObjAddr: 0x2FD0, symBinAddr: 0x8D38, symSize: 0x4 }
  - { offsetInCU: 0x309E4, offset: 0x7A629, size: 0x8, addend: 0x0, symName: '__ZNSt3__110__function6__funcIZN4grpc12experimental20ServerMetricRecorder6SetQpsEdE3$_3NS_9allocatorIS5_EEFvPN9grpc_core17BackendMetricDataEEE18destroy_deallocateEv', symObjAddr: 0x2FD0, symBinAddr: 0x8D38, symSize: 0x4 }
  - { offsetInCU: 0x30A0F, offset: 0x7A654, size: 0x8, addend: 0x0, symName: '__ZNSt3__110__function6__funcIZN4grpc12experimental20ServerMetricRecorder6SetQpsEdE3$_3NS_9allocatorIS5_EEFvPN9grpc_core17BackendMetricDataEEE18destroy_deallocateEv', symObjAddr: 0x2FD0, symBinAddr: 0x8D38, symSize: 0x4 }
  - { offsetInCU: 0x30A35, offset: 0x7A67A, size: 0x8, addend: 0x0, symName: '__ZNSt3__110__function6__funcIZN4grpc12experimental20ServerMetricRecorder6SetQpsEdE3$_3NS_9allocatorIS5_EEFvPN9grpc_core17BackendMetricDataEEE18destroy_deallocateEv', symObjAddr: 0x2FD0, symBinAddr: 0x8D38, symSize: 0x4 }
  - { offsetInCU: 0x30AD9, offset: 0x7A71E, size: 0x8, addend: 0x0, symName: '__ZNSt3__110__function6__funcIZN4grpc12experimental20ServerMetricRecorder6SetQpsEdE3$_3NS_9allocatorIS5_EEFvPN9grpc_core17BackendMetricDataEEEclEOSA_', symObjAddr: 0x2FD4, symBinAddr: 0x8D3C, symSize: 0x10 }
  - { offsetInCU: 0x30B12, offset: 0x7A757, size: 0x8, addend: 0x0, symName: '__ZNSt3__110__function6__funcIZN4grpc12experimental20ServerMetricRecorder6SetQpsEdE3$_3NS_9allocatorIS5_EEFvPN9grpc_core17BackendMetricDataEEEclEOSA_', symObjAddr: 0x2FD4, symBinAddr: 0x8D3C, symSize: 0x10 }
  - { offsetInCU: 0x30B37, offset: 0x7A77C, size: 0x8, addend: 0x0, symName: '__ZNSt3__110__function6__funcIZN4grpc12experimental20ServerMetricRecorder6SetQpsEdE3$_3NS_9allocatorIS5_EEFvPN9grpc_core17BackendMetricDataEEEclEOSA_', symObjAddr: 0x2FD4, symBinAddr: 0x8D3C, symSize: 0x10 }
  - { offsetInCU: 0x30B5B, offset: 0x7A7A0, size: 0x8, addend: 0x0, symName: '__ZNSt3__110__function6__funcIZN4grpc12experimental20ServerMetricRecorder6SetQpsEdE3$_3NS_9allocatorIS5_EEFvPN9grpc_core17BackendMetricDataEEEclEOSA_', symObjAddr: 0x2FD4, symBinAddr: 0x8D3C, symSize: 0x10 }
  - { offsetInCU: 0x30BA6, offset: 0x7A7EB, size: 0x8, addend: 0x0, symName: '__ZNKSt3__110__function6__funcIZN4grpc12experimental20ServerMetricRecorder6SetQpsEdE3$_3NS_9allocatorIS5_EEFvPN9grpc_core17BackendMetricDataEEE6targetERKSt9type_info', symObjAddr: 0x2FE4, symBinAddr: 0x8D4C, symSize: 0x3C }
  - { offsetInCU: 0x30BF6, offset: 0x7A83B, size: 0x8, addend: 0x0, symName: '__ZNKSt3__110__function6__funcIZN4grpc12experimental20ServerMetricRecorder6SetQpsEdE3$_3NS_9allocatorIS5_EEFvPN9grpc_core17BackendMetricDataEEE11target_typeEv', symObjAddr: 0x3020, symBinAddr: 0x8D88, symSize: 0xC }
  - { offsetInCU: 0x30C1B, offset: 0x7A860, size: 0x8, addend: 0x0, symName: '__ZNSt3__110__function6__funcIZN4grpc12experimental20ServerMetricRecorder6SetEpsEdE3$_4NS_9allocatorIS5_EEFvPN9grpc_core17BackendMetricDataEEED1Ev', symObjAddr: 0x302C, symBinAddr: 0x8D94, symSize: 0x4 }
  - { offsetInCU: 0x30C47, offset: 0x7A88C, size: 0x8, addend: 0x0, symName: '__ZNSt3__110__function6__funcIZN4grpc12experimental20ServerMetricRecorder6SetEpsEdE3$_4NS_9allocatorIS5_EEFvPN9grpc_core17BackendMetricDataEEED0Ev', symObjAddr: 0x3030, symBinAddr: 0x8D98, symSize: 0x4 }
  - { offsetInCU: 0x30E4B, offset: 0x7AA90, size: 0x8, addend: 0x0, symName: '__ZNKSt3__110__function6__funcIZN4grpc12experimental20ServerMetricRecorder6SetEpsEdE3$_4NS_9allocatorIS5_EEFvPN9grpc_core17BackendMetricDataEEE7__cloneEv', symObjAddr: 0x3034, symBinAddr: 0x8D9C, symSize: 0x34 }
  - { offsetInCU: 0x31140, offset: 0x7AD85, size: 0x8, addend: 0x0, symName: '__ZNKSt3__110__function6__funcIZN4grpc12experimental20ServerMetricRecorder6SetEpsEdE3$_4NS_9allocatorIS5_EEFvPN9grpc_core17BackendMetricDataEEE7__cloneEPNS0_6__baseISB_EE', symObjAddr: 0x3068, symBinAddr: 0x8DD0, symSize: 0x14 }
  - { offsetInCU: 0x31179, offset: 0x7ADBE, size: 0x8, addend: 0x0, symName: '__ZNKSt3__110__function6__funcIZN4grpc12experimental20ServerMetricRecorder6SetEpsEdE3$_4NS_9allocatorIS5_EEFvPN9grpc_core17BackendMetricDataEEE7__cloneEPNS0_6__baseISB_EE', symObjAddr: 0x3068, symBinAddr: 0x8DD0, symSize: 0x14 }
  - { offsetInCU: 0x311A7, offset: 0x7ADEC, size: 0x8, addend: 0x0, symName: '__ZNKSt3__110__function6__funcIZN4grpc12experimental20ServerMetricRecorder6SetEpsEdE3$_4NS_9allocatorIS5_EEFvPN9grpc_core17BackendMetricDataEEE7__cloneEPNS0_6__baseISB_EE', symObjAddr: 0x3068, symBinAddr: 0x8DD0, symSize: 0x14 }
  - { offsetInCU: 0x311D5, offset: 0x7AE1A, size: 0x8, addend: 0x0, symName: '__ZNKSt3__110__function6__funcIZN4grpc12experimental20ServerMetricRecorder6SetEpsEdE3$_4NS_9allocatorIS5_EEFvPN9grpc_core17BackendMetricDataEEE7__cloneEPNS0_6__baseISB_EE', symObjAddr: 0x3068, symBinAddr: 0x8DD0, symSize: 0x14 }
  - { offsetInCU: 0x311EA, offset: 0x7AE2F, size: 0x8, addend: 0x0, symName: '__ZNKSt3__110__function6__funcIZN4grpc12experimental20ServerMetricRecorder6SetEpsEdE3$_4NS_9allocatorIS5_EEFvPN9grpc_core17BackendMetricDataEEE7__cloneEPNS0_6__baseISB_EE', symObjAddr: 0x3068, symBinAddr: 0x8DD0, symSize: 0x14 }
  - { offsetInCU: 0x311FE, offset: 0x7AE43, size: 0x8, addend: 0x0, symName: '__ZNKSt3__110__function6__funcIZN4grpc12experimental20ServerMetricRecorder6SetEpsEdE3$_4NS_9allocatorIS5_EEFvPN9grpc_core17BackendMetricDataEEE7__cloneEPNS0_6__baseISB_EE', symObjAddr: 0x3068, symBinAddr: 0x8DD0, symSize: 0x14 }
  - { offsetInCU: 0x31212, offset: 0x7AE57, size: 0x8, addend: 0x0, symName: '__ZNKSt3__110__function6__funcIZN4grpc12experimental20ServerMetricRecorder6SetEpsEdE3$_4NS_9allocatorIS5_EEFvPN9grpc_core17BackendMetricDataEEE7__cloneEPNS0_6__baseISB_EE', symObjAddr: 0x3068, symBinAddr: 0x8DD0, symSize: 0x14 }
  - { offsetInCU: 0x31226, offset: 0x7AE6B, size: 0x8, addend: 0x0, symName: '__ZNKSt3__110__function6__funcIZN4grpc12experimental20ServerMetricRecorder6SetEpsEdE3$_4NS_9allocatorIS5_EEFvPN9grpc_core17BackendMetricDataEEE7__cloneEPNS0_6__baseISB_EE', symObjAddr: 0x3068, symBinAddr: 0x8DD0, symSize: 0x14 }
  - { offsetInCU: 0x3123E, offset: 0x7AE83, size: 0x8, addend: 0x0, symName: '__ZNSt3__110__function6__funcIZN4grpc12experimental20ServerMetricRecorder6SetEpsEdE3$_4NS_9allocatorIS5_EEFvPN9grpc_core17BackendMetricDataEEE7destroyEv', symObjAddr: 0x307C, symBinAddr: 0x8DE4, symSize: 0x4 }
  - { offsetInCU: 0x3128F, offset: 0x7AED4, size: 0x8, addend: 0x0, symName: '__ZNSt3__110__function6__funcIZN4grpc12experimental20ServerMetricRecorder6SetEpsEdE3$_4NS_9allocatorIS5_EEFvPN9grpc_core17BackendMetricDataEEE18destroy_deallocateEv', symObjAddr: 0x3080, symBinAddr: 0x8DE8, symSize: 0x4 }
  - { offsetInCU: 0x312C6, offset: 0x7AF0B, size: 0x8, addend: 0x0, symName: '__ZNSt3__110__function6__funcIZN4grpc12experimental20ServerMetricRecorder6SetEpsEdE3$_4NS_9allocatorIS5_EEFvPN9grpc_core17BackendMetricDataEEE18destroy_deallocateEv', symObjAddr: 0x3080, symBinAddr: 0x8DE8, symSize: 0x4 }
  - { offsetInCU: 0x312E8, offset: 0x7AF2D, size: 0x8, addend: 0x0, symName: '__ZNSt3__110__function6__funcIZN4grpc12experimental20ServerMetricRecorder6SetEpsEdE3$_4NS_9allocatorIS5_EEFvPN9grpc_core17BackendMetricDataEEE18destroy_deallocateEv', symObjAddr: 0x3080, symBinAddr: 0x8DE8, symSize: 0x4 }
  - { offsetInCU: 0x31313, offset: 0x7AF58, size: 0x8, addend: 0x0, symName: '__ZNSt3__110__function6__funcIZN4grpc12experimental20ServerMetricRecorder6SetEpsEdE3$_4NS_9allocatorIS5_EEFvPN9grpc_core17BackendMetricDataEEE18destroy_deallocateEv', symObjAddr: 0x3080, symBinAddr: 0x8DE8, symSize: 0x4 }
  - { offsetInCU: 0x31339, offset: 0x7AF7E, size: 0x8, addend: 0x0, symName: '__ZNSt3__110__function6__funcIZN4grpc12experimental20ServerMetricRecorder6SetEpsEdE3$_4NS_9allocatorIS5_EEFvPN9grpc_core17BackendMetricDataEEE18destroy_deallocateEv', symObjAddr: 0x3080, symBinAddr: 0x8DE8, symSize: 0x4 }
  - { offsetInCU: 0x313DD, offset: 0x7B022, size: 0x8, addend: 0x0, symName: '__ZNSt3__110__function6__funcIZN4grpc12experimental20ServerMetricRecorder6SetEpsEdE3$_4NS_9allocatorIS5_EEFvPN9grpc_core17BackendMetricDataEEEclEOSA_', symObjAddr: 0x3084, symBinAddr: 0x8DEC, symSize: 0x10 }
  - { offsetInCU: 0x31416, offset: 0x7B05B, size: 0x8, addend: 0x0, symName: '__ZNSt3__110__function6__funcIZN4grpc12experimental20ServerMetricRecorder6SetEpsEdE3$_4NS_9allocatorIS5_EEFvPN9grpc_core17BackendMetricDataEEEclEOSA_', symObjAddr: 0x3084, symBinAddr: 0x8DEC, symSize: 0x10 }
  - { offsetInCU: 0x3143B, offset: 0x7B080, size: 0x8, addend: 0x0, symName: '__ZNSt3__110__function6__funcIZN4grpc12experimental20ServerMetricRecorder6SetEpsEdE3$_4NS_9allocatorIS5_EEFvPN9grpc_core17BackendMetricDataEEEclEOSA_', symObjAddr: 0x3084, symBinAddr: 0x8DEC, symSize: 0x10 }
  - { offsetInCU: 0x3145F, offset: 0x7B0A4, size: 0x8, addend: 0x0, symName: '__ZNSt3__110__function6__funcIZN4grpc12experimental20ServerMetricRecorder6SetEpsEdE3$_4NS_9allocatorIS5_EEFvPN9grpc_core17BackendMetricDataEEEclEOSA_', symObjAddr: 0x3084, symBinAddr: 0x8DEC, symSize: 0x10 }
  - { offsetInCU: 0x314AA, offset: 0x7B0EF, size: 0x8, addend: 0x0, symName: '__ZNKSt3__110__function6__funcIZN4grpc12experimental20ServerMetricRecorder6SetEpsEdE3$_4NS_9allocatorIS5_EEFvPN9grpc_core17BackendMetricDataEEE6targetERKSt9type_info', symObjAddr: 0x3094, symBinAddr: 0x8DFC, symSize: 0x3C }
  - { offsetInCU: 0x314FA, offset: 0x7B13F, size: 0x8, addend: 0x0, symName: '__ZNKSt3__110__function6__funcIZN4grpc12experimental20ServerMetricRecorder6SetEpsEdE3$_4NS_9allocatorIS5_EEFvPN9grpc_core17BackendMetricDataEEE11target_typeEv', symObjAddr: 0x30D0, symBinAddr: 0x8E38, symSize: 0xC }
  - { offsetInCU: 0x3151F, offset: 0x7B164, size: 0x8, addend: 0x0, symName: '__ZNSt3__110__function6__funcIZN4grpc12experimental20ServerMetricRecorder19SetNamedUtilizationENS2_10string_refEdE3$_5NS_9allocatorIS6_EEFvPN9grpc_core17BackendMetricDataEEED1Ev', symObjAddr: 0x30DC, symBinAddr: 0x8E44, symSize: 0x4 }
  - { offsetInCU: 0x3154B, offset: 0x7B190, size: 0x8, addend: 0x0, symName: '__ZNSt3__110__function6__funcIZN4grpc12experimental20ServerMetricRecorder19SetNamedUtilizationENS2_10string_refEdE3$_5NS_9allocatorIS6_EEFvPN9grpc_core17BackendMetricDataEEED0Ev', symObjAddr: 0x30E0, symBinAddr: 0x8E48, symSize: 0x4 }
  - { offsetInCU: 0x3176B, offset: 0x7B3B0, size: 0x8, addend: 0x0, symName: '__ZNKSt3__110__function6__funcIZN4grpc12experimental20ServerMetricRecorder19SetNamedUtilizationENS2_10string_refEdE3$_5NS_9allocatorIS6_EEFvPN9grpc_core17BackendMetricDataEEE7__cloneEv', symObjAddr: 0x30E4, symBinAddr: 0x8E4C, symSize: 0x40 }
  - { offsetInCU: 0x31AE9, offset: 0x7B72E, size: 0x8, addend: 0x0, symName: '__ZNKSt3__110__function6__funcIZN4grpc12experimental20ServerMetricRecorder19SetNamedUtilizationENS2_10string_refEdE3$_5NS_9allocatorIS6_EEFvPN9grpc_core17BackendMetricDataEEE7__cloneEPNS0_6__baseISC_EE', symObjAddr: 0x3124, symBinAddr: 0x8E8C, symSize: 0x20 }
  - { offsetInCU: 0x31B22, offset: 0x7B767, size: 0x8, addend: 0x0, symName: '__ZNKSt3__110__function6__funcIZN4grpc12experimental20ServerMetricRecorder19SetNamedUtilizationENS2_10string_refEdE3$_5NS_9allocatorIS6_EEFvPN9grpc_core17BackendMetricDataEEE7__cloneEPNS0_6__baseISC_EE', symObjAddr: 0x3124, symBinAddr: 0x8E8C, symSize: 0x20 }
  - { offsetInCU: 0x31B50, offset: 0x7B795, size: 0x8, addend: 0x0, symName: '__ZNKSt3__110__function6__funcIZN4grpc12experimental20ServerMetricRecorder19SetNamedUtilizationENS2_10string_refEdE3$_5NS_9allocatorIS6_EEFvPN9grpc_core17BackendMetricDataEEE7__cloneEPNS0_6__baseISC_EE', symObjAddr: 0x3124, symBinAddr: 0x8E8C, symSize: 0x20 }
  - { offsetInCU: 0x31CC1, offset: 0x7B906, size: 0x8, addend: 0x0, symName: '__ZNSt3__110__function6__funcIZN4grpc12experimental20ServerMetricRecorder19SetNamedUtilizationENS2_10string_refEdE3$_5NS_9allocatorIS6_EEFvPN9grpc_core17BackendMetricDataEEE7destroyEv', symObjAddr: 0x3144, symBinAddr: 0x8EAC, symSize: 0x4 }
  - { offsetInCU: 0x31D12, offset: 0x7B957, size: 0x8, addend: 0x0, symName: '__ZNSt3__110__function6__funcIZN4grpc12experimental20ServerMetricRecorder19SetNamedUtilizationENS2_10string_refEdE3$_5NS_9allocatorIS6_EEFvPN9grpc_core17BackendMetricDataEEE18destroy_deallocateEv', symObjAddr: 0x3148, symBinAddr: 0x8EB0, symSize: 0x4 }
  - { offsetInCU: 0x31D49, offset: 0x7B98E, size: 0x8, addend: 0x0, symName: '__ZNSt3__110__function6__funcIZN4grpc12experimental20ServerMetricRecorder19SetNamedUtilizationENS2_10string_refEdE3$_5NS_9allocatorIS6_EEFvPN9grpc_core17BackendMetricDataEEE18destroy_deallocateEv', symObjAddr: 0x3148, symBinAddr: 0x8EB0, symSize: 0x4 }
  - { offsetInCU: 0x31D6B, offset: 0x7B9B0, size: 0x8, addend: 0x0, symName: '__ZNSt3__110__function6__funcIZN4grpc12experimental20ServerMetricRecorder19SetNamedUtilizationENS2_10string_refEdE3$_5NS_9allocatorIS6_EEFvPN9grpc_core17BackendMetricDataEEE18destroy_deallocateEv', symObjAddr: 0x3148, symBinAddr: 0x8EB0, symSize: 0x4 }
  - { offsetInCU: 0x31D96, offset: 0x7B9DB, size: 0x8, addend: 0x0, symName: '__ZNSt3__110__function6__funcIZN4grpc12experimental20ServerMetricRecorder19SetNamedUtilizationENS2_10string_refEdE3$_5NS_9allocatorIS6_EEFvPN9grpc_core17BackendMetricDataEEE18destroy_deallocateEv', symObjAddr: 0x3148, symBinAddr: 0x8EB0, symSize: 0x4 }
  - { offsetInCU: 0x31DBC, offset: 0x7BA01, size: 0x8, addend: 0x0, symName: '__ZNSt3__110__function6__funcIZN4grpc12experimental20ServerMetricRecorder19SetNamedUtilizationENS2_10string_refEdE3$_5NS_9allocatorIS6_EEFvPN9grpc_core17BackendMetricDataEEE18destroy_deallocateEv', symObjAddr: 0x3148, symBinAddr: 0x8EB0, symSize: 0x4 }
  - { offsetInCU: 0x31E84, offset: 0x7BAC9, size: 0x8, addend: 0x0, symName: '__ZNSt3__110__function6__funcIZN4grpc12experimental20ServerMetricRecorder19SetNamedUtilizationENS2_10string_refEdE3$_5NS_9allocatorIS6_EEFvPN9grpc_core17BackendMetricDataEEEclEOSB_', symObjAddr: 0x314C, symBinAddr: 0x8EB4, symSize: 0x64 }
  - { offsetInCU: 0x32024, offset: 0x7BC69, size: 0x8, addend: 0x0, symName: '__ZNKSt3__110__function6__funcIZN4grpc12experimental20ServerMetricRecorder19SetNamedUtilizationENS2_10string_refEdE3$_5NS_9allocatorIS6_EEFvPN9grpc_core17BackendMetricDataEEE6targetERKSt9type_info', symObjAddr: 0x31B0, symBinAddr: 0x8F18, symSize: 0x3C }
  - { offsetInCU: 0x3202F, offset: 0x7BC74, size: 0x8, addend: 0x0, symName: __ZNSt3__16__treeINS_12__value_typeIN4absl12lts_2024011611string_viewEdEENS_19__map_value_compareIS4_S5_NS_4lessIS4_EELb1EEENS_9allocatorIS5_EEE25__emplace_unique_key_argsIS4_JRKNS_21piecewise_construct_tENS_5tupleIJOS4_EEENSH_IJEEEEEENS_4pairINS_15__tree_iteratorIS5_PNS_11__tree_nodeIS5_PvEElEEbEERKT_DpOT0_, symObjAddr: 0x31F8, symBinAddr: 0x8F60, symSize: 0x88 }
  - { offsetInCU: 0x322DA, offset: 0x7BF1F, size: 0x8, addend: 0x0, symName: '__ZNSt3__110__function6__funcIZN4grpc12experimental20ServerMetricRecorder19SetNamedUtilizationENS2_10string_refEdE3$_5NS_9allocatorIS6_EEFvPN9grpc_core17BackendMetricDataEEEclEOSB_.cold.1', symObjAddr: 0x42C0, symBinAddr: 0x3170C, symSize: 0x24 }
  - { offsetInCU: 0x3239F, offset: 0x7BFE4, size: 0x8, addend: 0x0, symName: '__ZNKSt3__110__function6__funcIZN4grpc12experimental20ServerMetricRecorder19SetNamedUtilizationENS2_10string_refEdE3$_5NS_9allocatorIS6_EEFvPN9grpc_core17BackendMetricDataEEE6targetERKSt9type_info', symObjAddr: 0x31B0, symBinAddr: 0x8F18, symSize: 0x3C }
  - { offsetInCU: 0x323EF, offset: 0x7C034, size: 0x8, addend: 0x0, symName: '__ZNKSt3__110__function6__funcIZN4grpc12experimental20ServerMetricRecorder19SetNamedUtilizationENS2_10string_refEdE3$_5NS_9allocatorIS6_EEFvPN9grpc_core17BackendMetricDataEEE11target_typeEv', symObjAddr: 0x31EC, symBinAddr: 0x8F54, symSize: 0xC }
  - { offsetInCU: 0x3271C, offset: 0x7C361, size: 0x8, addend: 0x0, symName: '__ZNSt3__110__function6__funcIZN4grpc12experimental20ServerMetricRecorder22SetAllNamedUtilizationENS_3mapINS2_10string_refEdNS_4lessIS6_EENS_9allocatorINS_4pairIKS6_dEEEEEEE3$_6NS9_ISF_EEFvPN9grpc_core17BackendMetricDataEEED1Ev', symObjAddr: 0x3280, symBinAddr: 0x8FE8, symSize: 0x34 }
  - { offsetInCU: 0x328DB, offset: 0x7C520, size: 0x8, addend: 0x0, symName: '__ZNSt3__110__function6__funcIZN4grpc12experimental20ServerMetricRecorder22SetAllNamedUtilizationENS_3mapINS2_10string_refEdNS_4lessIS6_EENS_9allocatorINS_4pairIKS6_dEEEEEEE3$_6NS9_ISF_EEFvPN9grpc_core17BackendMetricDataEEED0Ev', symObjAddr: 0x32B4, symBinAddr: 0x901C, symSize: 0x34 }
  - { offsetInCU: 0x32DD4, offset: 0x7CA19, size: 0x8, addend: 0x0, symName: '__ZNKSt3__110__function6__funcIZN4grpc12experimental20ServerMetricRecorder22SetAllNamedUtilizationENS_3mapINS2_10string_refEdNS_4lessIS6_EENS_9allocatorINS_4pairIKS6_dEEEEEEE3$_6NS9_ISF_EEFvPN9grpc_core17BackendMetricDataEEE7__cloneEv', symObjAddr: 0x32E8, symBinAddr: 0x9050, symSize: 0x54 }
  - { offsetInCU: 0x330F9, offset: 0x7CD3E, size: 0x8, addend: 0x0, symName: __ZNSt3__13mapIN4grpc10string_refEdNS_4lessIS2_EENS_9allocatorINS_4pairIKS2_dEEEEEC2B8ue170006ERKSA_, symObjAddr: 0x34C0, symBinAddr: 0x9228, symSize: 0x54 }
  - { offsetInCU: 0x3340B, offset: 0x7D050, size: 0x8, addend: 0x0, symName: '__ZNKSt3__110__function6__funcIZN4grpc12experimental20ServerMetricRecorder22SetAllNamedUtilizationENS_3mapINS2_10string_refEdNS_4lessIS6_EENS_9allocatorINS_4pairIKS6_dEEEEEEE3$_6NS9_ISF_EEFvPN9grpc_core17BackendMetricDataEEE7__cloneEPNS0_6__baseISK_EE', symObjAddr: 0x333C, symBinAddr: 0x90A4, symSize: 0x1C }
  - { offsetInCU: 0x335F7, offset: 0x7D23C, size: 0x8, addend: 0x0, symName: '__ZNSt3__110__function6__funcIZN4grpc12experimental20ServerMetricRecorder22SetAllNamedUtilizationENS_3mapINS2_10string_refEdNS_4lessIS6_EENS_9allocatorINS_4pairIKS6_dEEEEEEE3$_6NS9_ISF_EEFvPN9grpc_core17BackendMetricDataEEE7destroyEv', symObjAddr: 0x3358, symBinAddr: 0x90C0, symSize: 0x10 }
  - { offsetInCU: 0x33767, offset: 0x7D3AC, size: 0x8, addend: 0x0, symName: '__ZNSt3__110__function6__funcIZN4grpc12experimental20ServerMetricRecorder22SetAllNamedUtilizationENS_3mapINS2_10string_refEdNS_4lessIS6_EENS_9allocatorINS_4pairIKS6_dEEEEEEE3$_6NS9_ISF_EEFvPN9grpc_core17BackendMetricDataEEE18destroy_deallocateEv', symObjAddr: 0x3368, symBinAddr: 0x90D0, symSize: 0x2C }
  - { offsetInCU: 0x33B14, offset: 0x7D759, size: 0x8, addend: 0x0, symName: '__ZNSt3__110__function6__funcIZN4grpc12experimental20ServerMetricRecorder22SetAllNamedUtilizationENS_3mapINS2_10string_refEdNS_4lessIS6_EENS_9allocatorINS_4pairIKS6_dEEEEEEE3$_6NS9_ISF_EEFvPN9grpc_core17BackendMetricDataEEEclEOSJ_', symObjAddr: 0x3394, symBinAddr: 0x90FC, symSize: 0xE4 }
  - { offsetInCU: 0x33E6B, offset: 0x7DAB0, size: 0x8, addend: 0x0, symName: '__ZNKSt3__110__function6__funcIZN4grpc12experimental20ServerMetricRecorder22SetAllNamedUtilizationENS_3mapINS2_10string_refEdNS_4lessIS6_EENS_9allocatorINS_4pairIKS6_dEEEEEEE3$_6NS9_ISF_EEFvPN9grpc_core17BackendMetricDataEEE6targetERKSt9type_info', symObjAddr: 0x3478, symBinAddr: 0x91E0, symSize: 0x3C }
  - { offsetInCU: 0x33E76, offset: 0x7DABB, size: 0x8, addend: 0x0, symName: '__ZNSt3__110__function6__funcIZN4grpc12experimental20ServerMetricRecorder22SetAllNamedUtilizationENS_3mapINS2_10string_refEdNS_4lessIS6_EENS_9allocatorINS_4pairIKS6_dEEEEEEE3$_6NS9_ISF_EEFvPN9grpc_core17BackendMetricDataEEEclEOSJ_.cold.1', symObjAddr: 0x42E4, symBinAddr: 0x31730, symSize: 0x24 }
  - { offsetInCU: 0x33F3B, offset: 0x7DB80, size: 0x8, addend: 0x0, symName: '__ZNKSt3__110__function6__funcIZN4grpc12experimental20ServerMetricRecorder22SetAllNamedUtilizationENS_3mapINS2_10string_refEdNS_4lessIS6_EENS_9allocatorINS_4pairIKS6_dEEEEEEE3$_6NS9_ISF_EEFvPN9grpc_core17BackendMetricDataEEE6targetERKSt9type_info', symObjAddr: 0x3478, symBinAddr: 0x91E0, symSize: 0x3C }
  - { offsetInCU: 0x33F8B, offset: 0x7DBD0, size: 0x8, addend: 0x0, symName: '__ZNKSt3__110__function6__funcIZN4grpc12experimental20ServerMetricRecorder22SetAllNamedUtilizationENS_3mapINS2_10string_refEdNS_4lessIS6_EENS_9allocatorINS_4pairIKS6_dEEEEEEE3$_6NS9_ISF_EEFvPN9grpc_core17BackendMetricDataEEE11target_typeEv', symObjAddr: 0x34B4, symBinAddr: 0x921C, symSize: 0xC }
  - { offsetInCU: 0x3408A, offset: 0x7DCCF, size: 0x8, addend: 0x0, symName: __ZNSt3__13mapIN4grpc10string_refEdNS_4lessIS2_EENS_9allocatorINS_4pairIKS2_dEEEEE6insertB8ue170006INS_20__map_const_iteratorINS_21__tree_const_iteratorINS_12__value_typeIS2_dEEPNS_11__tree_nodeISF_PvEElEEEEEEvT_SM_, symObjAddr: 0x3514, symBinAddr: 0x927C, symSize: 0x84 }
  - { offsetInCU: 0x3432A, offset: 0x7DF6F, size: 0x8, addend: 0x0, symName: __ZNSt3__16__treeINS_12__value_typeIN4grpc10string_refEdEENS_19__map_value_compareIS3_S4_NS_4lessIS3_EELb1EEENS_9allocatorIS4_EEE30__emplace_hint_unique_key_argsIS3_JRKNS_4pairIKS3_dEEEEENSD_INS_15__tree_iteratorIS4_PNS_11__tree_nodeIS4_PvEElEEbEENS_21__tree_const_iteratorIS4_SM_lEERKT_DpOT0_, symObjAddr: 0x3598, symBinAddr: 0x9300, symSize: 0x8C }
  - { offsetInCU: 0x3475C, offset: 0x7E3A1, size: 0x8, addend: 0x0, symName: __ZNSt3__16__treeINS_12__value_typeIN4grpc10string_refEdEENS_19__map_value_compareIS3_S4_NS_4lessIS3_EELb1EEENS_9allocatorIS4_EEE12__find_equalIS3_EERPNS_16__tree_node_baseIPvEENS_21__tree_const_iteratorIS4_PNS_11__tree_nodeIS4_SE_EElEERPNS_15__tree_end_nodeISG_EESH_RKT_, symObjAddr: 0x3624, symBinAddr: 0x938C, symSize: 0x1BC }
  - { offsetInCU: 0x34EAE, offset: 0x7EAF3, size: 0x8, addend: 0x0, symName: __ZNSt3__16__treeINS_12__value_typeIN4grpc10string_refEdEENS_19__map_value_compareIS3_S4_NS_4lessIS3_EELb1EEENS_9allocatorIS4_EEE16__insert_node_atEPNS_15__tree_end_nodeIPNS_16__tree_node_baseIPvEEEERSG_SG_, symObjAddr: 0x37E0, symBinAddr: 0x9548, symSize: 0x54 }
  - { offsetInCU: 0x35001, offset: 0x7EC46, size: 0x8, addend: 0x0, symName: __ZNK4grpc10string_ref7compareES0_, symObjAddr: 0x38E0, symBinAddr: 0x9648, symSize: 0x54 }
  - { offsetInCU: 0x35058, offset: 0x7EC9D, size: 0x8, addend: 0x0, symName: __ZNSt3__16__treeINS_12__value_typeIN4grpc10string_refEdEENS_19__map_value_compareIS3_S4_NS_4lessIS3_EELb1EEENS_9allocatorIS4_EEE12__find_equalIS3_EERPNS_16__tree_node_baseIPvEERPNS_15__tree_end_nodeISG_EERKT_, symObjAddr: 0x3834, symBinAddr: 0x959C, symSize: 0xAC }
  - { offsetInCU: 0x35377, offset: 0x7EFBC, size: 0x8, addend: 0x0, symName: '__ZNSt3__110__function6__funcIZN4grpc12experimental20ServerMetricRecorder19ClearCpuUtilizationEvE3$_7NS_9allocatorIS5_EEFvPN9grpc_core17BackendMetricDataEEED1Ev', symObjAddr: 0x3934, symBinAddr: 0x969C, symSize: 0x4 }
  - { offsetInCU: 0x353A3, offset: 0x7EFE8, size: 0x8, addend: 0x0, symName: '__ZNSt3__110__function6__funcIZN4grpc12experimental20ServerMetricRecorder19ClearCpuUtilizationEvE3$_7NS_9allocatorIS5_EEFvPN9grpc_core17BackendMetricDataEEED0Ev', symObjAddr: 0x3938, symBinAddr: 0x96A0, symSize: 0x4 }
  - { offsetInCU: 0x35459, offset: 0x7F09E, size: 0x8, addend: 0x0, symName: '__ZNKSt3__110__function6__funcIZN4grpc12experimental20ServerMetricRecorder19ClearCpuUtilizationEvE3$_7NS_9allocatorIS5_EEFvPN9grpc_core17BackendMetricDataEEE7__cloneEv', symObjAddr: 0x393C, symBinAddr: 0x96A4, symSize: 0x24 }
  - { offsetInCU: 0x3559F, offset: 0x7F1E4, size: 0x8, addend: 0x0, symName: '__ZNKSt3__110__function6__funcIZN4grpc12experimental20ServerMetricRecorder19ClearCpuUtilizationEvE3$_7NS_9allocatorIS5_EEFvPN9grpc_core17BackendMetricDataEEE7__cloneEPNS0_6__baseISB_EE', symObjAddr: 0x3960, symBinAddr: 0x96C8, symSize: 0x10 }
  - { offsetInCU: 0x355D6, offset: 0x7F21B, size: 0x8, addend: 0x0, symName: '__ZNKSt3__110__function6__funcIZN4grpc12experimental20ServerMetricRecorder19ClearCpuUtilizationEvE3$_7NS_9allocatorIS5_EEFvPN9grpc_core17BackendMetricDataEEE7__cloneEPNS0_6__baseISB_EE', symObjAddr: 0x3960, symBinAddr: 0x96C8, symSize: 0x10 }
  - { offsetInCU: 0x355F2, offset: 0x7F237, size: 0x8, addend: 0x0, symName: '__ZNKSt3__110__function6__funcIZN4grpc12experimental20ServerMetricRecorder19ClearCpuUtilizationEvE3$_7NS_9allocatorIS5_EEFvPN9grpc_core17BackendMetricDataEEE7__cloneEPNS0_6__baseISB_EE', symObjAddr: 0x3960, symBinAddr: 0x96C8, symSize: 0x10 }
  - { offsetInCU: 0x3560D, offset: 0x7F252, size: 0x8, addend: 0x0, symName: '__ZNSt3__110__function6__funcIZN4grpc12experimental20ServerMetricRecorder19ClearCpuUtilizationEvE3$_7NS_9allocatorIS5_EEFvPN9grpc_core17BackendMetricDataEEE7destroyEv', symObjAddr: 0x3970, symBinAddr: 0x96D8, symSize: 0x4 }
  - { offsetInCU: 0x3565E, offset: 0x7F2A3, size: 0x8, addend: 0x0, symName: '__ZNSt3__110__function6__funcIZN4grpc12experimental20ServerMetricRecorder19ClearCpuUtilizationEvE3$_7NS_9allocatorIS5_EEFvPN9grpc_core17BackendMetricDataEEE18destroy_deallocateEv', symObjAddr: 0x3974, symBinAddr: 0x96DC, symSize: 0x4 }
  - { offsetInCU: 0x35695, offset: 0x7F2DA, size: 0x8, addend: 0x0, symName: '__ZNSt3__110__function6__funcIZN4grpc12experimental20ServerMetricRecorder19ClearCpuUtilizationEvE3$_7NS_9allocatorIS5_EEFvPN9grpc_core17BackendMetricDataEEE18destroy_deallocateEv', symObjAddr: 0x3974, symBinAddr: 0x96DC, symSize: 0x4 }
  - { offsetInCU: 0x356B7, offset: 0x7F2FC, size: 0x8, addend: 0x0, symName: '__ZNSt3__110__function6__funcIZN4grpc12experimental20ServerMetricRecorder19ClearCpuUtilizationEvE3$_7NS_9allocatorIS5_EEFvPN9grpc_core17BackendMetricDataEEE18destroy_deallocateEv', symObjAddr: 0x3974, symBinAddr: 0x96DC, symSize: 0x4 }
  - { offsetInCU: 0x356E2, offset: 0x7F327, size: 0x8, addend: 0x0, symName: '__ZNSt3__110__function6__funcIZN4grpc12experimental20ServerMetricRecorder19ClearCpuUtilizationEvE3$_7NS_9allocatorIS5_EEFvPN9grpc_core17BackendMetricDataEEE18destroy_deallocateEv', symObjAddr: 0x3974, symBinAddr: 0x96DC, symSize: 0x4 }
  - { offsetInCU: 0x35708, offset: 0x7F34D, size: 0x8, addend: 0x0, symName: '__ZNSt3__110__function6__funcIZN4grpc12experimental20ServerMetricRecorder19ClearCpuUtilizationEvE3$_7NS_9allocatorIS5_EEFvPN9grpc_core17BackendMetricDataEEE18destroy_deallocateEv', symObjAddr: 0x3974, symBinAddr: 0x96DC, symSize: 0x4 }
  - { offsetInCU: 0x357AC, offset: 0x7F3F1, size: 0x8, addend: 0x0, symName: '__ZNSt3__110__function6__funcIZN4grpc12experimental20ServerMetricRecorder19ClearCpuUtilizationEvE3$_7NS_9allocatorIS5_EEFvPN9grpc_core17BackendMetricDataEEEclEOSA_', symObjAddr: 0x3978, symBinAddr: 0x96E0, symSize: 0x10 }
  - { offsetInCU: 0x357E3, offset: 0x7F428, size: 0x8, addend: 0x0, symName: '__ZNSt3__110__function6__funcIZN4grpc12experimental20ServerMetricRecorder19ClearCpuUtilizationEvE3$_7NS_9allocatorIS5_EEFvPN9grpc_core17BackendMetricDataEEEclEOSA_', symObjAddr: 0x3978, symBinAddr: 0x96E0, symSize: 0x10 }
  - { offsetInCU: 0x357FF, offset: 0x7F444, size: 0x8, addend: 0x0, symName: '__ZNSt3__110__function6__funcIZN4grpc12experimental20ServerMetricRecorder19ClearCpuUtilizationEvE3$_7NS_9allocatorIS5_EEFvPN9grpc_core17BackendMetricDataEEEclEOSA_', symObjAddr: 0x3978, symBinAddr: 0x96E0, symSize: 0x10 }
  - { offsetInCU: 0x3581A, offset: 0x7F45F, size: 0x8, addend: 0x0, symName: '__ZNSt3__110__function6__funcIZN4grpc12experimental20ServerMetricRecorder19ClearCpuUtilizationEvE3$_7NS_9allocatorIS5_EEFvPN9grpc_core17BackendMetricDataEEEclEOSA_', symObjAddr: 0x3978, symBinAddr: 0x96E0, symSize: 0x10 }
  - { offsetInCU: 0x35853, offset: 0x7F498, size: 0x8, addend: 0x0, symName: '__ZNKSt3__110__function6__funcIZN4grpc12experimental20ServerMetricRecorder19ClearCpuUtilizationEvE3$_7NS_9allocatorIS5_EEFvPN9grpc_core17BackendMetricDataEEE6targetERKSt9type_info', symObjAddr: 0x3988, symBinAddr: 0x96F0, symSize: 0x3C }
  - { offsetInCU: 0x358A3, offset: 0x7F4E8, size: 0x8, addend: 0x0, symName: '__ZNKSt3__110__function6__funcIZN4grpc12experimental20ServerMetricRecorder19ClearCpuUtilizationEvE3$_7NS_9allocatorIS5_EEFvPN9grpc_core17BackendMetricDataEEE11target_typeEv', symObjAddr: 0x39C4, symBinAddr: 0x972C, symSize: 0xC }
  - { offsetInCU: 0x358C8, offset: 0x7F50D, size: 0x8, addend: 0x0, symName: '__ZNSt3__110__function6__funcIZN4grpc12experimental20ServerMetricRecorder22ClearMemoryUtilizationEvE3$_8NS_9allocatorIS5_EEFvPN9grpc_core17BackendMetricDataEEED1Ev', symObjAddr: 0x39D0, symBinAddr: 0x9738, symSize: 0x4 }
  - { offsetInCU: 0x358F4, offset: 0x7F539, size: 0x8, addend: 0x0, symName: '__ZNSt3__110__function6__funcIZN4grpc12experimental20ServerMetricRecorder22ClearMemoryUtilizationEvE3$_8NS_9allocatorIS5_EEFvPN9grpc_core17BackendMetricDataEEED0Ev', symObjAddr: 0x39D4, symBinAddr: 0x973C, symSize: 0x4 }
  - { offsetInCU: 0x359AA, offset: 0x7F5EF, size: 0x8, addend: 0x0, symName: '__ZNKSt3__110__function6__funcIZN4grpc12experimental20ServerMetricRecorder22ClearMemoryUtilizationEvE3$_8NS_9allocatorIS5_EEFvPN9grpc_core17BackendMetricDataEEE7__cloneEv', symObjAddr: 0x39D8, symBinAddr: 0x9740, symSize: 0x24 }
  - { offsetInCU: 0x35AF0, offset: 0x7F735, size: 0x8, addend: 0x0, symName: '__ZNKSt3__110__function6__funcIZN4grpc12experimental20ServerMetricRecorder22ClearMemoryUtilizationEvE3$_8NS_9allocatorIS5_EEFvPN9grpc_core17BackendMetricDataEEE7__cloneEPNS0_6__baseISB_EE', symObjAddr: 0x39FC, symBinAddr: 0x9764, symSize: 0x10 }
  - { offsetInCU: 0x35B27, offset: 0x7F76C, size: 0x8, addend: 0x0, symName: '__ZNKSt3__110__function6__funcIZN4grpc12experimental20ServerMetricRecorder22ClearMemoryUtilizationEvE3$_8NS_9allocatorIS5_EEFvPN9grpc_core17BackendMetricDataEEE7__cloneEPNS0_6__baseISB_EE', symObjAddr: 0x39FC, symBinAddr: 0x9764, symSize: 0x10 }
  - { offsetInCU: 0x35B43, offset: 0x7F788, size: 0x8, addend: 0x0, symName: '__ZNKSt3__110__function6__funcIZN4grpc12experimental20ServerMetricRecorder22ClearMemoryUtilizationEvE3$_8NS_9allocatorIS5_EEFvPN9grpc_core17BackendMetricDataEEE7__cloneEPNS0_6__baseISB_EE', symObjAddr: 0x39FC, symBinAddr: 0x9764, symSize: 0x10 }
  - { offsetInCU: 0x35B5E, offset: 0x7F7A3, size: 0x8, addend: 0x0, symName: '__ZNSt3__110__function6__funcIZN4grpc12experimental20ServerMetricRecorder22ClearMemoryUtilizationEvE3$_8NS_9allocatorIS5_EEFvPN9grpc_core17BackendMetricDataEEE7destroyEv', symObjAddr: 0x3A0C, symBinAddr: 0x9774, symSize: 0x4 }
  - { offsetInCU: 0x35BAF, offset: 0x7F7F4, size: 0x8, addend: 0x0, symName: '__ZNSt3__110__function6__funcIZN4grpc12experimental20ServerMetricRecorder22ClearMemoryUtilizationEvE3$_8NS_9allocatorIS5_EEFvPN9grpc_core17BackendMetricDataEEE18destroy_deallocateEv', symObjAddr: 0x3A10, symBinAddr: 0x9778, symSize: 0x4 }
  - { offsetInCU: 0x35BE6, offset: 0x7F82B, size: 0x8, addend: 0x0, symName: '__ZNSt3__110__function6__funcIZN4grpc12experimental20ServerMetricRecorder22ClearMemoryUtilizationEvE3$_8NS_9allocatorIS5_EEFvPN9grpc_core17BackendMetricDataEEE18destroy_deallocateEv', symObjAddr: 0x3A10, symBinAddr: 0x9778, symSize: 0x4 }
  - { offsetInCU: 0x35C08, offset: 0x7F84D, size: 0x8, addend: 0x0, symName: '__ZNSt3__110__function6__funcIZN4grpc12experimental20ServerMetricRecorder22ClearMemoryUtilizationEvE3$_8NS_9allocatorIS5_EEFvPN9grpc_core17BackendMetricDataEEE18destroy_deallocateEv', symObjAddr: 0x3A10, symBinAddr: 0x9778, symSize: 0x4 }
  - { offsetInCU: 0x35C33, offset: 0x7F878, size: 0x8, addend: 0x0, symName: '__ZNSt3__110__function6__funcIZN4grpc12experimental20ServerMetricRecorder22ClearMemoryUtilizationEvE3$_8NS_9allocatorIS5_EEFvPN9grpc_core17BackendMetricDataEEE18destroy_deallocateEv', symObjAddr: 0x3A10, symBinAddr: 0x9778, symSize: 0x4 }
  - { offsetInCU: 0x35C59, offset: 0x7F89E, size: 0x8, addend: 0x0, symName: '__ZNSt3__110__function6__funcIZN4grpc12experimental20ServerMetricRecorder22ClearMemoryUtilizationEvE3$_8NS_9allocatorIS5_EEFvPN9grpc_core17BackendMetricDataEEE18destroy_deallocateEv', symObjAddr: 0x3A10, symBinAddr: 0x9778, symSize: 0x4 }
  - { offsetInCU: 0x35CFD, offset: 0x7F942, size: 0x8, addend: 0x0, symName: '__ZNSt3__110__function6__funcIZN4grpc12experimental20ServerMetricRecorder22ClearMemoryUtilizationEvE3$_8NS_9allocatorIS5_EEFvPN9grpc_core17BackendMetricDataEEEclEOSA_', symObjAddr: 0x3A14, symBinAddr: 0x977C, symSize: 0x10 }
  - { offsetInCU: 0x35D34, offset: 0x7F979, size: 0x8, addend: 0x0, symName: '__ZNSt3__110__function6__funcIZN4grpc12experimental20ServerMetricRecorder22ClearMemoryUtilizationEvE3$_8NS_9allocatorIS5_EEFvPN9grpc_core17BackendMetricDataEEEclEOSA_', symObjAddr: 0x3A14, symBinAddr: 0x977C, symSize: 0x10 }
  - { offsetInCU: 0x35D50, offset: 0x7F995, size: 0x8, addend: 0x0, symName: '__ZNSt3__110__function6__funcIZN4grpc12experimental20ServerMetricRecorder22ClearMemoryUtilizationEvE3$_8NS_9allocatorIS5_EEFvPN9grpc_core17BackendMetricDataEEEclEOSA_', symObjAddr: 0x3A14, symBinAddr: 0x977C, symSize: 0x10 }
  - { offsetInCU: 0x35D6B, offset: 0x7F9B0, size: 0x8, addend: 0x0, symName: '__ZNSt3__110__function6__funcIZN4grpc12experimental20ServerMetricRecorder22ClearMemoryUtilizationEvE3$_8NS_9allocatorIS5_EEFvPN9grpc_core17BackendMetricDataEEEclEOSA_', symObjAddr: 0x3A14, symBinAddr: 0x977C, symSize: 0x10 }
  - { offsetInCU: 0x35DA4, offset: 0x7F9E9, size: 0x8, addend: 0x0, symName: '__ZNKSt3__110__function6__funcIZN4grpc12experimental20ServerMetricRecorder22ClearMemoryUtilizationEvE3$_8NS_9allocatorIS5_EEFvPN9grpc_core17BackendMetricDataEEE6targetERKSt9type_info', symObjAddr: 0x3A24, symBinAddr: 0x978C, symSize: 0x3C }
  - { offsetInCU: 0x35DF4, offset: 0x7FA39, size: 0x8, addend: 0x0, symName: '__ZNKSt3__110__function6__funcIZN4grpc12experimental20ServerMetricRecorder22ClearMemoryUtilizationEvE3$_8NS_9allocatorIS5_EEFvPN9grpc_core17BackendMetricDataEEE11target_typeEv', symObjAddr: 0x3A60, symBinAddr: 0x97C8, symSize: 0xC }
  - { offsetInCU: 0x35E19, offset: 0x7FA5E, size: 0x8, addend: 0x0, symName: '__ZNSt3__110__function6__funcIZN4grpc12experimental20ServerMetricRecorder27ClearApplicationUtilizationEvE3$_9NS_9allocatorIS5_EEFvPN9grpc_core17BackendMetricDataEEED1Ev', symObjAddr: 0x3A6C, symBinAddr: 0x97D4, symSize: 0x4 }
  - { offsetInCU: 0x35E45, offset: 0x7FA8A, size: 0x8, addend: 0x0, symName: '__ZNSt3__110__function6__funcIZN4grpc12experimental20ServerMetricRecorder27ClearApplicationUtilizationEvE3$_9NS_9allocatorIS5_EEFvPN9grpc_core17BackendMetricDataEEED0Ev', symObjAddr: 0x3A70, symBinAddr: 0x97D8, symSize: 0x4 }
  - { offsetInCU: 0x35EFB, offset: 0x7FB40, size: 0x8, addend: 0x0, symName: '__ZNKSt3__110__function6__funcIZN4grpc12experimental20ServerMetricRecorder27ClearApplicationUtilizationEvE3$_9NS_9allocatorIS5_EEFvPN9grpc_core17BackendMetricDataEEE7__cloneEv', symObjAddr: 0x3A74, symBinAddr: 0x97DC, symSize: 0x24 }
  - { offsetInCU: 0x36041, offset: 0x7FC86, size: 0x8, addend: 0x0, symName: '__ZNKSt3__110__function6__funcIZN4grpc12experimental20ServerMetricRecorder27ClearApplicationUtilizationEvE3$_9NS_9allocatorIS5_EEFvPN9grpc_core17BackendMetricDataEEE7__cloneEPNS0_6__baseISB_EE', symObjAddr: 0x3A98, symBinAddr: 0x9800, symSize: 0x10 }
  - { offsetInCU: 0x36078, offset: 0x7FCBD, size: 0x8, addend: 0x0, symName: '__ZNKSt3__110__function6__funcIZN4grpc12experimental20ServerMetricRecorder27ClearApplicationUtilizationEvE3$_9NS_9allocatorIS5_EEFvPN9grpc_core17BackendMetricDataEEE7__cloneEPNS0_6__baseISB_EE', symObjAddr: 0x3A98, symBinAddr: 0x9800, symSize: 0x10 }
  - { offsetInCU: 0x36094, offset: 0x7FCD9, size: 0x8, addend: 0x0, symName: '__ZNKSt3__110__function6__funcIZN4grpc12experimental20ServerMetricRecorder27ClearApplicationUtilizationEvE3$_9NS_9allocatorIS5_EEFvPN9grpc_core17BackendMetricDataEEE7__cloneEPNS0_6__baseISB_EE', symObjAddr: 0x3A98, symBinAddr: 0x9800, symSize: 0x10 }
  - { offsetInCU: 0x360AF, offset: 0x7FCF4, size: 0x8, addend: 0x0, symName: '__ZNSt3__110__function6__funcIZN4grpc12experimental20ServerMetricRecorder27ClearApplicationUtilizationEvE3$_9NS_9allocatorIS5_EEFvPN9grpc_core17BackendMetricDataEEE7destroyEv', symObjAddr: 0x3AA8, symBinAddr: 0x9810, symSize: 0x4 }
  - { offsetInCU: 0x36100, offset: 0x7FD45, size: 0x8, addend: 0x0, symName: '__ZNSt3__110__function6__funcIZN4grpc12experimental20ServerMetricRecorder27ClearApplicationUtilizationEvE3$_9NS_9allocatorIS5_EEFvPN9grpc_core17BackendMetricDataEEE18destroy_deallocateEv', symObjAddr: 0x3AAC, symBinAddr: 0x9814, symSize: 0x4 }
  - { offsetInCU: 0x36137, offset: 0x7FD7C, size: 0x8, addend: 0x0, symName: '__ZNSt3__110__function6__funcIZN4grpc12experimental20ServerMetricRecorder27ClearApplicationUtilizationEvE3$_9NS_9allocatorIS5_EEFvPN9grpc_core17BackendMetricDataEEE18destroy_deallocateEv', symObjAddr: 0x3AAC, symBinAddr: 0x9814, symSize: 0x4 }
  - { offsetInCU: 0x36159, offset: 0x7FD9E, size: 0x8, addend: 0x0, symName: '__ZNSt3__110__function6__funcIZN4grpc12experimental20ServerMetricRecorder27ClearApplicationUtilizationEvE3$_9NS_9allocatorIS5_EEFvPN9grpc_core17BackendMetricDataEEE18destroy_deallocateEv', symObjAddr: 0x3AAC, symBinAddr: 0x9814, symSize: 0x4 }
  - { offsetInCU: 0x36184, offset: 0x7FDC9, size: 0x8, addend: 0x0, symName: '__ZNSt3__110__function6__funcIZN4grpc12experimental20ServerMetricRecorder27ClearApplicationUtilizationEvE3$_9NS_9allocatorIS5_EEFvPN9grpc_core17BackendMetricDataEEE18destroy_deallocateEv', symObjAddr: 0x3AAC, symBinAddr: 0x9814, symSize: 0x4 }
  - { offsetInCU: 0x361AA, offset: 0x7FDEF, size: 0x8, addend: 0x0, symName: '__ZNSt3__110__function6__funcIZN4grpc12experimental20ServerMetricRecorder27ClearApplicationUtilizationEvE3$_9NS_9allocatorIS5_EEFvPN9grpc_core17BackendMetricDataEEE18destroy_deallocateEv', symObjAddr: 0x3AAC, symBinAddr: 0x9814, symSize: 0x4 }
  - { offsetInCU: 0x3624E, offset: 0x7FE93, size: 0x8, addend: 0x0, symName: '__ZNSt3__110__function6__funcIZN4grpc12experimental20ServerMetricRecorder27ClearApplicationUtilizationEvE3$_9NS_9allocatorIS5_EEFvPN9grpc_core17BackendMetricDataEEEclEOSA_', symObjAddr: 0x3AB0, symBinAddr: 0x9818, symSize: 0x10 }
  - { offsetInCU: 0x36285, offset: 0x7FECA, size: 0x8, addend: 0x0, symName: '__ZNSt3__110__function6__funcIZN4grpc12experimental20ServerMetricRecorder27ClearApplicationUtilizationEvE3$_9NS_9allocatorIS5_EEFvPN9grpc_core17BackendMetricDataEEEclEOSA_', symObjAddr: 0x3AB0, symBinAddr: 0x9818, symSize: 0x10 }
  - { offsetInCU: 0x362A1, offset: 0x7FEE6, size: 0x8, addend: 0x0, symName: '__ZNSt3__110__function6__funcIZN4grpc12experimental20ServerMetricRecorder27ClearApplicationUtilizationEvE3$_9NS_9allocatorIS5_EEFvPN9grpc_core17BackendMetricDataEEEclEOSA_', symObjAddr: 0x3AB0, symBinAddr: 0x9818, symSize: 0x10 }
  - { offsetInCU: 0x362BC, offset: 0x7FF01, size: 0x8, addend: 0x0, symName: '__ZNSt3__110__function6__funcIZN4grpc12experimental20ServerMetricRecorder27ClearApplicationUtilizationEvE3$_9NS_9allocatorIS5_EEFvPN9grpc_core17BackendMetricDataEEEclEOSA_', symObjAddr: 0x3AB0, symBinAddr: 0x9818, symSize: 0x10 }
  - { offsetInCU: 0x362F5, offset: 0x7FF3A, size: 0x8, addend: 0x0, symName: '__ZNKSt3__110__function6__funcIZN4grpc12experimental20ServerMetricRecorder27ClearApplicationUtilizationEvE3$_9NS_9allocatorIS5_EEFvPN9grpc_core17BackendMetricDataEEE6targetERKSt9type_info', symObjAddr: 0x3AC0, symBinAddr: 0x9828, symSize: 0x3C }
  - { offsetInCU: 0x36345, offset: 0x7FF8A, size: 0x8, addend: 0x0, symName: '__ZNKSt3__110__function6__funcIZN4grpc12experimental20ServerMetricRecorder27ClearApplicationUtilizationEvE3$_9NS_9allocatorIS5_EEFvPN9grpc_core17BackendMetricDataEEE11target_typeEv', symObjAddr: 0x3AFC, symBinAddr: 0x9864, symSize: 0xC }
  - { offsetInCU: 0x3636A, offset: 0x7FFAF, size: 0x8, addend: 0x0, symName: '__ZNSt3__110__function6__funcIZN4grpc12experimental20ServerMetricRecorder8ClearQpsEvE4$_10NS_9allocatorIS5_EEFvPN9grpc_core17BackendMetricDataEEED1Ev', symObjAddr: 0x3B08, symBinAddr: 0x9870, symSize: 0x4 }
  - { offsetInCU: 0x36396, offset: 0x7FFDB, size: 0x8, addend: 0x0, symName: '__ZNSt3__110__function6__funcIZN4grpc12experimental20ServerMetricRecorder8ClearQpsEvE4$_10NS_9allocatorIS5_EEFvPN9grpc_core17BackendMetricDataEEED0Ev', symObjAddr: 0x3B0C, symBinAddr: 0x9874, symSize: 0x4 }
  - { offsetInCU: 0x3644C, offset: 0x80091, size: 0x8, addend: 0x0, symName: '__ZNKSt3__110__function6__funcIZN4grpc12experimental20ServerMetricRecorder8ClearQpsEvE4$_10NS_9allocatorIS5_EEFvPN9grpc_core17BackendMetricDataEEE7__cloneEv', symObjAddr: 0x3B10, symBinAddr: 0x9878, symSize: 0x24 }
  - { offsetInCU: 0x36592, offset: 0x801D7, size: 0x8, addend: 0x0, symName: '__ZNKSt3__110__function6__funcIZN4grpc12experimental20ServerMetricRecorder8ClearQpsEvE4$_10NS_9allocatorIS5_EEFvPN9grpc_core17BackendMetricDataEEE7__cloneEPNS0_6__baseISB_EE', symObjAddr: 0x3B34, symBinAddr: 0x989C, symSize: 0x10 }
  - { offsetInCU: 0x365C9, offset: 0x8020E, size: 0x8, addend: 0x0, symName: '__ZNKSt3__110__function6__funcIZN4grpc12experimental20ServerMetricRecorder8ClearQpsEvE4$_10NS_9allocatorIS5_EEFvPN9grpc_core17BackendMetricDataEEE7__cloneEPNS0_6__baseISB_EE', symObjAddr: 0x3B34, symBinAddr: 0x989C, symSize: 0x10 }
  - { offsetInCU: 0x365E5, offset: 0x8022A, size: 0x8, addend: 0x0, symName: '__ZNKSt3__110__function6__funcIZN4grpc12experimental20ServerMetricRecorder8ClearQpsEvE4$_10NS_9allocatorIS5_EEFvPN9grpc_core17BackendMetricDataEEE7__cloneEPNS0_6__baseISB_EE', symObjAddr: 0x3B34, symBinAddr: 0x989C, symSize: 0x10 }
  - { offsetInCU: 0x36600, offset: 0x80245, size: 0x8, addend: 0x0, symName: '__ZNSt3__110__function6__funcIZN4grpc12experimental20ServerMetricRecorder8ClearQpsEvE4$_10NS_9allocatorIS5_EEFvPN9grpc_core17BackendMetricDataEEE7destroyEv', symObjAddr: 0x3B44, symBinAddr: 0x98AC, symSize: 0x4 }
  - { offsetInCU: 0x36651, offset: 0x80296, size: 0x8, addend: 0x0, symName: '__ZNSt3__110__function6__funcIZN4grpc12experimental20ServerMetricRecorder8ClearQpsEvE4$_10NS_9allocatorIS5_EEFvPN9grpc_core17BackendMetricDataEEE18destroy_deallocateEv', symObjAddr: 0x3B48, symBinAddr: 0x98B0, symSize: 0x4 }
  - { offsetInCU: 0x36688, offset: 0x802CD, size: 0x8, addend: 0x0, symName: '__ZNSt3__110__function6__funcIZN4grpc12experimental20ServerMetricRecorder8ClearQpsEvE4$_10NS_9allocatorIS5_EEFvPN9grpc_core17BackendMetricDataEEE18destroy_deallocateEv', symObjAddr: 0x3B48, symBinAddr: 0x98B0, symSize: 0x4 }
  - { offsetInCU: 0x366AA, offset: 0x802EF, size: 0x8, addend: 0x0, symName: '__ZNSt3__110__function6__funcIZN4grpc12experimental20ServerMetricRecorder8ClearQpsEvE4$_10NS_9allocatorIS5_EEFvPN9grpc_core17BackendMetricDataEEE18destroy_deallocateEv', symObjAddr: 0x3B48, symBinAddr: 0x98B0, symSize: 0x4 }
  - { offsetInCU: 0x366D5, offset: 0x8031A, size: 0x8, addend: 0x0, symName: '__ZNSt3__110__function6__funcIZN4grpc12experimental20ServerMetricRecorder8ClearQpsEvE4$_10NS_9allocatorIS5_EEFvPN9grpc_core17BackendMetricDataEEE18destroy_deallocateEv', symObjAddr: 0x3B48, symBinAddr: 0x98B0, symSize: 0x4 }
  - { offsetInCU: 0x366FB, offset: 0x80340, size: 0x8, addend: 0x0, symName: '__ZNSt3__110__function6__funcIZN4grpc12experimental20ServerMetricRecorder8ClearQpsEvE4$_10NS_9allocatorIS5_EEFvPN9grpc_core17BackendMetricDataEEE18destroy_deallocateEv', symObjAddr: 0x3B48, symBinAddr: 0x98B0, symSize: 0x4 }
  - { offsetInCU: 0x3679F, offset: 0x803E4, size: 0x8, addend: 0x0, symName: '__ZNSt3__110__function6__funcIZN4grpc12experimental20ServerMetricRecorder8ClearQpsEvE4$_10NS_9allocatorIS5_EEFvPN9grpc_core17BackendMetricDataEEEclEOSA_', symObjAddr: 0x3B4C, symBinAddr: 0x98B4, symSize: 0x10 }
  - { offsetInCU: 0x367D6, offset: 0x8041B, size: 0x8, addend: 0x0, symName: '__ZNSt3__110__function6__funcIZN4grpc12experimental20ServerMetricRecorder8ClearQpsEvE4$_10NS_9allocatorIS5_EEFvPN9grpc_core17BackendMetricDataEEEclEOSA_', symObjAddr: 0x3B4C, symBinAddr: 0x98B4, symSize: 0x10 }
  - { offsetInCU: 0x367F2, offset: 0x80437, size: 0x8, addend: 0x0, symName: '__ZNSt3__110__function6__funcIZN4grpc12experimental20ServerMetricRecorder8ClearQpsEvE4$_10NS_9allocatorIS5_EEFvPN9grpc_core17BackendMetricDataEEEclEOSA_', symObjAddr: 0x3B4C, symBinAddr: 0x98B4, symSize: 0x10 }
  - { offsetInCU: 0x3680D, offset: 0x80452, size: 0x8, addend: 0x0, symName: '__ZNSt3__110__function6__funcIZN4grpc12experimental20ServerMetricRecorder8ClearQpsEvE4$_10NS_9allocatorIS5_EEFvPN9grpc_core17BackendMetricDataEEEclEOSA_', symObjAddr: 0x3B4C, symBinAddr: 0x98B4, symSize: 0x10 }
  - { offsetInCU: 0x36846, offset: 0x8048B, size: 0x8, addend: 0x0, symName: '__ZNKSt3__110__function6__funcIZN4grpc12experimental20ServerMetricRecorder8ClearQpsEvE4$_10NS_9allocatorIS5_EEFvPN9grpc_core17BackendMetricDataEEE6targetERKSt9type_info', symObjAddr: 0x3B5C, symBinAddr: 0x98C4, symSize: 0x3C }
  - { offsetInCU: 0x36896, offset: 0x804DB, size: 0x8, addend: 0x0, symName: '__ZNKSt3__110__function6__funcIZN4grpc12experimental20ServerMetricRecorder8ClearQpsEvE4$_10NS_9allocatorIS5_EEFvPN9grpc_core17BackendMetricDataEEE11target_typeEv', symObjAddr: 0x3B98, symBinAddr: 0x9900, symSize: 0xC }
  - { offsetInCU: 0x368BB, offset: 0x80500, size: 0x8, addend: 0x0, symName: '__ZNSt3__110__function6__funcIZN4grpc12experimental20ServerMetricRecorder8ClearEpsEvE4$_11NS_9allocatorIS5_EEFvPN9grpc_core17BackendMetricDataEEED1Ev', symObjAddr: 0x3BA4, symBinAddr: 0x990C, symSize: 0x4 }
  - { offsetInCU: 0x368E7, offset: 0x8052C, size: 0x8, addend: 0x0, symName: '__ZNSt3__110__function6__funcIZN4grpc12experimental20ServerMetricRecorder8ClearEpsEvE4$_11NS_9allocatorIS5_EEFvPN9grpc_core17BackendMetricDataEEED0Ev', symObjAddr: 0x3BA8, symBinAddr: 0x9910, symSize: 0x4 }
  - { offsetInCU: 0x3699D, offset: 0x805E2, size: 0x8, addend: 0x0, symName: '__ZNKSt3__110__function6__funcIZN4grpc12experimental20ServerMetricRecorder8ClearEpsEvE4$_11NS_9allocatorIS5_EEFvPN9grpc_core17BackendMetricDataEEE7__cloneEv', symObjAddr: 0x3BAC, symBinAddr: 0x9914, symSize: 0x24 }
  - { offsetInCU: 0x36AE3, offset: 0x80728, size: 0x8, addend: 0x0, symName: '__ZNKSt3__110__function6__funcIZN4grpc12experimental20ServerMetricRecorder8ClearEpsEvE4$_11NS_9allocatorIS5_EEFvPN9grpc_core17BackendMetricDataEEE7__cloneEPNS0_6__baseISB_EE', symObjAddr: 0x3BD0, symBinAddr: 0x9938, symSize: 0x10 }
  - { offsetInCU: 0x36B1A, offset: 0x8075F, size: 0x8, addend: 0x0, symName: '__ZNKSt3__110__function6__funcIZN4grpc12experimental20ServerMetricRecorder8ClearEpsEvE4$_11NS_9allocatorIS5_EEFvPN9grpc_core17BackendMetricDataEEE7__cloneEPNS0_6__baseISB_EE', symObjAddr: 0x3BD0, symBinAddr: 0x9938, symSize: 0x10 }
  - { offsetInCU: 0x36B36, offset: 0x8077B, size: 0x8, addend: 0x0, symName: '__ZNKSt3__110__function6__funcIZN4grpc12experimental20ServerMetricRecorder8ClearEpsEvE4$_11NS_9allocatorIS5_EEFvPN9grpc_core17BackendMetricDataEEE7__cloneEPNS0_6__baseISB_EE', symObjAddr: 0x3BD0, symBinAddr: 0x9938, symSize: 0x10 }
  - { offsetInCU: 0x36B51, offset: 0x80796, size: 0x8, addend: 0x0, symName: '__ZNSt3__110__function6__funcIZN4grpc12experimental20ServerMetricRecorder8ClearEpsEvE4$_11NS_9allocatorIS5_EEFvPN9grpc_core17BackendMetricDataEEE7destroyEv', symObjAddr: 0x3BE0, symBinAddr: 0x9948, symSize: 0x4 }
  - { offsetInCU: 0x36BA2, offset: 0x807E7, size: 0x8, addend: 0x0, symName: '__ZNSt3__110__function6__funcIZN4grpc12experimental20ServerMetricRecorder8ClearEpsEvE4$_11NS_9allocatorIS5_EEFvPN9grpc_core17BackendMetricDataEEE18destroy_deallocateEv', symObjAddr: 0x3BE4, symBinAddr: 0x994C, symSize: 0x4 }
  - { offsetInCU: 0x36BD9, offset: 0x8081E, size: 0x8, addend: 0x0, symName: '__ZNSt3__110__function6__funcIZN4grpc12experimental20ServerMetricRecorder8ClearEpsEvE4$_11NS_9allocatorIS5_EEFvPN9grpc_core17BackendMetricDataEEE18destroy_deallocateEv', symObjAddr: 0x3BE4, symBinAddr: 0x994C, symSize: 0x4 }
  - { offsetInCU: 0x36BFB, offset: 0x80840, size: 0x8, addend: 0x0, symName: '__ZNSt3__110__function6__funcIZN4grpc12experimental20ServerMetricRecorder8ClearEpsEvE4$_11NS_9allocatorIS5_EEFvPN9grpc_core17BackendMetricDataEEE18destroy_deallocateEv', symObjAddr: 0x3BE4, symBinAddr: 0x994C, symSize: 0x4 }
  - { offsetInCU: 0x36C26, offset: 0x8086B, size: 0x8, addend: 0x0, symName: '__ZNSt3__110__function6__funcIZN4grpc12experimental20ServerMetricRecorder8ClearEpsEvE4$_11NS_9allocatorIS5_EEFvPN9grpc_core17BackendMetricDataEEE18destroy_deallocateEv', symObjAddr: 0x3BE4, symBinAddr: 0x994C, symSize: 0x4 }
  - { offsetInCU: 0x36C4C, offset: 0x80891, size: 0x8, addend: 0x0, symName: '__ZNSt3__110__function6__funcIZN4grpc12experimental20ServerMetricRecorder8ClearEpsEvE4$_11NS_9allocatorIS5_EEFvPN9grpc_core17BackendMetricDataEEE18destroy_deallocateEv', symObjAddr: 0x3BE4, symBinAddr: 0x994C, symSize: 0x4 }
  - { offsetInCU: 0x36CF0, offset: 0x80935, size: 0x8, addend: 0x0, symName: '__ZNSt3__110__function6__funcIZN4grpc12experimental20ServerMetricRecorder8ClearEpsEvE4$_11NS_9allocatorIS5_EEFvPN9grpc_core17BackendMetricDataEEEclEOSA_', symObjAddr: 0x3BE8, symBinAddr: 0x9950, symSize: 0x10 }
  - { offsetInCU: 0x36D27, offset: 0x8096C, size: 0x8, addend: 0x0, symName: '__ZNSt3__110__function6__funcIZN4grpc12experimental20ServerMetricRecorder8ClearEpsEvE4$_11NS_9allocatorIS5_EEFvPN9grpc_core17BackendMetricDataEEEclEOSA_', symObjAddr: 0x3BE8, symBinAddr: 0x9950, symSize: 0x10 }
  - { offsetInCU: 0x36D43, offset: 0x80988, size: 0x8, addend: 0x0, symName: '__ZNSt3__110__function6__funcIZN4grpc12experimental20ServerMetricRecorder8ClearEpsEvE4$_11NS_9allocatorIS5_EEFvPN9grpc_core17BackendMetricDataEEEclEOSA_', symObjAddr: 0x3BE8, symBinAddr: 0x9950, symSize: 0x10 }
  - { offsetInCU: 0x36D5E, offset: 0x809A3, size: 0x8, addend: 0x0, symName: '__ZNSt3__110__function6__funcIZN4grpc12experimental20ServerMetricRecorder8ClearEpsEvE4$_11NS_9allocatorIS5_EEFvPN9grpc_core17BackendMetricDataEEEclEOSA_', symObjAddr: 0x3BE8, symBinAddr: 0x9950, symSize: 0x10 }
  - { offsetInCU: 0x36D97, offset: 0x809DC, size: 0x8, addend: 0x0, symName: '__ZNKSt3__110__function6__funcIZN4grpc12experimental20ServerMetricRecorder8ClearEpsEvE4$_11NS_9allocatorIS5_EEFvPN9grpc_core17BackendMetricDataEEE6targetERKSt9type_info', symObjAddr: 0x3BF8, symBinAddr: 0x9960, symSize: 0x3C }
  - { offsetInCU: 0x36DE7, offset: 0x80A2C, size: 0x8, addend: 0x0, symName: '__ZNKSt3__110__function6__funcIZN4grpc12experimental20ServerMetricRecorder8ClearEpsEvE4$_11NS_9allocatorIS5_EEFvPN9grpc_core17BackendMetricDataEEE11target_typeEv', symObjAddr: 0x3C34, symBinAddr: 0x999C, symSize: 0xC }
  - { offsetInCU: 0x36E0C, offset: 0x80A51, size: 0x8, addend: 0x0, symName: '__ZNSt3__110__function6__funcIZN4grpc12experimental20ServerMetricRecorder21ClearNamedUtilizationENS2_10string_refEE4$_12NS_9allocatorIS6_EEFvPN9grpc_core17BackendMetricDataEEED1Ev', symObjAddr: 0x3C40, symBinAddr: 0x99A8, symSize: 0x4 }
  - { offsetInCU: 0x36E38, offset: 0x80A7D, size: 0x8, addend: 0x0, symName: '__ZNSt3__110__function6__funcIZN4grpc12experimental20ServerMetricRecorder21ClearNamedUtilizationENS2_10string_refEE4$_12NS_9allocatorIS6_EEFvPN9grpc_core17BackendMetricDataEEED0Ev', symObjAddr: 0x3C44, symBinAddr: 0x99AC, symSize: 0x4 }
  - { offsetInCU: 0x37058, offset: 0x80C9D, size: 0x8, addend: 0x0, symName: '__ZNKSt3__110__function6__funcIZN4grpc12experimental20ServerMetricRecorder21ClearNamedUtilizationENS2_10string_refEE4$_12NS_9allocatorIS6_EEFvPN9grpc_core17BackendMetricDataEEE7__cloneEv', symObjAddr: 0x3C48, symBinAddr: 0x99B0, symSize: 0x38 }
  - { offsetInCU: 0x37385, offset: 0x80FCA, size: 0x8, addend: 0x0, symName: '__ZNKSt3__110__function6__funcIZN4grpc12experimental20ServerMetricRecorder21ClearNamedUtilizationENS2_10string_refEE4$_12NS_9allocatorIS6_EEFvPN9grpc_core17BackendMetricDataEEE7__cloneEPNS0_6__baseISC_EE', symObjAddr: 0x3C80, symBinAddr: 0x99E8, symSize: 0x18 }
  - { offsetInCU: 0x373BE, offset: 0x81003, size: 0x8, addend: 0x0, symName: '__ZNKSt3__110__function6__funcIZN4grpc12experimental20ServerMetricRecorder21ClearNamedUtilizationENS2_10string_refEE4$_12NS_9allocatorIS6_EEFvPN9grpc_core17BackendMetricDataEEE7__cloneEPNS0_6__baseISC_EE', symObjAddr: 0x3C80, symBinAddr: 0x99E8, symSize: 0x18 }
  - { offsetInCU: 0x373EC, offset: 0x81031, size: 0x8, addend: 0x0, symName: '__ZNKSt3__110__function6__funcIZN4grpc12experimental20ServerMetricRecorder21ClearNamedUtilizationENS2_10string_refEE4$_12NS_9allocatorIS6_EEFvPN9grpc_core17BackendMetricDataEEE7__cloneEPNS0_6__baseISC_EE', symObjAddr: 0x3C80, symBinAddr: 0x99E8, symSize: 0x18 }
  - { offsetInCU: 0x374E8, offset: 0x8112D, size: 0x8, addend: 0x0, symName: '__ZNSt3__110__function6__funcIZN4grpc12experimental20ServerMetricRecorder21ClearNamedUtilizationENS2_10string_refEE4$_12NS_9allocatorIS6_EEFvPN9grpc_core17BackendMetricDataEEE7destroyEv', symObjAddr: 0x3C98, symBinAddr: 0x9A00, symSize: 0x4 }
  - { offsetInCU: 0x37539, offset: 0x8117E, size: 0x8, addend: 0x0, symName: '__ZNSt3__110__function6__funcIZN4grpc12experimental20ServerMetricRecorder21ClearNamedUtilizationENS2_10string_refEE4$_12NS_9allocatorIS6_EEFvPN9grpc_core17BackendMetricDataEEE18destroy_deallocateEv', symObjAddr: 0x3C9C, symBinAddr: 0x9A04, symSize: 0x4 }
  - { offsetInCU: 0x37570, offset: 0x811B5, size: 0x8, addend: 0x0, symName: '__ZNSt3__110__function6__funcIZN4grpc12experimental20ServerMetricRecorder21ClearNamedUtilizationENS2_10string_refEE4$_12NS_9allocatorIS6_EEFvPN9grpc_core17BackendMetricDataEEE18destroy_deallocateEv', symObjAddr: 0x3C9C, symBinAddr: 0x9A04, symSize: 0x4 }
  - { offsetInCU: 0x37592, offset: 0x811D7, size: 0x8, addend: 0x0, symName: '__ZNSt3__110__function6__funcIZN4grpc12experimental20ServerMetricRecorder21ClearNamedUtilizationENS2_10string_refEE4$_12NS_9allocatorIS6_EEFvPN9grpc_core17BackendMetricDataEEE18destroy_deallocateEv', symObjAddr: 0x3C9C, symBinAddr: 0x9A04, symSize: 0x4 }
  - { offsetInCU: 0x375BD, offset: 0x81202, size: 0x8, addend: 0x0, symName: '__ZNSt3__110__function6__funcIZN4grpc12experimental20ServerMetricRecorder21ClearNamedUtilizationENS2_10string_refEE4$_12NS_9allocatorIS6_EEFvPN9grpc_core17BackendMetricDataEEE18destroy_deallocateEv', symObjAddr: 0x3C9C, symBinAddr: 0x9A04, symSize: 0x4 }
  - { offsetInCU: 0x375E3, offset: 0x81228, size: 0x8, addend: 0x0, symName: '__ZNSt3__110__function6__funcIZN4grpc12experimental20ServerMetricRecorder21ClearNamedUtilizationENS2_10string_refEE4$_12NS_9allocatorIS6_EEFvPN9grpc_core17BackendMetricDataEEE18destroy_deallocateEv', symObjAddr: 0x3C9C, symBinAddr: 0x9A04, symSize: 0x4 }
  - { offsetInCU: 0x376A9, offset: 0x812EE, size: 0x8, addend: 0x0, symName: '__ZNSt3__110__function6__funcIZN4grpc12experimental20ServerMetricRecorder21ClearNamedUtilizationENS2_10string_refEE4$_12NS_9allocatorIS6_EEFvPN9grpc_core17BackendMetricDataEEEclEOSB_', symObjAddr: 0x3CA0, symBinAddr: 0x9A08, symSize: 0x3C }
  - { offsetInCU: 0x3783B, offset: 0x81480, size: 0x8, addend: 0x0, symName: '__ZNKSt3__110__function6__funcIZN4grpc12experimental20ServerMetricRecorder21ClearNamedUtilizationENS2_10string_refEE4$_12NS_9allocatorIS6_EEFvPN9grpc_core17BackendMetricDataEEE6targetERKSt9type_info', symObjAddr: 0x3CDC, symBinAddr: 0x9A44, symSize: 0x3C }
  - { offsetInCU: 0x37846, offset: 0x8148B, size: 0x8, addend: 0x0, symName: __ZNSt3__16__treeINS_12__value_typeIN4absl12lts_2024011611string_viewEdEENS_19__map_value_compareIS4_S5_NS_4lessIS4_EELb1EEENS_9allocatorIS5_EEE14__erase_uniqueIS4_EEmRKT_, symObjAddr: 0x3D24, symBinAddr: 0x9A8C, symSize: 0x50 }
  - { offsetInCU: 0x379C1, offset: 0x81606, size: 0x8, addend: 0x0, symName: '__ZNSt3__110__function6__funcIZN4grpc12experimental20ServerMetricRecorder21ClearNamedUtilizationENS2_10string_refEE4$_12NS_9allocatorIS6_EEFvPN9grpc_core17BackendMetricDataEEEclEOSB_.cold.1', symObjAddr: 0x4308, symBinAddr: 0x31754, symSize: 0x24 }
  - { offsetInCU: 0x37A86, offset: 0x816CB, size: 0x8, addend: 0x0, symName: '__ZNKSt3__110__function6__funcIZN4grpc12experimental20ServerMetricRecorder21ClearNamedUtilizationENS2_10string_refEE4$_12NS_9allocatorIS6_EEFvPN9grpc_core17BackendMetricDataEEE6targetERKSt9type_info', symObjAddr: 0x3CDC, symBinAddr: 0x9A44, symSize: 0x3C }
  - { offsetInCU: 0x37AD6, offset: 0x8171B, size: 0x8, addend: 0x0, symName: '__ZNKSt3__110__function6__funcIZN4grpc12experimental20ServerMetricRecorder21ClearNamedUtilizationENS2_10string_refEE4$_12NS_9allocatorIS6_EEFvPN9grpc_core17BackendMetricDataEEE11target_typeEv', symObjAddr: 0x3D18, symBinAddr: 0x9A80, symSize: 0xC }
  - { offsetInCU: 0x37B46, offset: 0x8178B, size: 0x8, addend: 0x0, symName: __ZNSt3__16__treeINS_12__value_typeIN4absl12lts_2024011611string_viewEdEENS_19__map_value_compareIS4_S5_NS_4lessIS4_EELb1EEENS_9allocatorIS5_EEE4findIS4_EENS_15__tree_iteratorIS5_PNS_11__tree_nodeIS5_PvEElEERKT_, symObjAddr: 0x3D74, symBinAddr: 0x9ADC, symSize: 0x68 }
  - { offsetInCU: 0x37C5C, offset: 0x818A1, size: 0x8, addend: 0x0, symName: __ZNSt3__16__treeINS_12__value_typeIN4absl12lts_2024011611string_viewEdEENS_19__map_value_compareIS4_S5_NS_4lessIS4_EELb1EEENS_9allocatorIS5_EEE21__remove_node_pointerEPNS_11__tree_nodeIS5_PvEE, symObjAddr: 0x3E44, symBinAddr: 0x9BAC, symSize: 0x70 }
  - { offsetInCU: 0x37D21, offset: 0x81966, size: 0x8, addend: 0x0, symName: __ZNSt3__16__treeINS_12__value_typeIN4absl12lts_2024011611string_viewEdEENS_19__map_value_compareIS4_S5_NS_4lessIS4_EELb1EEENS_9allocatorIS5_EEE13__lower_boundIS4_EENS_15__tree_iteratorIS5_PNS_11__tree_nodeIS5_PvEElEERKT_SI_PNS_15__tree_end_nodeIPNS_16__tree_node_baseISG_EEEE, symObjAddr: 0x3DDC, symBinAddr: 0x9B44, symSize: 0x68 }
  - { offsetInCU: 0x38062, offset: 0x81CA7, size: 0x8, addend: 0x0, symName: _OUTLINED_FUNCTION_0, symObjAddr: 0x432C, symBinAddr: 0xA028, symSize: 0x8 }
  - { offsetInCU: 0x3CB5, offset: 0x8607B, size: 0x8, addend: 0x0, symName: __ZNSt3__119__allocate_at_leastB8ue170006INS_9allocatorIN4grpc5SliceEEEEENS_19__allocation_resultINS_16allocator_traitsIT_E7pointerEEERS7_m, symObjAddr: 0xA20, symBinAddr: 0xA9F0, symSize: 0x34 }
  - { offsetInCU: 0x3D56, offset: 0x8611C, size: 0x8, addend: 0x0, symName: __ZNSt3__114__split_bufferIN4grpc5SliceERNS_9allocatorIS2_EEED2Ev, symObjAddr: 0xA54, symBinAddr: 0xAA24, symSize: 0x4C }
  - { offsetInCU: 0x4251, offset: 0x86617, size: 0x8, addend: 0x0, symName: __ZSt28__throw_bad_array_new_lengthB8ue170006v, symObjAddr: 0x7D4, symBinAddr: 0xA7B0, symSize: 0x28 }
  - { offsetInCU: 0x44DD, offset: 0x868A3, size: 0x8, addend: 0x0, symName: __ZNSt3__16vectorIN4grpc5SliceENS_9allocatorIS2_EEE26__swap_out_circular_bufferERNS_14__split_bufferIS2_RS4_EE, symObjAddr: 0x988, symBinAddr: 0xA958, symSize: 0x84 }
  - { offsetInCU: 0x6840, offset: 0x88C06, size: 0x8, addend: 0x0, symName: __ZNK4grpc10ByteBuffer14TrySingleSliceEPNS_5SliceE, symObjAddr: 0x0, symBinAddr: 0xA064, symSize: 0x1EC }
  - { offsetInCU: 0x6D9E, offset: 0x89164, size: 0x8, addend: 0x0, symName: __ZN4grpc5SliceD2Ev, symObjAddr: 0x808, symBinAddr: 0xA7D8, symSize: 0x68 }
  - { offsetInCU: 0x6DDF, offset: 0x891A5, size: 0x8, addend: 0x0, symName: __ZNSt3__112basic_stringIcNS_11char_traitsIcEENS_9allocatorIcEEEC2B8ue170006ILi0EEEPKc, symObjAddr: 0x870, symBinAddr: 0xA840, symSize: 0xA0 }
  - { offsetInCU: 0x7148, offset: 0x8950E, size: 0x8, addend: 0x0, symName: __ZN4grpc5SliceC2EOS0_, symObjAddr: 0x910, symBinAddr: 0xA8E0, symSize: 0x78 }
  - { offsetInCU: 0x7162, offset: 0x89528, size: 0x8, addend: 0x0, symName: __ZNSt3__112basic_stringIcNS_11char_traitsIcEENS_9allocatorIcEEE25__init_copy_ctor_externalEPKcm, symObjAddr: 0x6D0, symBinAddr: 0xA734, symSize: 0x7C }
  - { offsetInCU: 0x74B8, offset: 0x8987E, size: 0x8, addend: 0x0, symName: __ZNK4grpc10ByteBuffer17DumpToSingleSliceEPNS_5SliceE, symObjAddr: 0x1EC, symBinAddr: 0xA250, symSize: 0x1D8 }
  - { offsetInCU: 0x7B3F, offset: 0x89F05, size: 0x8, addend: 0x0, symName: __ZNK4grpc10ByteBuffer4DumpEPNSt3__16vectorINS_5SliceENS1_9allocatorIS3_EEEE, symObjAddr: 0x3C4, symBinAddr: 0xA428, symSize: 0x214 }
  - { offsetInCU: 0x817E, offset: 0x8A544, size: 0x8, addend: 0x0, symName: __ZNSt3__16vectorIN4grpc5SliceENS_9allocatorIS2_EEE9push_backB8ue170006EOS2_, symObjAddr: 0x5D8, symBinAddr: 0xA63C, symSize: 0xF8 }
  - { offsetInCU: 0x88B3, offset: 0x8AC79, size: 0x8, addend: 0x0, symName: __ZN4grpc5SliceC2EOS0_, symObjAddr: 0x910, symBinAddr: 0xA8E0, symSize: 0x78 }
  - { offsetInCU: 0x8904, offset: 0x8ACCA, size: 0x8, addend: 0x0, symName: __ZNSt3__114__split_bufferIN4grpc5SliceERNS_9allocatorIS2_EEED2Ev, symObjAddr: 0xA54, symBinAddr: 0xAA24, symSize: 0x4C }
  - { offsetInCU: 0x8AA6, offset: 0x8AE6C, size: 0x8, addend: 0x0, symName: __ZNKSt3__16vectorIN4grpc5SliceENS_9allocatorIS2_EEE20__throw_length_errorB8ue170006Ev, symObjAddr: 0xA0C, symBinAddr: 0xA9DC, symSize: 0x14 }
  - { offsetInCU: 0x8ACF, offset: 0x8AE95, size: 0x8, addend: 0x0, symName: __ZNSt3__119__allocate_at_leastB8ue170006INS_9allocatorIN4grpc5SliceEEEEENS_19__allocation_resultINS_16allocator_traitsIT_E7pointerEEERS7_m, symObjAddr: 0xA20, symBinAddr: 0xA9F0, symSize: 0x34 }
  - { offsetInCU: 0x16C95, offset: 0xA1EB5, size: 0x8, addend: 0x0, symName: __ZN4grpc15CallCredentialsC2EP21grpc_call_credentials, symObjAddr: 0x0, symBinAddr: 0xAA70, symSize: 0xC4 }
  - { offsetInCU: 0x16E0C, offset: 0xA202C, size: 0x8, addend: 0x0, symName: __ZN4grpc15CallCredentialsC1EP21grpc_call_credentials, symObjAddr: 0x104, symBinAddr: 0xAB34, symSize: 0x4 }
  - { offsetInCU: 0x16E48, offset: 0xA2068, size: 0x8, addend: 0x0, symName: __ZN4grpc15CallCredentialsC1EP21grpc_call_credentials, symObjAddr: 0x104, symBinAddr: 0xAB34, symSize: 0x4 }
  - { offsetInCU: 0x16E64, offset: 0xA2084, size: 0x8, addend: 0x0, symName: __ZN4grpc15CallCredentialsD2Ev, symObjAddr: 0x108, symBinAddr: 0xAB38, symSize: 0x38 }
  - { offsetInCU: 0x16EC2, offset: 0xA20E2, size: 0x8, addend: 0x0, symName: __ZN4grpc15CallCredentialsD1Ev, symObjAddr: 0x14C, symBinAddr: 0xAB70, symSize: 0x4 }
  - { offsetInCU: 0x16EE5, offset: 0xA2105, size: 0x8, addend: 0x0, symName: __ZN4grpc15CallCredentialsD1Ev, symObjAddr: 0x14C, symBinAddr: 0xAB70, symSize: 0x4 }
  - { offsetInCU: 0x16F1A, offset: 0xA213A, size: 0x8, addend: 0x0, symName: __ZN4grpc15CallCredentialsD0Ev, symObjAddr: 0x150, symBinAddr: 0xAB74, symSize: 0x14 }
  - { offsetInCU: 0x17160, offset: 0xA2380, size: 0x8, addend: 0x0, symName: __ZN4grpc15CallCredentials11DebugStringEv, symObjAddr: 0x164, symBinAddr: 0xAB88, symSize: 0xE4 }
  - { offsetInCU: 0x175BD, offset: 0xA27DD, size: 0x8, addend: 0x0, symName: __ZN4grpc15CallCredentials11ApplyToCallEP9grpc_call, symObjAddr: 0x248, symBinAddr: 0xAC6C, symSize: 0x28 }
  - { offsetInCU: 0x26, offset: 0xA2FC5, size: 0x8, addend: 0x0, symName: __ZN4grpc25MakeChannelArgumentOptionERKNSt3__112basic_stringIcNS0_11char_traitsIcEENS0_9allocatorIcEEEES8_, symObjAddr: 0x0, symBinAddr: 0xACC8, symSize: 0xD0 }
  - { offsetInCU: 0x46A1, offset: 0xA7640, size: 0x8, addend: 0x0, symName: __ZN4grpc25MakeChannelArgumentOptionERKNSt3__112basic_stringIcNS0_11char_traitsIcEENS0_9allocatorIcEEEES8_, symObjAddr: 0x0, symBinAddr: 0xACC8, symSize: 0xD0 }
  - { offsetInCU: 0x4A86, offset: 0xA7A25, size: 0x8, addend: 0x0, symName: __ZN4grpc25MakeChannelArgumentOptionERKNSt3__112basic_stringIcNS0_11char_traitsIcEENS0_9allocatorIcEEEEi, symObjAddr: 0xD0, symBinAddr: 0xAD98, symSize: 0x84 }
  - { offsetInCU: 0x4CC7, offset: 0xA7C66, size: 0x8, addend: 0x0, symName: __ZN4grpc25MakeChannelArgumentOptionERKNSt3__112basic_stringIcNS0_11char_traitsIcEENS0_9allocatorIcEEEEPv, symObjAddr: 0x154, symBinAddr: 0xAE1C, symSize: 0x84 }
  - { offsetInCU: 0x75F9, offset: 0xAA598, size: 0x8, addend: 0x0, symName: __ZZN4grpc25MakeChannelArgumentOptionERKNSt3__112basic_stringIcNS0_11char_traitsIcEENS0_9allocatorIcEEEES8_EN12StringOptionD1Ev, symObjAddr: 0x1D8, symBinAddr: 0xAEA0, symSize: 0x40 }
  - { offsetInCU: 0x7899, offset: 0xAA838, size: 0x8, addend: 0x0, symName: __ZZN4grpc25MakeChannelArgumentOptionERKNSt3__112basic_stringIcNS0_11char_traitsIcEENS0_9allocatorIcEEEES8_EN12StringOptionD0Ev, symObjAddr: 0x218, symBinAddr: 0xAEE0, symSize: 0x40 }
  - { offsetInCU: 0x7B44, offset: 0xAAAE3, size: 0x8, addend: 0x0, symName: __ZZN4grpc25MakeChannelArgumentOptionERKNSt3__112basic_stringIcNS0_11char_traitsIcEENS0_9allocatorIcEEEES8_EN12StringOption15UpdateArgumentsEPNS_16ChannelArgumentsE, symObjAddr: 0x258, symBinAddr: 0xAF20, symSize: 0x14 }
  - { offsetInCU: 0x7B7F, offset: 0xAAB1E, size: 0x8, addend: 0x0, symName: __ZZN4grpc25MakeChannelArgumentOptionERKNSt3__112basic_stringIcNS0_11char_traitsIcEENS0_9allocatorIcEEEES8_EN12StringOption13UpdatePluginsEPNS0_6vectorINS0_10unique_ptrINS_19ServerBuilderPluginENS0_14default_deleteISC_EEEENS4_ISF_EEEE, symObjAddr: 0x26C, symBinAddr: 0xAF34, symSize: 0x4 }
  - { offsetInCU: 0x7D7D, offset: 0xAAD1C, size: 0x8, addend: 0x0, symName: __ZZN4grpc25MakeChannelArgumentOptionERKNSt3__112basic_stringIcNS0_11char_traitsIcEENS0_9allocatorIcEEEEiEN9IntOptionD1Ev, symObjAddr: 0x374, symBinAddr: 0xAF38, symSize: 0x30 }
  - { offsetInCU: 0x7EFA, offset: 0xAAE99, size: 0x8, addend: 0x0, symName: __ZZN4grpc25MakeChannelArgumentOptionERKNSt3__112basic_stringIcNS0_11char_traitsIcEENS0_9allocatorIcEEEEiEN9IntOptionD0Ev, symObjAddr: 0x3A4, symBinAddr: 0xAF68, symSize: 0x30 }
  - { offsetInCU: 0x8082, offset: 0xAB021, size: 0x8, addend: 0x0, symName: __ZZN4grpc25MakeChannelArgumentOptionERKNSt3__112basic_stringIcNS0_11char_traitsIcEENS0_9allocatorIcEEEEiEN9IntOption15UpdateArgumentsEPNS_16ChannelArgumentsE, symObjAddr: 0x3D4, symBinAddr: 0xAF98, symSize: 0x14 }
  - { offsetInCU: 0x80BD, offset: 0xAB05C, size: 0x8, addend: 0x0, symName: __ZZN4grpc25MakeChannelArgumentOptionERKNSt3__112basic_stringIcNS0_11char_traitsIcEENS0_9allocatorIcEEEEiEN9IntOption13UpdatePluginsEPNS0_6vectorINS0_10unique_ptrINS_19ServerBuilderPluginENS0_14default_deleteISC_EEEENS4_ISF_EEEE, symObjAddr: 0x3E8, symBinAddr: 0xAFAC, symSize: 0x4 }
  - { offsetInCU: 0x8108, offset: 0xAB0A7, size: 0x8, addend: 0x0, symName: __ZZN4grpc25MakeChannelArgumentOptionERKNSt3__112basic_stringIcNS0_11char_traitsIcEENS0_9allocatorIcEEEEPvEN13PointerOptionD1Ev, symObjAddr: 0x3EC, symBinAddr: 0xAFB0, symSize: 0x30 }
  - { offsetInCU: 0x8285, offset: 0xAB224, size: 0x8, addend: 0x0, symName: __ZZN4grpc25MakeChannelArgumentOptionERKNSt3__112basic_stringIcNS0_11char_traitsIcEENS0_9allocatorIcEEEEPvEN13PointerOptionD0Ev, symObjAddr: 0x41C, symBinAddr: 0xAFE0, symSize: 0x30 }
  - { offsetInCU: 0x840D, offset: 0xAB3AC, size: 0x8, addend: 0x0, symName: __ZZN4grpc25MakeChannelArgumentOptionERKNSt3__112basic_stringIcNS0_11char_traitsIcEENS0_9allocatorIcEEEEPvEN13PointerOption15UpdateArgumentsEPNS_16ChannelArgumentsE, symObjAddr: 0x44C, symBinAddr: 0xB010, symSize: 0x14 }
  - { offsetInCU: 0x8448, offset: 0xAB3E7, size: 0x8, addend: 0x0, symName: __ZZN4grpc25MakeChannelArgumentOptionERKNSt3__112basic_stringIcNS0_11char_traitsIcEENS0_9allocatorIcEEEEPvEN13PointerOption13UpdatePluginsEPNS0_6vectorINS0_10unique_ptrINS_19ServerBuilderPluginENS0_14default_deleteISD_EEEENS4_ISG_EEEE, symObjAddr: 0x460, symBinAddr: 0xB024, symSize: 0x4 }
  - { offsetInCU: 0x5AB1, offset: 0xB0EC6, size: 0x8, addend: 0x0, symName: __ZNSt3__119__allocate_at_leastB8ue170006INS_9allocatorI8grpc_argEEEENS_19__allocation_resultINS_16allocator_traitsIT_E7pointerEEERS6_m, symObjAddr: 0x178C, symBinAddr: 0xC554, symSize: 0x34 }
  - { offsetInCU: 0x5B52, offset: 0xB0F67, size: 0x8, addend: 0x0, symName: __ZNSt3__110__list_impINS_12basic_stringIcNS_11char_traitsIcEENS_9allocatorIcEEEENS4_IS6_EEE4swapERS8_, symObjAddr: 0x17C0, symBinAddr: 0xC588, symSize: 0x74 }
  - { offsetInCU: 0x60E4, offset: 0xB14F9, size: 0x8, addend: 0x0, symName: __ZNSt3__120__throw_out_of_rangeB8ue170006EPKc, symObjAddr: 0x1848, symBinAddr: 0xC610, symSize: 0x50 }
  - { offsetInCU: 0x6859, offset: 0xB1C6E, size: 0x8, addend: 0x0, symName: __ZN4grpc16ChannelArguments10SetPointerERKNSt3__112basic_stringIcNS1_11char_traitsIcEENS1_9allocatorIcEEEEPv, symObjAddr: 0x126C, symBinAddr: 0xC284, symSize: 0xC }
  - { offsetInCU: 0x687F, offset: 0xB1C94, size: 0x8, addend: 0x0, symName: __ZZN4grpc16ChannelArguments10SetPointerERKNSt3__112basic_stringIcNS1_11char_traitsIcEENS1_9allocatorIcEEEEPvE6vtable, symObjAddr: 0x1D98, symBinAddr: 0x456F8, symSize: 0x0 }
  - { offsetInCU: 0x8EC5, offset: 0xB42DA, size: 0x8, addend: 0x0, symName: __ZN4grpc16ChannelArgumentsC2Ev, symObjAddr: 0x0, symBinAddr: 0xB028, symSize: 0x130 }
  - { offsetInCU: 0x9B90, offset: 0xB4FA5, size: 0x8, addend: 0x0, symName: __ZN4grpc16ChannelArguments9SetStringERKNSt3__112basic_stringIcNS1_11char_traitsIcEENS1_9allocatorIcEEEES9_, symObjAddr: 0x130, symBinAddr: 0xB158, symSize: 0x130 }
  - { offsetInCU: 0xA186, offset: 0xB559B, size: 0x8, addend: 0x0, symName: __ZN4grpc16ChannelArgumentsC1Ev, symObjAddr: 0x260, symBinAddr: 0xB288, symSize: 0x4 }
  - { offsetInCU: 0xA19A, offset: 0xB55AF, size: 0x8, addend: 0x0, symName: __ZNSt3__110__list_impINS_12basic_stringIcNS_11char_traitsIcEENS_9allocatorIcEEEENS4_IS6_EEE5clearEv, symObjAddr: 0x1448, symBinAddr: 0xC460, symSize: 0x78 }
  - { offsetInCU: 0xA877, offset: 0xB5C8C, size: 0x8, addend: 0x0, symName: __ZNSt3__14listINS_12basic_stringIcNS_11char_traitsIcEENS_9allocatorIcEEEENS4_IS6_EEE9push_backERKS6_, symObjAddr: 0x11E0, symBinAddr: 0xC1F8, symSize: 0x8C }
  - { offsetInCU: 0xAB8D, offset: 0xB5FA2, size: 0x8, addend: 0x0, symName: __ZNKSt3__16vectorI8grpc_argNS_9allocatorIS1_EEE20__throw_length_errorB8ue170006Ev, symObjAddr: 0x1778, symBinAddr: 0xC540, symSize: 0x14 }
  - { offsetInCU: 0xABB6, offset: 0xB5FCB, size: 0x8, addend: 0x0, symName: __ZNSt3__119__allocate_at_leastB8ue170006INS_9allocatorI8grpc_argEEEENS_19__allocation_resultINS_16allocator_traitsIT_E7pointerEEERS6_m, symObjAddr: 0x178C, symBinAddr: 0xC554, symSize: 0x34 }
  - { offsetInCU: 0xABC2, offset: 0xB5FD7, size: 0x8, addend: 0x0, symName: __ZN4grpc16ChannelArgumentsC1Ev, symObjAddr: 0x260, symBinAddr: 0xB288, symSize: 0x4 }
  - { offsetInCU: 0xABF0, offset: 0xB6005, size: 0x8, addend: 0x0, symName: __ZN4grpc16ChannelArgumentsC1Ev, symObjAddr: 0x260, symBinAddr: 0xB288, symSize: 0x4 }
  - { offsetInCU: 0xAD2D, offset: 0xB6142, size: 0x8, addend: 0x0, symName: __ZN4grpc16ChannelArgumentsC2ERKS0_, symObjAddr: 0x264, symBinAddr: 0xB28C, symSize: 0x29C }
  - { offsetInCU: 0xB7EA, offset: 0xB6BFF, size: 0x8, addend: 0x0, symName: __ZNSt3__14listINS_12basic_stringIcNS_11char_traitsIcEENS_9allocatorIcEEEENS4_IS6_EEEC2ERKS8_, symObjAddr: 0x1710, symBinAddr: 0xC4D8, symSize: 0x68 }
  - { offsetInCU: 0xB96C, offset: 0xB6D81, size: 0x8, addend: 0x0, symName: __ZNSt3__16vectorI8grpc_argNS_9allocatorIS1_EEE7reserveEm, symObjAddr: 0x500, symBinAddr: 0xB528, symSize: 0x9C }
  - { offsetInCU: 0xBC7D, offset: 0xB7092, size: 0x8, addend: 0x0, symName: __ZN4grpc16ChannelArgumentsC1ERKS0_, symObjAddr: 0x59C, symBinAddr: 0xB5C4, symSize: 0x4 }
  - { offsetInCU: 0xBCA7, offset: 0xB70BC, size: 0x8, addend: 0x0, symName: __ZN4grpc16ChannelArgumentsC1ERKS0_, symObjAddr: 0x59C, symBinAddr: 0xB5C4, symSize: 0x4 }
  - { offsetInCU: 0xBCE3, offset: 0xB70F8, size: 0x8, addend: 0x0, symName: __ZN4grpc16ChannelArgumentsC1ERKS0_, symObjAddr: 0x59C, symBinAddr: 0xB5C4, symSize: 0x4 }
  - { offsetInCU: 0xBDA2, offset: 0xB71B7, size: 0x8, addend: 0x0, symName: __ZN4grpc16ChannelArgumentsD2Ev, symObjAddr: 0x5A0, symBinAddr: 0xB5C8, symSize: 0x88 }
  - { offsetInCU: 0xC152, offset: 0xB7567, size: 0x8, addend: 0x0, symName: __ZN4grpc16ChannelArgumentsD1Ev, symObjAddr: 0x638, symBinAddr: 0xB650, symSize: 0x4 }
  - { offsetInCU: 0xC180, offset: 0xB7595, size: 0x8, addend: 0x0, symName: __ZN4grpc16ChannelArgumentsD1Ev, symObjAddr: 0x638, symBinAddr: 0xB650, symSize: 0x4 }
  - { offsetInCU: 0xC1DA, offset: 0xB75EF, size: 0x8, addend: 0x0, symName: __ZN4grpc16ChannelArguments4SwapERS0_, symObjAddr: 0x63C, symBinAddr: 0xB654, symSize: 0x3C }
  - { offsetInCU: 0xC215, offset: 0xB762A, size: 0x8, addend: 0x0, symName: __ZN4grpc16ChannelArguments4SwapERS0_, symObjAddr: 0x63C, symBinAddr: 0xB654, symSize: 0x3C }
  - { offsetInCU: 0xC237, offset: 0xB764C, size: 0x8, addend: 0x0, symName: __ZN4grpc16ChannelArguments4SwapERS0_, symObjAddr: 0x63C, symBinAddr: 0xB654, symSize: 0x3C }
  - { offsetInCU: 0xC2F9, offset: 0xB770E, size: 0x8, addend: 0x0, symName: __ZNSt3__110__list_impINS_12basic_stringIcNS_11char_traitsIcEENS_9allocatorIcEEEENS4_IS6_EEE4swapERS8_, symObjAddr: 0x17C0, symBinAddr: 0xC588, symSize: 0x74 }
  - { offsetInCU: 0xC38E, offset: 0xB77A3, size: 0x8, addend: 0x0, symName: __ZN4grpc16ChannelArguments23SetCompressionAlgorithmE26grpc_compression_algorithm, symObjAddr: 0x678, symBinAddr: 0xB690, symSize: 0x74 }
  - { offsetInCU: 0xC66E, offset: 0xB7A83, size: 0x8, addend: 0x0, symName: __ZN4grpc16ChannelArguments6SetIntERKNSt3__112basic_stringIcNS1_11char_traitsIcEENS1_9allocatorIcEEEEi, symObjAddr: 0x6EC, symBinAddr: 0xB704, symSize: 0x11C }
  - { offsetInCU: 0xCB94, offset: 0xB7FA9, size: 0x8, addend: 0x0, symName: __ZN4grpc16ChannelArguments24SetGrpclbFallbackTimeoutEi, symObjAddr: 0x808, symBinAddr: 0xB820, symSize: 0x74 }
  - { offsetInCU: 0xCBA8, offset: 0xB7FBD, size: 0x8, addend: 0x0, symName: __ZN4grpc16ChannelArguments24SetGrpclbFallbackTimeoutEi, symObjAddr: 0x808, symBinAddr: 0xB820, symSize: 0x74 }
  - { offsetInCU: 0xD042, offset: 0xB8457, size: 0x8, addend: 0x0, symName: __ZN4grpc16ChannelArguments16SetSocketMutatorEP19grpc_socket_mutator, symObjAddr: 0x87C, symBinAddr: 0xB894, symSize: 0x330 }
  - { offsetInCU: 0xDE45, offset: 0xB925A, size: 0x8, addend: 0x0, symName: __ZN4grpc16ChannelArguments18SetUserAgentPrefixERKNSt3__112basic_stringIcNS1_11char_traitsIcEENS1_9allocatorIcEEEE, symObjAddr: 0xBAC, symBinAddr: 0xBBC4, symSize: 0x2A8 }
  - { offsetInCU: 0xEB47, offset: 0xB9F5C, size: 0x8, addend: 0x0, symName: __ZNSt3__112basic_stringIcNS_11char_traitsIcEENS_9allocatorIcEEEC2B8ue170006ENS_24__uninitialized_size_tagEmRKS4_, symObjAddr: 0x18BC, symBinAddr: 0xC684, symSize: 0x74 }
  - { offsetInCU: 0xECF2, offset: 0xBA107, size: 0x8, addend: 0x0, symName: __ZN4grpc16ChannelArguments18SetUserAgentPrefixERKNSt3__112basic_stringIcNS1_11char_traitsIcEENS1_9allocatorIcEEEE.cold.1, symObjAddr: 0x19AC, symBinAddr: 0x31778, symSize: 0x28 }
  - { offsetInCU: 0xED25, offset: 0xBA13A, size: 0x8, addend: 0x0, symName: __ZN4grpc16ChannelArguments16SetResourceQuotaERKNS_13ResourceQuotaE, symObjAddr: 0xE54, symBinAddr: 0xBE6C, symSize: 0x80 }
  - { offsetInCU: 0xF03C, offset: 0xBA451, size: 0x8, addend: 0x0, symName: __ZN4grpc16ChannelArguments20SetPointerWithVtableERKNSt3__112basic_stringIcNS1_11char_traitsIcEENS1_9allocatorIcEEEEPvPK23grpc_arg_pointer_vtable, symObjAddr: 0xED4, symBinAddr: 0xBEEC, symSize: 0x13C }
  - { offsetInCU: 0xF586, offset: 0xBA99B, size: 0x8, addend: 0x0, symName: __ZN4grpc16ChannelArguments24SetMaxReceiveMessageSizeEi, symObjAddr: 0x1010, symBinAddr: 0xC028, symSize: 0x74 }
  - { offsetInCU: 0xF59A, offset: 0xBA9AF, size: 0x8, addend: 0x0, symName: __ZN4grpc16ChannelArguments24SetMaxReceiveMessageSizeEi, symObjAddr: 0x1010, symBinAddr: 0xC028, symSize: 0x74 }
  - { offsetInCU: 0xF87A, offset: 0xBAC8F, size: 0x8, addend: 0x0, symName: __ZN4grpc16ChannelArguments21SetMaxSendMessageSizeEi, symObjAddr: 0x1084, symBinAddr: 0xC09C, symSize: 0x74 }
  - { offsetInCU: 0xFB5A, offset: 0xBAF6F, size: 0x8, addend: 0x0, symName: __ZN4grpc16ChannelArguments26SetLoadBalancingPolicyNameERKNSt3__112basic_stringIcNS1_11char_traitsIcEENS1_9allocatorIcEEEE, symObjAddr: 0x10F8, symBinAddr: 0xC110, symSize: 0x74 }
  - { offsetInCU: 0xFE3A, offset: 0xBB24F, size: 0x8, addend: 0x0, symName: __ZN4grpc16ChannelArguments20SetServiceConfigJSONERKNSt3__112basic_stringIcNS1_11char_traitsIcEENS1_9allocatorIcEEEE, symObjAddr: 0x116C, symBinAddr: 0xC184, symSize: 0x74 }
  - { offsetInCU: 0x104CE, offset: 0xBB8E3, size: 0x8, addend: 0x0, symName: __ZN4grpc16ChannelArguments18SetUserAgentPrefixERKNSt3__112basic_stringIcNS1_11char_traitsIcEENS1_9allocatorIcEEEE.cold.1, symObjAddr: 0x19AC, symBinAddr: 0x31778, symSize: 0x28 }
  - { offsetInCU: 0x104E0, offset: 0xBB8F5, size: 0x8, addend: 0x0, symName: __ZN4grpc16ChannelArguments20PointerVtableMembers4CopyEPv, symObjAddr: 0x1278, symBinAddr: 0xC290, symSize: 0x4 }
  - { offsetInCU: 0x10503, offset: 0xBB918, size: 0x8, addend: 0x0, symName: __ZN4grpc16ChannelArguments20PointerVtableMembers7DestroyEPv, symObjAddr: 0x127C, symBinAddr: 0xC294, symSize: 0x4 }
  - { offsetInCU: 0x10522, offset: 0xBB937, size: 0x8, addend: 0x0, symName: __ZN4grpc16ChannelArguments20PointerVtableMembers7CompareEPvS2_, symObjAddr: 0x1280, symBinAddr: 0xC298, symSize: 0x10 }
  - { offsetInCU: 0x10555, offset: 0xBB96A, size: 0x8, addend: 0x0, symName: __ZNK4grpc16ChannelArguments14SetChannelArgsEP17grpc_channel_args, symObjAddr: 0x1290, symBinAddr: 0xC2A8, symSize: 0x1C }
  - { offsetInCU: 0x1058C, offset: 0xBB9A1, size: 0x8, addend: 0x0, symName: __ZNK4grpc16ChannelArguments14SetChannelArgsEP17grpc_channel_args, symObjAddr: 0x1290, symBinAddr: 0xC2A8, symSize: 0x1C }
  - { offsetInCU: 0x105A6, offset: 0xBB9BB, size: 0x8, addend: 0x0, symName: __ZN4grpc16ChannelArguments24SetSslTargetNameOverrideERKNSt3__112basic_stringIcNS1_11char_traitsIcEENS1_9allocatorIcEEEE, symObjAddr: 0x12AC, symBinAddr: 0xC2C4, symSize: 0x74 }
  - { offsetInCU: 0x108D3, offset: 0xBBCE8, size: 0x8, addend: 0x0, symName: __ZNK4grpc16ChannelArguments24GetSslTargetNameOverrideEv, symObjAddr: 0x1320, symBinAddr: 0xC338, symSize: 0x128 }
  - { offsetInCU: 0x10C6D, offset: 0xBC082, size: 0x8, addend: 0x0, symName: __ZNKSt3__112basic_stringIcNS_11char_traitsIcEENS_9allocatorIcEEE20__throw_out_of_rangeB8ue170006Ev, symObjAddr: 0x1834, symBinAddr: 0xC5FC, symSize: 0x14 }
  - { offsetInCU: 0x10C96, offset: 0xBC0AB, size: 0x8, addend: 0x0, symName: __ZNSt3__120__throw_out_of_rangeB8ue170006EPKc, symObjAddr: 0x1848, symBinAddr: 0xC610, symSize: 0x50 }
  - { offsetInCU: 0x1101C, offset: 0xBC431, size: 0x8, addend: 0x0, symName: __ZNSt12out_of_rangeC1B8ue170006EPKc, symObjAddr: 0x1898, symBinAddr: 0xC660, symSize: 0x24 }
  - { offsetInCU: 0xB1B, offset: 0xBCFFD, size: 0x8, addend: 0x0, symName: __ZN4grpc12experimental29ChannelResetConnectionBackoffEPNS_7ChannelE, symObjAddr: 0x34C, symBinAddr: 0xC9F8, symSize: 0x8 }
  - { offsetInCU: 0x1294, offset: 0xBD776, size: 0x8, addend: 0x0, symName: __ZN4grpc12_GLOBAL__N_119GetChannelInfoFieldEP12grpc_channelP17grpc_channel_infoPPPc, symObjAddr: 0x2A0, symBinAddr: 0xC94C, symSize: 0x80 }
  - { offsetInCU: 0xA190, offset: 0xC6672, size: 0x8, addend: 0x0, symName: __ZNSt3__119__allocate_at_leastB8ue170006INS_9allocatorINS_10unique_ptrIN4grpc12experimental11InterceptorENS_14default_deleteIS5_EEEEEEEENS_19__allocation_resultINS_16allocator_traitsIT_E7pointerEEERSC_m, symObjAddr: 0x1054, symBinAddr: 0xD588, symSize: 0x34 }
  - { offsetInCU: 0xA230, offset: 0xC6712, size: 0x8, addend: 0x0, symName: __ZNSt3__114__split_bufferINS_10unique_ptrIN4grpc12experimental11InterceptorENS_14default_deleteIS4_EEEERNS_9allocatorIS7_EEED2Ev, symObjAddr: 0x1088, symBinAddr: 0xD5BC, symSize: 0x60 }
  - { offsetInCU: 0xA7B2, offset: 0xC6C94, size: 0x8, addend: 0x0, symName: __ZNSt3__120__throw_bad_weak_ptrB8ue170006Ev, symObjAddr: 0x1EC8, symBinAddr: 0xD930, symSize: 0x34 }
  - { offsetInCU: 0xD595, offset: 0xC9A77, size: 0x8, addend: 0x0, symName: __ZN4grpc7ChannelC2ERKNSt3__112basic_stringIcNS1_11char_traitsIcEENS1_9allocatorIcEEEEP12grpc_channelNS1_6vectorINS1_10unique_ptrINS_12experimental33ClientInterceptorFactoryInterfaceENS1_14default_deleteISF_EEEENS5_ISI_EEEE, symObjAddr: 0x0, symBinAddr: 0xC6F8, symSize: 0x138 }
  - { offsetInCU: 0xDB8F, offset: 0xCA071, size: 0x8, addend: 0x0, symName: __ZNSt3__16vectorINS_10unique_ptrIN4grpc12experimental33ClientInterceptorFactoryInterfaceENS_14default_deleteIS4_EEEENS_9allocatorIS7_EEE16__destroy_vectorclB8ue170006Ev, symObjAddr: 0x1D9C, symBinAddr: 0xD804, symSize: 0x7C }
  - { offsetInCU: 0xDBB3, offset: 0xCA095, size: 0x8, addend: 0x0, symName: __ZNSt3__16vectorINS_10unique_ptrIN4grpc12experimental33ClientInterceptorFactoryInterfaceENS_14default_deleteIS4_EEEENS_9allocatorIS7_EEE13__vdeallocateEv, symObjAddr: 0x1E18, symBinAddr: 0xD880, symSize: 0x70 }
  - { offsetInCU: 0xDE36, offset: 0xCA318, size: 0x8, addend: 0x0, symName: __ZN4grpc7ChannelC1ERKNSt3__112basic_stringIcNS1_11char_traitsIcEENS1_9allocatorIcEEEEP12grpc_channelNS1_6vectorINS1_10unique_ptrINS_12experimental33ClientInterceptorFactoryInterfaceENS1_14default_deleteISF_EEEENS5_ISI_EEEE, symObjAddr: 0x178, symBinAddr: 0xC830, symSize: 0x4 }
  - { offsetInCU: 0xDE8F, offset: 0xCA371, size: 0x8, addend: 0x0, symName: __ZN4grpc7ChannelC1ERKNSt3__112basic_stringIcNS1_11char_traitsIcEENS1_9allocatorIcEEEEP12grpc_channelNS1_6vectorINS1_10unique_ptrINS_12experimental33ClientInterceptorFactoryInterfaceENS1_14default_deleteISF_EEEENS5_ISI_EEEE, symObjAddr: 0x178, symBinAddr: 0xC830, symSize: 0x4 }
  - { offsetInCU: 0xDFA5, offset: 0xCA487, size: 0x8, addend: 0x0, symName: __ZN4grpc7ChannelD2Ev, symObjAddr: 0x17C, symBinAddr: 0xC834, symSize: 0x98 }
  - { offsetInCU: 0xE2E0, offset: 0xCA7C2, size: 0x8, addend: 0x0, symName: __ZNSt3__16vectorINS_10unique_ptrIN4grpc12experimental33ClientInterceptorFactoryInterfaceENS_14default_deleteIS4_EEEENS_9allocatorIS7_EEE16__destroy_vectorclB8ue170006Ev, symObjAddr: 0x1D9C, symBinAddr: 0xD804, symSize: 0x7C }
  - { offsetInCU: 0xE4EF, offset: 0xCA9D1, size: 0x8, addend: 0x0, symName: __ZN4grpc7ChannelD1Ev, symObjAddr: 0x220, symBinAddr: 0xC8CC, symSize: 0x4 }
  - { offsetInCU: 0xE512, offset: 0xCA9F4, size: 0x8, addend: 0x0, symName: __ZN4grpc7ChannelD1Ev, symObjAddr: 0x220, symBinAddr: 0xC8CC, symSize: 0x4 }
  - { offsetInCU: 0xE547, offset: 0xCAA29, size: 0x8, addend: 0x0, symName: __ZThn8_N4grpc7ChannelD1Ev, symObjAddr: 0x224, symBinAddr: 0xC8D0, symSize: 0x8 }
  - { offsetInCU: 0xE588, offset: 0xCAA6A, size: 0x8, addend: 0x0, symName: __ZThn32_N4grpc7ChannelD1Ev, symObjAddr: 0x22C, symBinAddr: 0xC8D8, symSize: 0x8 }
  - { offsetInCU: 0xE5C9, offset: 0xCAAAB, size: 0x8, addend: 0x0, symName: __ZN4grpc7ChannelD0Ev, symObjAddr: 0x234, symBinAddr: 0xC8E0, symSize: 0x14 }
  - { offsetInCU: 0xE638, offset: 0xCAB1A, size: 0x8, addend: 0x0, symName: __ZThn8_N4grpc7ChannelD0Ev, symObjAddr: 0x248, symBinAddr: 0xC8F4, symSize: 0x18 }
  - { offsetInCU: 0xE695, offset: 0xCAB77, size: 0x8, addend: 0x0, symName: __ZThn32_N4grpc7ChannelD0Ev, symObjAddr: 0x260, symBinAddr: 0xC90C, symSize: 0x18 }
  - { offsetInCU: 0xE6F2, offset: 0xCABD4, size: 0x8, addend: 0x0, symName: __ZNK4grpc7Channel26GetLoadBalancingPolicyNameEv, symObjAddr: 0x278, symBinAddr: 0xC924, symSize: 0x28 }
  - { offsetInCU: 0xEA1D, offset: 0xCAEFF, size: 0x8, addend: 0x0, symName: __ZNK4grpc7Channel20GetServiceConfigJSONEv, symObjAddr: 0x320, symBinAddr: 0xC9CC, symSize: 0x2C }
  - { offsetInCU: 0xED08, offset: 0xCB1EA, size: 0x8, addend: 0x0, symName: __ZN4grpc7Channel18CreateCallInternalERKNS_8internal9RpcMethodEPNS_13ClientContextEPNS_15CompletionQueueEm, symObjAddr: 0x354, symBinAddr: 0xCA00, symSize: 0x294 }
  - { offsetInCU: 0xF5FF, offset: 0xCBAE1, size: 0x8, addend: 0x0, symName: __ZN4grpc13ClientContext19set_client_rpc_infoEPKcS2_NS_8internal9RpcMethod7RpcTypeEPNS_16ChannelInterfaceERKNSt3__16vectorINS8_10unique_ptrINS_12experimental33ClientInterceptorFactoryInterfaceENS8_14default_deleteISC_EEEENS8_9allocatorISF_EEEEm, symObjAddr: 0x5E8, symBinAddr: 0xCC94, symSize: 0xB0 }
  - { offsetInCU: 0xF884, offset: 0xCBD66, size: 0x8, addend: 0x0, symName: __ZNSt3__110shared_ptrIN4grpc7ChannelEEC2B8ue170006IS2_vEERKNS_8weak_ptrIT_EE, symObjAddr: 0x1E88, symBinAddr: 0xD8F0, symSize: 0x40 }
  - { offsetInCU: 0xF8C1, offset: 0xCBDA3, size: 0x8, addend: 0x0, symName: __ZNSt3__120__throw_bad_weak_ptrB8ue170006Ev, symObjAddr: 0x1EC8, symBinAddr: 0xD930, symSize: 0x34 }
  - { offsetInCU: 0xF8D8, offset: 0xCBDBA, size: 0x8, addend: 0x0, symName: __ZNSt3__110shared_ptrIN4grpc7ChannelEED2B8ue170006Ev, symObjAddr: 0x1EFC, symBinAddr: 0xD964, symSize: 0x58 }
  - { offsetInCU: 0xFB32, offset: 0xCC014, size: 0x8, addend: 0x0, symName: __ZNSt3__16vectorINS_10unique_ptrIN4grpc12experimental11InterceptorENS_14default_deleteIS4_EEEENS_9allocatorIS7_EEE13__vdeallocateEv, symObjAddr: 0xF54, symBinAddr: 0xD488, symSize: 0x70 }
  - { offsetInCU: 0xFD86, offset: 0xCC268, size: 0x8, addend: 0x0, symName: __ZNSt3__16vectorINS_10unique_ptrIN4grpc12experimental11InterceptorENS_14default_deleteIS4_EEEENS_9allocatorIS7_EEE16__destroy_vectorclB8ue170006Ev, symObjAddr: 0xFC4, symBinAddr: 0xD4F8, symSize: 0x7C }
  - { offsetInCU: 0xFF88, offset: 0xCC46A, size: 0x8, addend: 0x0, symName: __ZN4grpc12experimental13ClientRpcInfo20RegisterInterceptorsERKNSt3__16vectorINS2_10unique_ptrINS0_33ClientInterceptorFactoryInterfaceENS2_14default_deleteIS5_EEEENS2_9allocatorIS8_EEEEm, symObjAddr: 0xB5C, symBinAddr: 0xD090, symSize: 0x3F8 }
  - { offsetInCU: 0x11212, offset: 0xCD6F4, size: 0x8, addend: 0x0, symName: __ZN4grpc7Channel10CreateCallERKNS_8internal9RpcMethodEPNS_13ClientContextEPNS_15CompletionQueueE, symObjAddr: 0x698, symBinAddr: 0xCD44, symSize: 0x8 }
  - { offsetInCU: 0x112A0, offset: 0xCD782, size: 0x8, addend: 0x0, symName: __ZN4grpc7Channel16PerformOpsOnCallEPNS_8internal18CallOpSetInterfaceEPNS1_4CallE, symObjAddr: 0x6A0, symBinAddr: 0xCD4C, symSize: 0x14 }
  - { offsetInCU: 0x1131C, offset: 0xCD7FE, size: 0x8, addend: 0x0, symName: __ZThn8_N4grpc7Channel16PerformOpsOnCallEPNS_8internal18CallOpSetInterfaceEPNS1_4CallE, symObjAddr: 0x6B4, symBinAddr: 0xCD60, symSize: 0x14 }
  - { offsetInCU: 0x1138B, offset: 0xCD86D, size: 0x8, addend: 0x0, symName: __ZN4grpc7Channel14RegisterMethodEPKc, symObjAddr: 0x6C8, symBinAddr: 0xCD74, symSize: 0x3C }
  - { offsetInCU: 0x114D3, offset: 0xCD9B5, size: 0x8, addend: 0x0, symName: __ZN4grpc7Channel8GetStateEb, symObjAddr: 0x704, symBinAddr: 0xCDB0, symSize: 0x8 }
  - { offsetInCU: 0x11591, offset: 0xCDA73, size: 0x8, addend: 0x0, symName: __ZN4grpc7Channel23NotifyOnStateChangeImplE23grpc_connectivity_state12gpr_timespecPNS_15CompletionQueueEPv, symObjAddr: 0x70C, symBinAddr: 0xCDB8, symSize: 0x6C }
  - { offsetInCU: 0x117A4, offset: 0xCDC86, size: 0x8, addend: 0x0, symName: __ZN4grpc7Channel22WaitForStateChangeImplE23grpc_connectivity_state12gpr_timespec, symObjAddr: 0x778, symBinAddr: 0xCE24, symSize: 0x158 }
  - { offsetInCU: 0x11A92, offset: 0xCDF74, size: 0x8, addend: 0x0, symName: __ZN4grpc15CompletionQueueC2ERK32grpc_completion_queue_attributes, symObjAddr: 0x1C58, symBinAddr: 0xD73C, symSize: 0xC8 }
  - { offsetInCU: 0x11D62, offset: 0xCE244, size: 0x8, addend: 0x0, symName: __ZN4grpc15CompletionQueueD2Ev, symObjAddr: 0x1B60, symBinAddr: 0xD644, symSize: 0x50 }
  - { offsetInCU: 0x11E62, offset: 0xCE344, size: 0x8, addend: 0x0, symName: __ZN4grpc15CompletionQueueD1Ev, symObjAddr: 0x8D0, symBinAddr: 0xCF7C, symSize: 0x4 }
  - { offsetInCU: 0x11E85, offset: 0xCE367, size: 0x8, addend: 0x0, symName: __ZN4grpc15CompletionQueueD1Ev, symObjAddr: 0x8D0, symBinAddr: 0xCF7C, symSize: 0x4 }
  - { offsetInCU: 0x11FD3, offset: 0xCE4B5, size: 0x8, addend: 0x0, symName: __ZN4grpc7Channel10CallbackCQEv, symObjAddr: 0x8D4, symBinAddr: 0xCF80, symSize: 0xF0 }
  - { offsetInCU: 0x122C8, offset: 0xCE7AA, size: 0x8, addend: 0x0, symName: __ZN4grpc16ChannelInterfaceD1Ev, symObjAddr: 0x9C4, symBinAddr: 0x317A0, symSize: 0x4 }
  - { offsetInCU: 0x122F1, offset: 0xCE7D3, size: 0x8, addend: 0x0, symName: __ZN4grpc16ChannelInterfaceD0Ev, symObjAddr: 0x9C8, symBinAddr: 0x317A4, symSize: 0x4 }
  - { offsetInCU: 0x1234E, offset: 0xCE830, size: 0x8, addend: 0x0, symName: __ZN4grpc16ChannelInterface18CreateCallInternalERKNS_8internal9RpcMethodEPNS_13ClientContextEPNS_15CompletionQueueEm, symObjAddr: 0x9CC, symBinAddr: 0xD070, symSize: 0x18 }
  - { offsetInCU: 0x1239D, offset: 0xCE87F, size: 0x8, addend: 0x0, symName: __ZN4grpc16ChannelInterface18CreateCallInternalERKNS_8internal9RpcMethodEPNS_13ClientContextEPNS_15CompletionQueueEm, symObjAddr: 0x9CC, symBinAddr: 0xD070, symSize: 0x18 }
  - { offsetInCU: 0x123B8, offset: 0xCE89A, size: 0x8, addend: 0x0, symName: __ZN4grpc16ChannelInterface18CreateCallInternalERKNS_8internal9RpcMethodEPNS_13ClientContextEPNS_15CompletionQueueEm, symObjAddr: 0x9CC, symBinAddr: 0xD070, symSize: 0x18 }
  - { offsetInCU: 0x123D3, offset: 0xCE8B5, size: 0x8, addend: 0x0, symName: __ZN4grpc16ChannelInterface10CallbackCQEv, symObjAddr: 0x9E4, symBinAddr: 0xD088, symSize: 0x8 }
  - { offsetInCU: 0x123FA, offset: 0xCE8DC, size: 0x8, addend: 0x0, symName: __ZN4grpc8internal8CallHookD1Ev, symObjAddr: 0x9EC, symBinAddr: 0x317A8, symSize: 0x4 }
  - { offsetInCU: 0x12423, offset: 0xCE905, size: 0x8, addend: 0x0, symName: __ZN4grpc8internal8CallHookD0Ev, symObjAddr: 0x9F0, symBinAddr: 0x317AC, symSize: 0x4 }
  - { offsetInCU: 0x12C82, offset: 0xCF164, size: 0x8, addend: 0x0, symName: __ZNSt3__114__split_bufferINS_10unique_ptrIN4grpc12experimental11InterceptorENS_14default_deleteIS4_EEEERNS_9allocatorIS7_EEED2Ev, symObjAddr: 0x1088, symBinAddr: 0xD5BC, symSize: 0x60 }
  - { offsetInCU: 0x12E66, offset: 0xCF348, size: 0x8, addend: 0x0, symName: __ZNKSt3__16vectorINS_10unique_ptrIN4grpc12experimental11InterceptorENS_14default_deleteIS4_EEEENS_9allocatorIS7_EEE20__throw_length_errorB8ue170006Ev, symObjAddr: 0x1040, symBinAddr: 0xD574, symSize: 0x14 }
  - { offsetInCU: 0x12E8F, offset: 0xCF371, size: 0x8, addend: 0x0, symName: __ZNSt3__119__allocate_at_leastB8ue170006INS_9allocatorINS_10unique_ptrIN4grpc12experimental11InterceptorENS_14default_deleteIS5_EEEEEEEENS_19__allocation_resultINS_16allocator_traitsIT_E7pointerEEERSC_m, symObjAddr: 0x1054, symBinAddr: 0xD588, symSize: 0x34 }
  - { offsetInCU: 0x1302A, offset: 0xCF50C, size: 0x8, addend: 0x0, symName: __ZN4grpc12_GLOBAL__N_18TagSaverD1Ev, symObjAddr: 0x10E8, symBinAddr: 0xD61C, symSize: 0x4 }
  - { offsetInCU: 0x13053, offset: 0xCF535, size: 0x8, addend: 0x0, symName: __ZN4grpc12_GLOBAL__N_18TagSaverD0Ev, symObjAddr: 0x10EC, symBinAddr: 0xD620, symSize: 0x4 }
  - { offsetInCU: 0x1307C, offset: 0xCF55E, size: 0x8, addend: 0x0, symName: __ZN4grpc12_GLOBAL__N_18TagSaver14FinalizeResultEPPvPb, symObjAddr: 0x10F0, symBinAddr: 0xD624, symSize: 0x20 }
  - { offsetInCU: 0x13707, offset: 0xCFBE9, size: 0x8, addend: 0x0, symName: __ZNSt3__110__list_impIPKN4grpc6ServerENS_9allocatorIS4_EEE5clearEv, symObjAddr: 0x1BC4, symBinAddr: 0xD6A8, symSize: 0x60 }
  - { offsetInCU: 0x138A6, offset: 0xCFD88, size: 0x8, addend: 0x0, symName: __ZN4grpc15CompletionQueueD0Ev, symObjAddr: 0x1BB0, symBinAddr: 0xD694, symSize: 0x14 }
  - { offsetInCU: 0x1399C, offset: 0xCFE7E, size: 0x8, addend: 0x0, symName: __ZN4grpc12_GLOBAL__N_116ShutdownCallback3RunEP29grpc_completion_queue_functori, symObjAddr: 0x1C24, symBinAddr: 0xD708, symSize: 0x34 }
  - { offsetInCU: 0x8737, offset: 0xD89A3, size: 0x8, addend: 0x0, symName: __ZN4grpc18ChannelCredentialsC2EP24grpc_channel_credentials, symObjAddr: 0x0, symBinAddr: 0xD9BC, symSize: 0x54 }
  - { offsetInCU: 0x87C8, offset: 0xD8A34, size: 0x8, addend: 0x0, symName: __ZN4grpc18ChannelCredentialsC1EP24grpc_channel_credentials, symObjAddr: 0x54, symBinAddr: 0xDA10, symSize: 0x54 }
  - { offsetInCU: 0x885A, offset: 0xD8AC6, size: 0x8, addend: 0x0, symName: __ZN4grpc18ChannelCredentialsD2Ev, symObjAddr: 0xA8, symBinAddr: 0xDA64, symSize: 0x38 }
  - { offsetInCU: 0x88E9, offset: 0xD8B55, size: 0x8, addend: 0x0, symName: __ZN4grpc18ChannelCredentialsD1Ev, symObjAddr: 0x12C, symBinAddr: 0xDA9C, symSize: 0x4 }
  - { offsetInCU: 0x890C, offset: 0xD8B78, size: 0x8, addend: 0x0, symName: __ZN4grpc18ChannelCredentialsD1Ev, symObjAddr: 0x12C, symBinAddr: 0xDA9C, symSize: 0x4 }
  - { offsetInCU: 0x893B, offset: 0xD8BA7, size: 0x8, addend: 0x0, symName: __ZN4grpc18ChannelCredentialsD0Ev, symObjAddr: 0x130, symBinAddr: 0xDAA0, symSize: 0x14 }
  - { offsetInCU: 0x8B73, offset: 0xD8DDF, size: 0x8, addend: 0x0, symName: __ZN4grpc18ChannelCredentials29CreateChannelWithInterceptorsERKNSt3__112basic_stringIcNS1_11char_traitsIcEENS1_9allocatorIcEEEERKNS_16ChannelArgumentsENS1_6vectorINS1_10unique_ptrINS_12experimental33ClientInterceptorFactoryInterfaceENS1_14default_deleteISG_EEEENS5_ISJ_EEEE, symObjAddr: 0x144, symBinAddr: 0xDAB4, symSize: 0xF4 }
  - { offsetInCU: 0x91FF, offset: 0xD946B, size: 0x8, addend: 0x0, symName: __ZN4grpc18ChannelCredentials17CreateChannelImplERKNSt3__112basic_stringIcNS1_11char_traitsIcEENS1_9allocatorIcEEEERKNS_16ChannelArgumentsE, symObjAddr: 0x238, symBinAddr: 0xDBA8, symSize: 0x64 }
  - { offsetInCU: 0x44E0, offset: 0xDDCAB, size: 0x8, addend: 0x0, symName: __ZNK4grpc8internal13ClientReactor20InternalTrailersOnlyEPK9grpc_call, symObjAddr: 0x0, symBinAddr: 0xDC0C, symSize: 0x8 }
  - { offsetInCU: 0x4542, offset: 0xDDD0D, size: 0x8, addend: 0x0, symName: __ZN4grpc8internal13ClientReactorD1Ev, symObjAddr: 0x8, symBinAddr: 0x317B0, symSize: 0x4 }
  - { offsetInCU: 0x456B, offset: 0xDDD36, size: 0x8, addend: 0x0, symName: __ZN4grpc8internal13ClientReactorD0Ev, symObjAddr: 0xC, symBinAddr: 0x317B4, symSize: 0x4 }
  - { offsetInCU: 0x44, offset: 0xDDDAD, size: 0x8, addend: 0x0, symName: __ZN4grpcL26g_default_client_callbacksE, symObjAddr: 0xAC150, symBinAddr: 0x491B0, symSize: 0x0 }
  - { offsetInCU: 0x24E7, offset: 0xE0250, size: 0x8, addend: 0x0, symName: __ZN4grpcL18g_client_callbacksE, symObjAddr: 0xAC158, symBinAddr: 0x491B8, symSize: 0x0 }
  - { offsetInCU: 0x105BA, offset: 0xEE323, size: 0x8, addend: 0x0, symName: __ZN4absl12lts_2024011612log_internal17MakeCheckOpStringIPKcRKDnEEPNSt3__112basic_stringIcNS7_11char_traitsIcEENS7_9allocatorIcEEEET_T0_S4_, symObjAddr: 0x1664, symBinAddr: 0xE6D0, symSize: 0xB8 }
  - { offsetInCU: 0x14170, offset: 0xF1ED9, size: 0x8, addend: 0x0, symName: __ZN4grpc13ClientContextC2Ev, symObjAddr: 0x0, symBinAddr: 0xDC48, symSize: 0x1B4 }
  - { offsetInCU: 0x14C66, offset: 0xF29CF, size: 0x8, addend: 0x0, symName: __ZN4grpc8internal11MetadataMapD2Ev, symObjAddr: 0xA44, symBinAddr: 0xE604, symSize: 0x38 }
  - { offsetInCU: 0x14D61, offset: 0xF2ACA, size: 0x8, addend: 0x0, symName: __ZNSt3__16__treeINS_12__value_typeINS_12basic_stringIcNS_11char_traitsIcEENS_9allocatorIcEEEES7_EENS_19__map_value_compareIS7_S8_NS_4lessIS7_EELb1EEENS5_IS8_EEE7destroyEPNS_11__tree_nodeIS8_PvEE, symObjAddr: 0x1F74, symBinAddr: 0xEEE8, symSize: 0x4C }
  - { offsetInCU: 0x14EDA, offset: 0xF2C43, size: 0x8, addend: 0x0, symName: __ZNSt3__110shared_ptrIKN4grpc11AuthContextEED2B8ue170006Ev, symObjAddr: 0x1DCC, symBinAddr: 0xEE38, symSize: 0x58 }
  - { offsetInCU: 0x14F6E, offset: 0xF2CD7, size: 0x8, addend: 0x0, symName: __ZNSt3__110shared_ptrIN4grpc15CallCredentialsEED2B8ue170006Ev, symObjAddr: 0x1F1C, symBinAddr: 0xEE90, symSize: 0x58 }
  - { offsetInCU: 0x1505A, offset: 0xF2DC3, size: 0x8, addend: 0x0, symName: __ZN4grpc13ClientContextC1Ev, symObjAddr: 0x1B4, symBinAddr: 0xDDFC, symSize: 0x4 }
  - { offsetInCU: 0x1507D, offset: 0xF2DE6, size: 0x8, addend: 0x0, symName: __ZN4grpc13ClientContextC1Ev, symObjAddr: 0x1B4, symBinAddr: 0xDDFC, symSize: 0x4 }
  - { offsetInCU: 0x150E2, offset: 0xF2E4B, size: 0x8, addend: 0x0, symName: __ZN4grpc13ClientContextD2Ev, symObjAddr: 0x1B8, symBinAddr: 0xDE00, symSize: 0xC4 }
  - { offsetInCU: 0x15653, offset: 0xF33BC, size: 0x8, addend: 0x0, symName: __ZN4grpc13ClientContextD1Ev, symObjAddr: 0x288, symBinAddr: 0xDEC4, symSize: 0x4 }
  - { offsetInCU: 0x15681, offset: 0xF33EA, size: 0x8, addend: 0x0, symName: __ZN4grpc13ClientContextD1Ev, symObjAddr: 0x288, symBinAddr: 0xDEC4, symSize: 0x4 }
  - { offsetInCU: 0x156C6, offset: 0xF342F, size: 0x8, addend: 0x0, symName: __ZN4grpc13ClientContext15set_credentialsERKNSt3__110shared_ptrINS_15CallCredentialsEEE, symObjAddr: 0x28C, symBinAddr: 0xDEC8, symSize: 0x64 }
  - { offsetInCU: 0x1578E, offset: 0xF34F7, size: 0x8, addend: 0x0, symName: __ZNSt3__110shared_ptrIN4grpc15CallCredentialsEEaSB8ue170006ERKS3_, symObjAddr: 0x2F0, symBinAddr: 0xDF2C, symSize: 0x78 }
  - { offsetInCU: 0x15941, offset: 0xF36AA, size: 0x8, addend: 0x0, symName: __ZN4grpc13ClientContext24SendCancelToInterceptorsEv, symObjAddr: 0x368, symBinAddr: 0xDFA4, symSize: 0x74 }
  - { offsetInCU: 0x15B87, offset: 0xF38F0, size: 0x8, addend: 0x0, symName: __ZN4grpc12experimental13ClientRpcInfo14RunInterceptorEPNS0_23InterceptorBatchMethodsEm, symObjAddr: 0x864, symBinAddr: 0xE4A0, symSize: 0x4C }
  - { offsetInCU: 0x15C29, offset: 0xF3992, size: 0x8, addend: 0x0, symName: __ZN4grpc8internal29CancelInterceptorBatchMethodsD1Ev, symObjAddr: 0x8B0, symBinAddr: 0xE4EC, symSize: 0x4 }
  - { offsetInCU: 0x15D79, offset: 0xF3AE2, size: 0x8, addend: 0x0, symName: __ZN4grpc13ClientContext25FromInternalServerContextERKNS_17ServerContextBaseENS_18PropagationOptionsE, symObjAddr: 0x3DC, symBinAddr: 0xE018, symSize: 0x60 }
  - { offsetInCU: 0x15E84, offset: 0xF3BED, size: 0x8, addend: 0x0, symName: __ZN4grpc13ClientContext17FromServerContextERKNS_17ServerContextBaseENS_18PropagationOptionsE, symObjAddr: 0x43C, symBinAddr: 0xE078, symSize: 0x8 }
  - { offsetInCU: 0x15ED8, offset: 0xF3C41, size: 0x8, addend: 0x0, symName: __ZN4grpc13ClientContext25FromCallbackServerContextERKNS_21CallbackServerContextENS_18PropagationOptionsE, symObjAddr: 0x444, symBinAddr: 0xE080, symSize: 0x8 }
  - { offsetInCU: 0x1601E, offset: 0xF3D87, size: 0x8, addend: 0x0, symName: __ZN4grpc13ClientContext11AddMetadataERKNSt3__112basic_stringIcNS1_11char_traitsIcEENS1_9allocatorIcEEEES9_, symObjAddr: 0x44C, symBinAddr: 0xE088, symSize: 0x6C }
  - { offsetInCU: 0x163C7, offset: 0xF4130, size: 0x8, addend: 0x0, symName: __ZNSt3__14pairINS_12basic_stringIcNS_11char_traitsIcEENS_9allocatorIcEEEES6_EC2B8ue170006ILb1ELPv0EEERKS6_SB_, symObjAddr: 0xA7C, symBinAddr: 0xE63C, symSize: 0x94 }
  - { offsetInCU: 0x16655, offset: 0xF43BE, size: 0x8, addend: 0x0, symName: __ZNSt3__16__treeINS_12__value_typeINS_12basic_stringIcNS_11char_traitsIcEENS_9allocatorIcEEEES7_EENS_19__map_value_compareIS7_S8_NS_4lessIS7_EELb1EEENS5_IS8_EEE15__emplace_multiIJNS_4pairIS7_S7_EEEEENS_15__tree_iteratorIS8_PNS_11__tree_nodeIS8_PvEElEEDpOT_, symObjAddr: 0x2004, symBinAddr: 0xEF78, symSize: 0xC4 }
  - { offsetInCU: 0x16A33, offset: 0xF479C, size: 0x8, addend: 0x0, symName: __ZNSt3__14pairINS_12basic_stringIcNS_11char_traitsIcEENS_9allocatorIcEEEES6_ED1Ev, symObjAddr: 0x4B8, symBinAddr: 0xE0F4, symSize: 0x40 }
  - { offsetInCU: 0x16DD6, offset: 0xF4B3F, size: 0x8, addend: 0x0, symName: __ZN4grpc13ClientContext8set_callEP9grpc_callRKNSt3__110shared_ptrINS_7ChannelEEE, symObjAddr: 0x4F8, symBinAddr: 0xE134, symSize: 0x11C }
  - { offsetInCU: 0x170C7, offset: 0xF4E30, size: 0x8, addend: 0x0, symName: __ZNSt3__110shared_ptrIN4grpc7ChannelEEaSB8ue170006ERKS3_, symObjAddr: 0x614, symBinAddr: 0xE250, symSize: 0x78 }
  - { offsetInCU: 0x17681, offset: 0xF53EA, size: 0x8, addend: 0x0, symName: __ZN4grpc13ClientContext25set_compression_algorithmE26grpc_compression_algorithm, symObjAddr: 0x68C, symBinAddr: 0xE2C8, symSize: 0x164 }
  - { offsetInCU: 0x17EC6, offset: 0xF5C2F, size: 0x8, addend: 0x0, symName: __ZN4grpc13ClientContext25set_compression_algorithmE26grpc_compression_algorithm.cold.1, symObjAddr: 0x23D8, symBinAddr: 0x317B8, symSize: 0x54 }
  - { offsetInCU: 0x17F9D, offset: 0xF5D06, size: 0x8, addend: 0x0, symName: __ZN4grpc13ClientContext9TryCancelEv, symObjAddr: 0x7F0, symBinAddr: 0xE42C, symSize: 0x74 }
  - { offsetInCU: 0x1812B, offset: 0xF5E94, size: 0x8, addend: 0x0, symName: __ZN4grpc12experimental13ClientRpcInfo14RunInterceptorEPNS0_23InterceptorBatchMethodsEm.cold.1, symObjAddr: 0x242C, symBinAddr: 0x3180C, symSize: 0x4C }
  - { offsetInCU: 0x181DB, offset: 0xF5F44, size: 0x8, addend: 0x0, symName: __ZN4grpc8internal29CancelInterceptorBatchMethodsD1Ev, symObjAddr: 0x8B0, symBinAddr: 0xE4EC, symSize: 0x4 }
  - { offsetInCU: 0x18229, offset: 0xF5F92, size: 0x8, addend: 0x0, symName: __ZNK4grpc13ClientContext4peerEv, symObjAddr: 0x8B4, symBinAddr: 0xE4F0, symSize: 0x64 }
  - { offsetInCU: 0x18452, offset: 0xF61BB, size: 0x8, addend: 0x0, symName: __ZN4grpc13ClientContext18SetGlobalCallbacksEPNS0_15GlobalCallbacksE, symObjAddr: 0x918, symBinAddr: 0xE554, symSize: 0x60 }
  - { offsetInCU: 0x184D2, offset: 0xF623B, size: 0x8, addend: 0x0, symName: __ZN4grpc28DefaultGlobalClientCallbacksD1Ev, symObjAddr: 0x978, symBinAddr: 0xE5B4, symSize: 0x4 }
  - { offsetInCU: 0x184E5, offset: 0xF624E, size: 0x8, addend: 0x0, symName: __ZN4grpc13ClientContext18SetGlobalCallbacksEPNS0_15GlobalCallbacksE.cold.3, symObjAddr: 0x24F4, symBinAddr: 0x318D4, symSize: 0x28 }
  - { offsetInCU: 0x184FD, offset: 0xF6266, size: 0x8, addend: 0x0, symName: __ZN4grpc13ClientContext18SetGlobalCallbacksEPNS0_15GlobalCallbacksE.cold.1, symObjAddr: 0x2478, symBinAddr: 0x31858, symSize: 0x54 }
  - { offsetInCU: 0x185AD, offset: 0xF6316, size: 0x8, addend: 0x0, symName: __ZN4grpc13ClientContext18SetGlobalCallbacksEPNS0_15GlobalCallbacksE.cold.2, symObjAddr: 0x24CC, symBinAddr: 0x318AC, symSize: 0x28 }
  - { offsetInCU: 0x185C5, offset: 0xF632E, size: 0x8, addend: 0x0, symName: __ZN4grpc28DefaultGlobalClientCallbacksD1Ev, symObjAddr: 0x978, symBinAddr: 0xE5B4, symSize: 0x4 }
  - { offsetInCU: 0x185EE, offset: 0xF6357, size: 0x8, addend: 0x0, symName: __ZN4grpc28DefaultGlobalClientCallbacksD0Ev, symObjAddr: 0x97C, symBinAddr: 0xE5B8, symSize: 0x4 }
  - { offsetInCU: 0x18617, offset: 0xF6380, size: 0x8, addend: 0x0, symName: __ZN4grpc28DefaultGlobalClientCallbacks18DefaultConstructorEPNS_13ClientContextE, symObjAddr: 0x980, symBinAddr: 0xE5BC, symSize: 0x4 }
  - { offsetInCU: 0x18646, offset: 0xF63AF, size: 0x8, addend: 0x0, symName: __ZN4grpc28DefaultGlobalClientCallbacks10DestructorEPNS_13ClientContextE, symObjAddr: 0x984, symBinAddr: 0xE5C0, symSize: 0x4 }
  - { offsetInCU: 0x186D2, offset: 0xF643B, size: 0x8, addend: 0x0, symName: __ZNSt3__16__treeINS_12__value_typeIN4grpc10string_refES3_EENS_19__map_value_compareIS3_S4_NS_4lessIS3_EELb1EEENS_9allocatorIS4_EEE7destroyEPNS_11__tree_nodeIS4_PvEE, symObjAddr: 0x988, symBinAddr: 0xE5C4, symSize: 0x40 }
  - { offsetInCU: 0x19476, offset: 0xF71DF, size: 0x8, addend: 0x0, symName: __ZN4grpc8internal29CancelInterceptorBatchMethodsD0Ev, symObjAddr: 0x171C, symBinAddr: 0xE788, symSize: 0x4 }
  - { offsetInCU: 0x194A2, offset: 0xF720B, size: 0x8, addend: 0x0, symName: __ZN4grpc8internal29CancelInterceptorBatchMethods26QueryInterceptionHookPointENS_12experimental22InterceptionHookPointsE, symObjAddr: 0x1720, symBinAddr: 0xE78C, symSize: 0xC }
  - { offsetInCU: 0x194D8, offset: 0xF7241, size: 0x8, addend: 0x0, symName: __ZN4grpc8internal29CancelInterceptorBatchMethods7ProceedEv, symObjAddr: 0x172C, symBinAddr: 0xE798, symSize: 0x4 }
  - { offsetInCU: 0x194FD, offset: 0xF7266, size: 0x8, addend: 0x0, symName: __ZN4grpc8internal29CancelInterceptorBatchMethods6HijackEv, symObjAddr: 0x1730, symBinAddr: 0xE79C, symSize: 0x48 }
  - { offsetInCU: 0x1968B, offset: 0xF73F4, size: 0x8, addend: 0x0, symName: __ZN4absl12lts_2024011612log_internal10LogMessagelsILi73EEERS2_RAT__Kc, symObjAddr: 0x1BB0, symBinAddr: 0xEC1C, symSize: 0x3C }
  - { offsetInCU: 0x19722, offset: 0xF748B, size: 0x8, addend: 0x0, symName: __ZN4grpc8internal29CancelInterceptorBatchMethods24GetSerializedSendMessageEv, symObjAddr: 0x1778, symBinAddr: 0xE7E4, symSize: 0x48 }
  - { offsetInCU: 0x19765, offset: 0xF74CE, size: 0x8, addend: 0x0, symName: __ZN4absl12lts_2024011612log_internal10LogMessagelsILi81EEERS2_RAT__Kc, symObjAddr: 0x1BEC, symBinAddr: 0xEC58, symSize: 0x3C }
  - { offsetInCU: 0x197FC, offset: 0xF7565, size: 0x8, addend: 0x0, symName: __ZN4grpc8internal29CancelInterceptorBatchMethods14GetSendMessageEv, symObjAddr: 0x17C0, symBinAddr: 0xE82C, symSize: 0x48 }
  - { offsetInCU: 0x1983F, offset: 0xF75A8, size: 0x8, addend: 0x0, symName: __ZN4absl12lts_2024011612log_internal10LogMessagelsILi89EEERS2_RAT__Kc, symObjAddr: 0x1C28, symBinAddr: 0xEC94, symSize: 0x3C }
  - { offsetInCU: 0x198D6, offset: 0xF763F, size: 0x8, addend: 0x0, symName: __ZN4grpc8internal29CancelInterceptorBatchMethods17ModifySendMessageEPKv, symObjAddr: 0x1808, symBinAddr: 0xE874, symSize: 0x48 }
  - { offsetInCU: 0x19926, offset: 0xF768F, size: 0x8, addend: 0x0, symName: __ZN4absl12lts_2024011612log_internal10LogMessagelsILi84EEERS2_RAT__Kc, symObjAddr: 0x1C64, symBinAddr: 0xECD0, symSize: 0x3C }
  - { offsetInCU: 0x199BD, offset: 0xF7726, size: 0x8, addend: 0x0, symName: __ZN4grpc8internal29CancelInterceptorBatchMethods20GetSendMessageStatusEv, symObjAddr: 0x1850, symBinAddr: 0xE8BC, symSize: 0x48 }
  - { offsetInCU: 0x19A00, offset: 0xF7769, size: 0x8, addend: 0x0, symName: __ZN4absl12lts_2024011612log_internal10LogMessagelsILi87EEERS2_RAT__Kc, symObjAddr: 0x1CA0, symBinAddr: 0xED0C, symSize: 0x3C }
  - { offsetInCU: 0x19A97, offset: 0xF7800, size: 0x8, addend: 0x0, symName: __ZN4grpc8internal29CancelInterceptorBatchMethods22GetSendInitialMetadataEv, symObjAddr: 0x1898, symBinAddr: 0xE904, symSize: 0x48 }
  - { offsetInCU: 0x19AD4, offset: 0xF783D, size: 0x8, addend: 0x0, symName: __ZN4grpc8internal29CancelInterceptorBatchMethods13GetSendStatusEv, symObjAddr: 0x18E0, symBinAddr: 0xE94C, symSize: 0x48 }
  - { offsetInCU: 0x19B17, offset: 0xF7880, size: 0x8, addend: 0x0, symName: __ZN4absl12lts_2024011612log_internal10LogMessagelsILi80EEERS2_RAT__Kc, symObjAddr: 0x1CDC, symBinAddr: 0xED48, symSize: 0x3C }
  - { offsetInCU: 0x19BAE, offset: 0xF7917, size: 0x8, addend: 0x0, symName: __ZN4grpc8internal29CancelInterceptorBatchMethods16ModifySendStatusERKNS_6StatusE, symObjAddr: 0x1928, symBinAddr: 0xE994, symSize: 0x48 }
  - { offsetInCU: 0x19BFE, offset: 0xF7967, size: 0x8, addend: 0x0, symName: __ZN4absl12lts_2024011612log_internal10LogMessagelsILi83EEERS2_RAT__Kc, symObjAddr: 0x1D18, symBinAddr: 0xED84, symSize: 0x3C }
  - { offsetInCU: 0x19C95, offset: 0xF79FE, size: 0x8, addend: 0x0, symName: __ZN4grpc8internal29CancelInterceptorBatchMethods23GetSendTrailingMetadataEv, symObjAddr: 0x1970, symBinAddr: 0xE9DC, symSize: 0x48 }
  - { offsetInCU: 0x19CD8, offset: 0xF7A41, size: 0x8, addend: 0x0, symName: __ZN4absl12lts_2024011612log_internal10LogMessagelsILi90EEERS2_RAT__Kc, symObjAddr: 0x1D54, symBinAddr: 0xEDC0, symSize: 0x3C }
  - { offsetInCU: 0x19D6F, offset: 0xF7AD8, size: 0x8, addend: 0x0, symName: __ZN4grpc8internal29CancelInterceptorBatchMethods14GetRecvMessageEv, symObjAddr: 0x19B8, symBinAddr: 0xEA24, symSize: 0x48 }
  - { offsetInCU: 0x19DAC, offset: 0xF7B15, size: 0x8, addend: 0x0, symName: __ZN4grpc8internal29CancelInterceptorBatchMethods22GetRecvInitialMetadataEv, symObjAddr: 0x1A00, symBinAddr: 0xEA6C, symSize: 0x48 }
  - { offsetInCU: 0x19DE9, offset: 0xF7B52, size: 0x8, addend: 0x0, symName: __ZN4grpc8internal29CancelInterceptorBatchMethods13GetRecvStatusEv, symObjAddr: 0x1A48, symBinAddr: 0xEAB4, symSize: 0x48 }
  - { offsetInCU: 0x19E26, offset: 0xF7B8F, size: 0x8, addend: 0x0, symName: __ZN4grpc8internal29CancelInterceptorBatchMethods23GetRecvTrailingMetadataEv, symObjAddr: 0x1A90, symBinAddr: 0xEAFC, symSize: 0x48 }
  - { offsetInCU: 0x19E63, offset: 0xF7BCC, size: 0x8, addend: 0x0, symName: __ZN4grpc8internal29CancelInterceptorBatchMethods21GetInterceptedChannelEv, symObjAddr: 0x1AD8, symBinAddr: 0xEB44, symSize: 0x48 }
  - { offsetInCU: 0x19EA6, offset: 0xF7C0F, size: 0x8, addend: 0x0, symName: __ZN4absl12lts_2024011612log_internal10LogMessagelsILi88EEERS2_RAT__Kc, symObjAddr: 0x1D90, symBinAddr: 0xEDFC, symSize: 0x3C }
  - { offsetInCU: 0x19F3D, offset: 0xF7CA6, size: 0x8, addend: 0x0, symName: __ZN4grpc8internal29CancelInterceptorBatchMethods23FailHijackedRecvMessageEv, symObjAddr: 0x1B20, symBinAddr: 0xEB8C, symSize: 0x48 }
  - { offsetInCU: 0x19F7A, offset: 0xF7CE3, size: 0x8, addend: 0x0, symName: __ZN4grpc8internal29CancelInterceptorBatchMethods23FailHijackedSendMessageEv, symObjAddr: 0x1B68, symBinAddr: 0xEBD4, symSize: 0x48 }
  - { offsetInCU: 0x1A0D5, offset: 0xF7E3E, size: 0x8, addend: 0x0, symName: __ZNSt3__116allocator_traitsINS_9allocatorINS_11__tree_nodeINS_12__value_typeINS_12basic_stringIcNS_11char_traitsIcEENS1_IcEEEES8_EEPvEEEEE7destroyB8ue170006INS_4pairIKS8_S8_EEvvEEvRSC_PT_, symObjAddr: 0x1FC0, symBinAddr: 0xEF34, symSize: 0x44 }
  - { offsetInCU: 0x1A709, offset: 0xF8472, size: 0x8, addend: 0x0, symName: __ZNSt3__16__treeINS_12__value_typeINS_12basic_stringIcNS_11char_traitsIcEENS_9allocatorIcEEEES7_EENS_19__map_value_compareIS7_S8_NS_4lessIS7_EELb1EEENS5_IS8_EEE16__find_leaf_highERPNS_15__tree_end_nodeIPNS_16__tree_node_baseIPvEEEERKS7_, symObjAddr: 0x20C8, symBinAddr: 0xF03C, symSize: 0x78 }
  - { offsetInCU: 0x1A7C8, offset: 0xF8531, size: 0x8, addend: 0x0, symName: __ZNSt3__16__treeINS_12__value_typeINS_12basic_stringIcNS_11char_traitsIcEENS_9allocatorIcEEEES7_EENS_19__map_value_compareIS7_S8_NS_4lessIS7_EELb1EEENS5_IS8_EEE16__insert_node_atEPNS_15__tree_end_nodeIPNS_16__tree_node_baseIPvEEEERSJ_SJ_, symObjAddr: 0x2140, symBinAddr: 0xF0B4, symSize: 0x54 }
  - { offsetInCU: 0x1A82F, offset: 0xF8598, size: 0x8, addend: 0x0, symName: __ZNSt3__122__tree_node_destructorINS_9allocatorINS_11__tree_nodeINS_12__value_typeINS_12basic_stringIcNS_11char_traitsIcEENS1_IcEEEES8_EEPvEEEEEclB8ue170006EPSB_, symObjAddr: 0x2394, symBinAddr: 0xF170, symSize: 0x44 }
  - { offsetInCU: 0x1A971, offset: 0xF86DA, size: 0x8, addend: 0x0, symName: __ZNKSt3__14lessINS_12basic_stringIcNS_11char_traitsIcEENS_9allocatorIcEEEEEclB8ue170006ERKS6_S9_, symObjAddr: 0x2194, symBinAddr: 0xF108, symSize: 0x68 }
  - { offsetInCU: 0x26, offset: 0xF89AD, size: 0x8, addend: 0x0, symName: __ZN4grpc12experimental38RegisterGlobalClientInterceptorFactoryEPNS0_33ClientInterceptorFactoryInterfaceE, symObjAddr: 0x0, symBinAddr: 0xF1EC, symSize: 0x3C }
  - { offsetInCU: 0x4A, offset: 0xF89D1, size: 0x8, addend: 0x0, symName: __ZN4grpc8internal35g_global_client_interceptor_factoryE, symObjAddr: 0x33B18, symBinAddr: 0x49270, symSize: 0x0 }
  - { offsetInCU: 0x5E, offset: 0xF89E5, size: 0x8, addend: 0x0, symName: __ZN4grpc12experimental38RegisterGlobalClientInterceptorFactoryEPNS0_33ClientInterceptorFactoryInterfaceE, symObjAddr: 0x0, symBinAddr: 0xF1EC, symSize: 0x3C }
  - { offsetInCU: 0x8C, offset: 0xF8A13, size: 0x8, addend: 0x0, symName: __ZN4grpc12experimental43TestOnlyResetGlobalClientInterceptorFactoryEv, symObjAddr: 0x3C, symBinAddr: 0xF228, symSize: 0xC }
  - { offsetInCU: 0xA6, offset: 0xF8A2D, size: 0x8, addend: 0x0, symName: __ZN4grpc12experimental43TestOnlyResetGlobalClientInterceptorFactoryEv, symObjAddr: 0x3C, symBinAddr: 0xF228, symSize: 0xC }
  - { offsetInCU: 0x26, offset: 0xFCC8D, size: 0x8, addend: 0x0, symName: __ZN4grpc8internal43RegisterGlobalClientStatsInterceptorFactoryEPNS_12experimental33ClientInterceptorFactoryInterfaceE, symObjAddr: 0x0, symBinAddr: 0xF234, symSize: 0x44 }
  - { offsetInCU: 0x4A, offset: 0xFCCB1, size: 0x8, addend: 0x0, symName: __ZN4grpc8internal41g_global_client_stats_interceptor_factoryE, symObjAddr: 0x33A38, symBinAddr: 0x49278, symSize: 0x0 }
  - { offsetInCU: 0x58, offset: 0xFCCBF, size: 0x8, addend: 0x0, symName: __ZN4grpc8internal43RegisterGlobalClientStatsInterceptorFactoryEPNS_12experimental33ClientInterceptorFactoryInterfaceE, symObjAddr: 0x0, symBinAddr: 0xF234, symSize: 0x44 }
  - { offsetInCU: 0x46, offset: 0x100F6D, size: 0x8, addend: 0x0, symName: __ZN4grpc12_GLOBAL__N_125g_callback_alternative_cqE.0, symObjAddr: 0x3BA68, symBinAddr: 0x491C0, symSize: 0x0 }
  - { offsetInCU: 0x53, offset: 0x100F7A, size: 0x8, addend: 0x0, symName: __ZN4grpc12_GLOBAL__N_125g_callback_alternative_cqE.1, symObjAddr: 0x3BA70, symBinAddr: 0x491C8, symSize: 0x0 }
  - { offsetInCU: 0x5E, offset: 0x100F85, size: 0x8, addend: 0x0, symName: __ZN4grpc12_GLOBAL__N_125g_callback_alternative_cqE.2, symObjAddr: 0x3BA78, symBinAddr: 0x491D0, symSize: 0x0 }
  - { offsetInCU: 0xD0, offset: 0x100FF7, size: 0x8, addend: 0x0, symName: __ZN4grpc12_GLOBAL__N_132g_once_init_callback_alternativeE, symObjAddr: 0x1198, symBinAddr: 0x48FF8, symSize: 0x0 }
  - { offsetInCU: 0xEA, offset: 0x101011, size: 0x8, addend: 0x0, symName: __ZN4grpc12_GLOBAL__N_125g_callback_alternative_muE, symObjAddr: 0x3BA80, symBinAddr: 0x491D8, symSize: 0x0 }
  - { offsetInCU: 0x4935, offset: 0x10585C, size: 0x8, addend: 0x0, symName: __ZNSt3__119__allocate_at_leastB8ue170006INS_9allocatorIN9grpc_core6ThreadEEEEENS_19__allocation_resultINS_16allocator_traitsIT_E7pointerEEERS7_m, symObjAddr: 0xAF4, symBinAddr: 0xFB54, symSize: 0x34 }
  - { offsetInCU: 0x5BFE, offset: 0x106B25, size: 0x8, addend: 0x0, symName: __ZNSt3__16vectorIN9grpc_core6ThreadENS_9allocatorIS2_EEE26__swap_out_circular_bufferERNS_14__split_bufferIS2_RS4_EE, symObjAddr: 0x9D0, symBinAddr: 0xFAA4, symSize: 0x9C }
  - { offsetInCU: 0x7EBC, offset: 0x108DE3, size: 0x8, addend: 0x0, symName: __ZN4grpc15CompletionQueueC2EP21grpc_completion_queue, symObjAddr: 0x0, symBinAddr: 0xF278, symSize: 0x6C }
  - { offsetInCU: 0x80C4, offset: 0x108FEB, size: 0x8, addend: 0x0, symName: __ZN4grpc15CompletionQueueC1EP21grpc_completion_queue, symObjAddr: 0xAC, symBinAddr: 0xF2E4, symSize: 0x4 }
  - { offsetInCU: 0x8100, offset: 0x109027, size: 0x8, addend: 0x0, symName: __ZN4grpc15CompletionQueueC1EP21grpc_completion_queue, symObjAddr: 0xAC, symBinAddr: 0xF2E4, symSize: 0x4 }
  - { offsetInCU: 0x8169, offset: 0x109090, size: 0x8, addend: 0x0, symName: __ZN4grpc15CompletionQueue8ShutdownEv, symObjAddr: 0xB0, symBinAddr: 0xF2E8, symSize: 0x94 }
  - { offsetInCU: 0x81F8, offset: 0x10911F, size: 0x8, addend: 0x0, symName: __ZNK4grpc15CompletionQueue15ServerListEmptyEv, symObjAddr: 0x144, symBinAddr: 0xF37C, symSize: 0x40 }
  - { offsetInCU: 0x8423, offset: 0x10934A, size: 0x8, addend: 0x0, symName: __ZN4grpc15CompletionQueue17AsyncNextInternalEPPvPb12gpr_timespec, symObjAddr: 0x184, symBinAddr: 0xF3BC, symSize: 0xA4 }
  - { offsetInCU: 0x8554, offset: 0x10947B, size: 0x8, addend: 0x0, symName: __ZN4grpc15CompletionQueue23CompletionQueueTLSCacheC2EPS0_, symObjAddr: 0x228, symBinAddr: 0xF460, symSize: 0x30 }
  - { offsetInCU: 0x85C6, offset: 0x1094ED, size: 0x8, addend: 0x0, symName: __ZN4grpc15CompletionQueue23CompletionQueueTLSCacheC1EPS0_, symObjAddr: 0x258, symBinAddr: 0xF490, symSize: 0x30 }
  - { offsetInCU: 0x8634, offset: 0x10955B, size: 0x8, addend: 0x0, symName: __ZN4grpc15CompletionQueue23CompletionQueueTLSCacheD2Ev, symObjAddr: 0x288, symBinAddr: 0xF4C0, symSize: 0x4C }
  - { offsetInCU: 0x8661, offset: 0x109588, size: 0x8, addend: 0x0, symName: __ZN4grpc15CompletionQueue23CompletionQueueTLSCacheD1Ev, symObjAddr: 0x2E0, symBinAddr: 0xF50C, symSize: 0x4 }
  - { offsetInCU: 0x868F, offset: 0x1095B6, size: 0x8, addend: 0x0, symName: __ZN4grpc15CompletionQueue23CompletionQueueTLSCacheD1Ev, symObjAddr: 0x2E0, symBinAddr: 0xF50C, symSize: 0x4 }
  - { offsetInCU: 0x86A3, offset: 0x1095CA, size: 0x8, addend: 0x0, symName: __ZN4grpc15CompletionQueue23CompletionQueueTLSCache5FlushEPPvPb, symObjAddr: 0x2E4, symBinAddr: 0xF510, symSize: 0x84 }
  - { offsetInCU: 0x8E18, offset: 0x109D3F, size: 0x8, addend: 0x0, symName: __ZN4grpc15CompletionQueue21CallbackAlternativeCQEv, symObjAddr: 0x368, symBinAddr: 0xF594, symSize: 0x294 }
  - { offsetInCU: 0x96E4, offset: 0x10A60B, size: 0x8, addend: 0x0, symName: __ZNSt3__114__split_bufferIN9grpc_core6ThreadERNS_9allocatorIS2_EEED2Ev, symObjAddr: 0xBA4, symBinAddr: 0xFBDC, symSize: 0x4C }
  - { offsetInCU: 0x9886, offset: 0x10A7AD, size: 0x8, addend: 0x0, symName: __ZN9grpc_core6Thread5StartEv, symObjAddr: 0x7C4, symBinAddr: 0xF960, symSize: 0x64 }
  - { offsetInCU: 0x98E5, offset: 0x10A80C, size: 0x8, addend: 0x0, symName: __ZNKSt3__16vectorIN9grpc_core6ThreadENS_9allocatorIS2_EEE20__throw_length_errorB8ue170006Ev, symObjAddr: 0xA6C, symBinAddr: 0xFB40, symSize: 0x14 }
  - { offsetInCU: 0x99F1, offset: 0x10A918, size: 0x8, addend: 0x0, symName: __ZN4grpc15CompletionQueue28ReleaseCallbackAlternativeCQEPS0_, symObjAddr: 0x5FC, symBinAddr: 0xF828, symSize: 0xF4 }
  - { offsetInCU: 0x9C7A, offset: 0x10ABA1, size: 0x8, addend: 0x0, symName: __ZN9grpc_core6Thread4JoinEv, symObjAddr: 0xBF0, symBinAddr: 0xFC28, symSize: 0x70 }
  - { offsetInCU: 0x9CBC, offset: 0x10ABE3, size: 0x8, addend: 0x0, symName: __ZNSt3__16vectorIN9grpc_core6ThreadENS_9allocatorIS2_EEE16__destroy_vectorclB8ue170006Ev, symObjAddr: 0xC60, symBinAddr: 0xFC98, symSize: 0x70 }
  - { offsetInCU: 0x9CCF, offset: 0x10ABF6, size: 0x8, addend: 0x0, symName: __ZNSt3__16vectorIN9grpc_core6ThreadENS_9allocatorIS2_EEE16__destroy_vectorclB8ue170006Ev, symObjAddr: 0xC60, symBinAddr: 0xFC98, symSize: 0x70 }
  - { offsetInCU: 0x9E5B, offset: 0x10AD82, size: 0x8, addend: 0x0, symName: __ZN4grpc15CompletionQueue28ReleaseCallbackAlternativeCQEPS0_.cold.1, symObjAddr: 0xD20, symBinAddr: 0x318FC, symSize: 0x28 }
  - { offsetInCU: 0xA047, offset: 0x10AF6E, size: 0x8, addend: 0x0, symName: '__ZZN4grpc15CompletionQueue21CallbackAlternativeCQEvEN3$_08__invokeEv', symObjAddr: 0x780, symBinAddr: 0xF91C, symSize: 0x44 }
  - { offsetInCU: 0xA0B6, offset: 0x10AFDD, size: 0x8, addend: 0x0, symName: __ZN9grpc_core6Thread5StartEv.cold.2, symObjAddr: 0xD70, symBinAddr: 0x3194C, symSize: 0x28 }
  - { offsetInCU: 0xA0CE, offset: 0x10AFF5, size: 0x8, addend: 0x0, symName: __ZN9grpc_core6Thread5StartEv.cold.1, symObjAddr: 0xD48, symBinAddr: 0x31924, symSize: 0x28 }
  - { offsetInCU: 0xA246, offset: 0x10B16D, size: 0x8, addend: 0x0, symName: __ZZN4grpc12_GLOBAL__N_121CallbackAlternativeCQ3RefEvENUlPvE_8__invokeES2_, symObjAddr: 0x8F0, symBinAddr: 0xF9C4, symSize: 0xE0 }
  - { offsetInCU: 0xA38B, offset: 0x10B2B2, size: 0x8, addend: 0x0, symName: __ZNSt3__16vectorIN9grpc_core6ThreadENS_9allocatorIS2_EEE26__swap_out_circular_bufferERNS_14__split_bufferIS2_RS4_EE, symObjAddr: 0x9D0, symBinAddr: 0xFAA4, symSize: 0x9C }
  - { offsetInCU: 0xA3EB, offset: 0x10B312, size: 0x8, addend: 0x0, symName: __ZZN4grpc12_GLOBAL__N_121CallbackAlternativeCQ3RefEvENUlPvE_8__invokeES2_.cold.1, symObjAddr: 0xD98, symBinAddr: 0x31974, symSize: 0x28 }
  - { offsetInCU: 0xA5B2, offset: 0x10B4D9, size: 0x8, addend: 0x0, symName: __ZN9grpc_core6ThreadD2Ev, symObjAddr: 0xB50, symBinAddr: 0xFB88, symSize: 0x54 }
  - { offsetInCU: 0xA71B, offset: 0x10B642, size: 0x8, addend: 0x0, symName: __ZN9grpc_core6Thread4JoinEv.cold.1, symObjAddr: 0xDC0, symBinAddr: 0x3199C, symSize: 0x28 }
  - { offsetInCU: 0x680, offset: 0x10BD23, size: 0x8, addend: 0x0, symName: __ZN4grpc12experimental35CreateCustomChannelWithInterceptorsERKNSt3__112basic_stringIcNS1_11char_traitsIcEENS1_9allocatorIcEEEERKNS1_10shared_ptrINS_18ChannelCredentialsEEERKNS_16ChannelArgumentsENS1_6vectorINS1_10unique_ptrINS0_33ClientInterceptorFactoryInterfaceENS1_14default_deleteISK_EEEENS5_ISN_EEEE, symObjAddr: 0x194, symBinAddr: 0xFE98, symSize: 0x17C }
  - { offsetInCU: 0xE0D, offset: 0x10C4B0, size: 0x8, addend: 0x0, symName: __ZN4grpc13CreateChannelERKNSt3__112basic_stringIcNS0_11char_traitsIcEENS0_9allocatorIcEEEERKNS0_10shared_ptrINS_18ChannelCredentialsEEE, symObjAddr: 0x0, symBinAddr: 0xFD08, symSize: 0x6C }
  - { offsetInCU: 0xE77, offset: 0x10C51A, size: 0x8, addend: 0x0, symName: __ZN4grpc19CreateCustomChannelERKNSt3__112basic_stringIcNS0_11char_traitsIcEENS0_9allocatorIcEEEERKNS0_10shared_ptrINS_18ChannelCredentialsEEERKNS_16ChannelArgumentsE, symObjAddr: 0x6C, symBinAddr: 0xFD74, symSize: 0x124 }
  - { offsetInCU: 0x26, offset: 0x115A9E, size: 0x8, addend: 0x0, symName: __ZN4grpc21CreateChannelInternalERKNSt3__112basic_stringIcNS0_11char_traitsIcEENS0_9allocatorIcEEEEP12grpc_channelNS0_6vectorINS0_10unique_ptrINS_12experimental33ClientInterceptorFactoryInterfaceENS0_14default_deleteISE_EEEENS4_ISH_EEEE, symObjAddr: 0x0, symBinAddr: 0x10014, symSize: 0xCC }
  - { offsetInCU: 0x854, offset: 0x1162CC, size: 0x8, addend: 0x0, symName: __ZN4grpc21CreateChannelInternalERKNSt3__112basic_stringIcNS0_11char_traitsIcEENS0_9allocatorIcEEEEP12grpc_channelNS0_6vectorINS0_10unique_ptrINS_12experimental33ClientInterceptorFactoryInterfaceENS0_14default_deleteISE_EEEENS4_ISH_EEEE, symObjAddr: 0x0, symBinAddr: 0x10014, symSize: 0xCC }
  - { offsetInCU: 0x5B9F, offset: 0x11B617, size: 0x8, addend: 0x0, symName: __ZNSt3__110shared_ptrIN4grpc7ChannelEE18__enable_weak_thisB8ue170006IS2_S2_vEEvPKNS_23enable_shared_from_thisIT_EEPT0_, symObjAddr: 0x1C4, symBinAddr: 0x1015C, symSize: 0xB0 }
  - { offsetInCU: 0x7E47, offset: 0x11D8BF, size: 0x8, addend: 0x0, symName: __ZNSt3__110shared_ptrIN4grpc7ChannelEEC2B8ue170006IS2_vEEPT_, symObjAddr: 0x148, symBinAddr: 0x100E0, symSize: 0x7C }
  - { offsetInCU: 0x8796, offset: 0x11E20E, size: 0x8, addend: 0x0, symName: __ZNSt3__120__shared_ptr_pointerIPN4grpc7ChannelENS_10shared_ptrIS2_E27__shared_ptr_default_deleteIS2_S2_EENS_9allocatorIS2_EEED1Ev, symObjAddr: 0x274, symBinAddr: 0x1020C, symSize: 0x4 }
  - { offsetInCU: 0x87B8, offset: 0x11E230, size: 0x8, addend: 0x0, symName: __ZNSt3__120__shared_ptr_pointerIPN4grpc7ChannelENS_10shared_ptrIS2_E27__shared_ptr_default_deleteIS2_S2_EENS_9allocatorIS2_EEED1Ev, symObjAddr: 0x274, symBinAddr: 0x1020C, symSize: 0x4 }
  - { offsetInCU: 0x87EE, offset: 0x11E266, size: 0x8, addend: 0x0, symName: __ZNSt3__120__shared_ptr_pointerIPN4grpc7ChannelENS_10shared_ptrIS2_E27__shared_ptr_default_deleteIS2_S2_EENS_9allocatorIS2_EEED0Ev, symObjAddr: 0x278, symBinAddr: 0x10210, symSize: 0x14 }
  - { offsetInCU: 0x8851, offset: 0x11E2C9, size: 0x8, addend: 0x0, symName: __ZNSt3__120__shared_ptr_pointerIPN4grpc7ChannelENS_10shared_ptrIS2_E27__shared_ptr_default_deleteIS2_S2_EENS_9allocatorIS2_EEE16__on_zero_sharedEv, symObjAddr: 0x28C, symBinAddr: 0x10224, symSize: 0x24 }
  - { offsetInCU: 0x8897, offset: 0x11E30F, size: 0x8, addend: 0x0, symName: __ZNKSt3__120__shared_ptr_pointerIPN4grpc7ChannelENS_10shared_ptrIS2_E27__shared_ptr_default_deleteIS2_S2_EENS_9allocatorIS2_EEE13__get_deleterERKSt9type_info, symObjAddr: 0x2B0, symBinAddr: 0x10248, symSize: 0x3C }
  - { offsetInCU: 0x8989, offset: 0x11E401, size: 0x8, addend: 0x0, symName: __ZNSt3__120__shared_ptr_pointerIPN4grpc7ChannelENS_10shared_ptrIS2_E27__shared_ptr_default_deleteIS2_S2_EENS_9allocatorIS2_EEE21__on_zero_shared_weakEv, symObjAddr: 0x2EC, symBinAddr: 0x10284, symSize: 0x4 }
  - { offsetInCU: 0x89BF, offset: 0x11E437, size: 0x8, addend: 0x0, symName: __ZNSt3__120__shared_ptr_pointerIPN4grpc7ChannelENS_10shared_ptrIS2_E27__shared_ptr_default_deleteIS2_S2_EENS_9allocatorIS2_EEE21__on_zero_shared_weakEv, symObjAddr: 0x2EC, symBinAddr: 0x10284, symSize: 0x4 }
  - { offsetInCU: 0x89E1, offset: 0x11E459, size: 0x8, addend: 0x0, symName: __ZNSt3__120__shared_ptr_pointerIPN4grpc7ChannelENS_10shared_ptrIS2_E27__shared_ptr_default_deleteIS2_S2_EENS_9allocatorIS2_EEE21__on_zero_shared_weakEv, symObjAddr: 0x2EC, symBinAddr: 0x10284, symSize: 0x4 }
  - { offsetInCU: 0x8A0C, offset: 0x11E484, size: 0x8, addend: 0x0, symName: __ZNSt3__120__shared_ptr_pointerIPN4grpc7ChannelENS_10shared_ptrIS2_E27__shared_ptr_default_deleteIS2_S2_EENS_9allocatorIS2_EEE21__on_zero_shared_weakEv, symObjAddr: 0x2EC, symBinAddr: 0x10284, symSize: 0x4 }
  - { offsetInCU: 0x8A32, offset: 0x11E4AA, size: 0x8, addend: 0x0, symName: __ZNSt3__120__shared_ptr_pointerIPN4grpc7ChannelENS_10shared_ptrIS2_E27__shared_ptr_default_deleteIS2_S2_EENS_9allocatorIS2_EEE21__on_zero_shared_weakEv, symObjAddr: 0x2EC, symBinAddr: 0x10284, symSize: 0x4 }
  - { offsetInCU: 0x255E, offset: 0x120A69, size: 0x8, addend: 0x0, symName: __ZN4grpc12_GLOBAL__N_110g_ctp_implE, symObjAddr: 0x3D0, symBinAddr: 0x49008, symSize: 0x0 }
  - { offsetInCU: 0x256C, offset: 0x120A77, size: 0x8, addend: 0x0, symName: __ZN4grpc12_GLOBAL__N_127CreateDefaultThreadPoolImplEv, symObjAddr: 0x18, symBinAddr: 0x102A0, symSize: 0x68 }
  - { offsetInCU: 0x2632, offset: 0x120B3D, size: 0x8, addend: 0x0, symName: __ZN4grpc23CreateDefaultThreadPoolEv, symObjAddr: 0x0, symBinAddr: 0x10288, symSize: 0xC }
  - { offsetInCU: 0x265D, offset: 0x120B68, size: 0x8, addend: 0x0, symName: __ZN4grpc19SetCreateThreadPoolEPFPNS_19ThreadPoolInterfaceEvE, symObjAddr: 0xC, symBinAddr: 0x10294, symSize: 0xC }
  - { offsetInCU: 0x2A27, offset: 0x120F32, size: 0x8, addend: 0x0, symName: __ZN4absl12lts_2024011622internal_any_invocable13RemoteInvokerILb0EvRNSt3__18functionIFvvEEEJEEET0_PNS1_15TypeErasedStateEDpNS1_18ForwardedParameterIT2_E4typeE, symObjAddr: 0x210, symBinAddr: 0x10440, symSize: 0x28 }
  - { offsetInCU: 0x2B17, offset: 0x121022, size: 0x8, addend: 0x0, symName: __ZN4absl12lts_2024011622internal_any_invocable23RemoteManagerNontrivialINSt3__18functionIFvvEEEEEvNS1_14FunctionToCallEPNS1_15TypeErasedStateES9_, symObjAddr: 0x238, symBinAddr: 0x10468, symSize: 0x64 }
  - { offsetInCU: 0x2C22, offset: 0x12112D, size: 0x8, addend: 0x0, symName: __ZN4absl12lts_2024011622internal_any_invocable23RemoteManagerNontrivialINSt3__18functionIFvvEEEEEvNS1_14FunctionToCallEPNS1_15TypeErasedStateES9_, symObjAddr: 0x238, symBinAddr: 0x10468, symSize: 0x64 }
  - { offsetInCU: 0x539B, offset: 0x1238A6, size: 0x8, addend: 0x0, symName: __ZN4grpc17DynamicThreadPoolD1Ev, symObjAddr: 0x80, symBinAddr: 0x10308, symSize: 0x28 }
  - { offsetInCU: 0x547B, offset: 0x123986, size: 0x8, addend: 0x0, symName: __ZN4grpc17DynamicThreadPoolD0Ev, symObjAddr: 0xA8, symBinAddr: 0x10330, symSize: 0x28 }
  - { offsetInCU: 0x570B, offset: 0x123C16, size: 0x8, addend: 0x0, symName: __ZN4grpc17DynamicThreadPool3AddERKNSt3__18functionIFvvEEE, symObjAddr: 0xD0, symBinAddr: 0x10358, symSize: 0x88 }
  - { offsetInCU: 0x59A1, offset: 0x123EAC, size: 0x8, addend: 0x0, symName: __ZN4absl12lts_2024011622internal_any_invocable8CoreImplILb0EvJEE23InitializeRemoteManagerINSt3__18functionIFvvEEEJRKS8_ELi0EEEvDpOT0_, symObjAddr: 0x1B0, symBinAddr: 0x103E0, symSize: 0x60 }
  - { offsetInCU: 0x5B21, offset: 0x12402C, size: 0x8, addend: 0x0, symName: __ZNSt3__110__function12__value_funcIFvvEEC2B8ue170006ERKS3_, symObjAddr: 0x29C, symBinAddr: 0x104CC, symSize: 0x64 }
  - { offsetInCU: 0xF4, offset: 0x12428D, size: 0x8, addend: 0x0, symName: __ZN4grpc12_GLOBAL__N_122kHealthCheckMethodNameE, symObjAddr: 0xD43E, symBinAddr: 0x357A8, symSize: 0x0 }
  - { offsetInCU: 0x10E, offset: 0x1242A7, size: 0x8, addend: 0x0, symName: __ZN4grpc12_GLOBAL__N_122kHealthWatchMethodNameE, symObjAddr: 0xD45B, symBinAddr: 0x357C5, symSize: 0x0 }
  - { offsetInCU: 0x1780, offset: 0x125919, size: 0x8, addend: 0x0, symName: __ZN4grpc8internalL22kBinaryErrorDetailsKeyE, symObjAddr: 0xDBD5, symBinAddr: 0x35D77, symSize: 0x0 }
  - { offsetInCU: 0x2092, offset: 0x12622B, size: 0x8, addend: 0x0, symName: __ZN4grpc8internal21CatchingReactorGetterINS_18ServerUnaryReactorERNSt3__18functionIFPS2_PNS_21CallbackServerContextEPKNS_10ByteBufferEPS8_EEEJS7_SA_SB_EEEPT_OT0_DpOT1_, symObjAddr: 0x5350, symBinAddr: 0x14648, symSize: 0x30 }
  - { offsetInCU: 0x2322, offset: 0x1264BB, size: 0x8, addend: 0x0, symName: __ZN4grpc8internal17FillMetadataArrayERKNSt3__18multimapINS1_12basic_stringIcNS1_11char_traitsIcEENS1_9allocatorIcEEEES8_NS1_4lessIS8_EENS6_INS1_4pairIKS8_S8_EEEEEEPmRSC_, symObjAddr: 0x6C90, symBinAddr: 0x15E20, symSize: 0x1E0 }
  - { offsetInCU: 0x2717, offset: 0x1268B0, size: 0x8, addend: 0x0, symName: __ZN4grpc8internal16CatchingCallbackIRNSt3__18functionIFvbEEEJRbEEEvOT_DpOT0_, symObjAddr: 0x8014, symBinAddr: 0x17114, symSize: 0x4C }
  - { offsetInCU: 0x282B, offset: 0x1269C4, size: 0x8, addend: 0x0, symName: __ZN4grpc8internal21CatchingReactorGetterINS_18ServerWriteReactorINS_10ByteBufferEEERNSt3__18functionIFPS4_PNS_21CallbackServerContextEPKS3_EEEJS9_SB_EEEPT_OT0_DpOT1_, symObjAddr: 0x8EF0, symBinAddr: 0x17FF0, symSize: 0x2C }
  - { offsetInCU: 0x1A946, offset: 0x13EADF, size: 0x8, addend: 0x0, symName: __ZNSt3__1L19piecewise_constructE, symObjAddr: 0xD718, symBinAddr: 0x359FA, symSize: 0x0 }
  - { offsetInCU: 0x24B1F, offset: 0x148CB8, size: 0x8, addend: 0x0, symName: __ZNSt3__119__allocate_at_leastB8ue170006INS_9allocatorINS_10unique_ptrIN4grpc8internal16RpcServiceMethodENS_14default_deleteIS5_EEEEEEEENS_19__allocation_resultINS_16allocator_traitsIT_E7pointerEEERSC_m, symObjAddr: 0x2DE4, symBinAddr: 0x132C8, symSize: 0x34 }
  - { offsetInCU: 0x2ABE3, offset: 0x14ED7C, size: 0x8, addend: 0x0, symName: __ZN4absl12lts_2024011622internal_any_invocable12EmptyManagerENS1_14FunctionToCallEPNS1_15TypeErasedStateES4_, symObjAddr: 0x7D94, symBinAddr: 0x16F24, symSize: 0x4 }
  - { offsetInCU: 0x2D64C, offset: 0x1517E5, size: 0x8, addend: 0x0, symName: __ZN4grpc25DefaultHealthCheckService22HealthCheckServiceImpl12WatchReactorC1EPS1_PKNS_10ByteBufferE, symObjAddr: 0x1F54, symBinAddr: 0x124AC, symSize: 0x4 }
  - { offsetInCU: 0x2D699, offset: 0x151832, size: 0x8, addend: 0x0, symName: __ZN4grpc25DefaultHealthCheckService22HealthCheckServiceImpl12WatchReactorC1EPS1_PKNS_10ByteBufferE, symObjAddr: 0x1F54, symBinAddr: 0x124AC, symSize: 0x4 }
  - { offsetInCU: 0x2D748, offset: 0x1518E1, size: 0x8, addend: 0x0, symName: __ZN4grpc25DefaultHealthCheckService22HealthCheckServiceImpl12WatchReactor10SendHealthENS0_13ServingStatusE, symObjAddr: 0x4F0, symBinAddr: 0x10A54, symSize: 0x240 }
  - { offsetInCU: 0x2DBA3, offset: 0x151D3C, size: 0x8, addend: 0x0, symName: __ZN4grpc25DefaultHealthCheckService22HealthCheckServiceImpl12WatchReactor16SendHealthLockedENS0_13ServingStatusE, symObjAddr: 0x1FC0, symBinAddr: 0x12518, symSize: 0x300 }
  - { offsetInCU: 0x2EC4F, offset: 0x152DE8, size: 0x8, addend: 0x0, symName: __ZN4grpc25DefaultHealthCheckService22HealthCheckServiceImpl12WatchReactor11OnWriteDoneEb, symObjAddr: 0x22C0, symBinAddr: 0x12818, symSize: 0x22C }
  - { offsetInCU: 0x2F5FF, offset: 0x153798, size: 0x8, addend: 0x0, symName: __ZN4grpc25DefaultHealthCheckService22HealthCheckServiceImpl12WatchReactor6OnDoneEv, symObjAddr: 0x25F0, symBinAddr: 0x12B48, symSize: 0x184 }
  - { offsetInCU: 0x2F970, offset: 0x153B09, size: 0x8, addend: 0x0, symName: __ZN4grpc25DefaultHealthCheckService22HealthCheckServiceImpl12WatchReactor17MaybeFinishLockedENS_6StatusE, symObjAddr: 0x1BC0, symBinAddr: 0x12118, symSize: 0x338 }
  - { offsetInCU: 0x304DD, offset: 0x154676, size: 0x8, addend: 0x0, symName: __ZN4grpc8internal9CallOpSetINS0_25CallOpSendInitialMetadataENS0_8CallNoOpILi2EEENS3_ILi3EEENS3_ILi4EEENS3_ILi5EEENS3_ILi6EEEE32ContinueFillOpsAfterInterceptionEv, symObjAddr: 0x5D48, symBinAddr: 0x14FDC, symSize: 0x118 }
  - { offsetInCU: 0x30674, offset: 0x15480D, size: 0x8, addend: 0x0, symName: __ZN4grpc8internal9CallOpSetINS0_25CallOpSendInitialMetadataENS0_17CallOpSendMessageENS0_22CallOpServerSendStatusENS0_8CallNoOpILi4EEENS5_ILi5EEENS5_ILi6EEEE32ContinueFillOpsAfterInterceptionEv, symObjAddr: 0x7114, symBinAddr: 0x162A4, symSize: 0x138 }
  - { offsetInCU: 0x3082A, offset: 0x1549C3, size: 0x8, addend: 0x0, symName: __ZN4grpc8internal9CallOpSetINS0_25CallOpSendInitialMetadataENS0_17CallOpSendMessageENS0_8CallNoOpILi3EEENS4_ILi4EEENS4_ILi5EEENS4_ILi6EEEE32ContinueFillOpsAfterInterceptionEv, symObjAddr: 0x9A54, symBinAddr: 0x18B54, symSize: 0x128 }
  - { offsetInCU: 0x30E31, offset: 0x154FCA, size: 0x8, addend: 0x0, symName: __ZN4grpc25DefaultHealthCheckService22HealthCheckServiceImplC1EPS0_, symObjAddr: 0xD9C, symBinAddr: 0x11300, symSize: 0x4 }
  - { offsetInCU: 0x30EC0, offset: 0x155059, size: 0x8, addend: 0x0, symName: __ZN4grpc25DefaultHealthCheckService22HealthCheckServiceImplC1EPS0_, symObjAddr: 0xD9C, symBinAddr: 0x11300, symSize: 0x4 }
  - { offsetInCU: 0x311D6, offset: 0x15536F, size: 0x8, addend: 0x0, symName: __ZN4grpc8internal20CallbackUnaryHandlerINS_10ByteBufferES2_E23ServerCallbackUnaryImpl6FinishENS_6StatusE, symObjAddr: 0x5884, symBinAddr: 0x14B18, symSize: 0x1F4 }
  - { offsetInCU: 0x31D83, offset: 0x155F1C, size: 0x8, addend: 0x0, symName: __ZN4grpc8internal20CallbackUnaryHandlerINS_10ByteBufferES2_E23ServerCallbackUnaryImpl19SendInitialMetadataEv, symObjAddr: 0x5A78, symBinAddr: 0x14D0C, symSize: 0x168 }
  - { offsetInCU: 0x32324, offset: 0x1564BD, size: 0x8, addend: 0x0, symName: __ZN4grpc8internal20CallbackUnaryHandlerINS_10ByteBufferES2_E10RunHandlerERKNS0_13MethodHandler16HandlerParameterE, symObjAddr: 0x4F00, symBinAddr: 0x141F8, symSize: 0x298 }
  - { offsetInCU: 0x33420, offset: 0x1575B9, size: 0x8, addend: 0x0, symName: __ZN4grpc8internal30CallbackServerStreamingHandlerINS_10ByteBufferES2_E24ServerCallbackWriterImpl6FinishENS_6StatusE, symObjAddr: 0x93AC, symBinAddr: 0x184AC, symSize: 0x168 }
  - { offsetInCU: 0x3397F, offset: 0x157B18, size: 0x8, addend: 0x0, symName: __ZN4grpc8internal30CallbackServerStreamingHandlerINS_10ByteBufferES2_E24ServerCallbackWriterImpl19SendInitialMetadataEv, symObjAddr: 0x9514, symBinAddr: 0x18614, symSize: 0x168 }
  - { offsetInCU: 0x33F2D, offset: 0x1580C6, size: 0x8, addend: 0x0, symName: __ZN4grpc8internal30CallbackServerStreamingHandlerINS_10ByteBufferES2_E10RunHandlerERKNS0_13MethodHandler16HandlerParameterE, symObjAddr: 0x8AE0, symBinAddr: 0x17BE0, symSize: 0x290 }
  - { offsetInCU: 0x34D2F, offset: 0x158EC8, size: 0x8, addend: 0x0, symName: __ZN4grpc8internal30CallbackServerStreamingHandlerINS_10ByteBufferES2_E24ServerCallbackWriterImpl12SetupReactorEPNS_18ServerWriteReactorIS2_EE, symObjAddr: 0x8F1C, symBinAddr: 0x1801C, symSize: 0x15C }
  - { offsetInCU: 0x37739, offset: 0x15B8D2, size: 0x8, addend: 0x0, symName: __ZN4grpc25DefaultHealthCheckServiceC2Ev, symObjAddr: 0x0, symBinAddr: 0x10564, symSize: 0x10C }
  - { offsetInCU: 0x37EEE, offset: 0x15C087, size: 0x8, addend: 0x0, symName: __ZNSt3__16__treeINS_12__value_typeINS_12basic_stringIcNS_11char_traitsIcEENS_9allocatorIcEEEEN4grpc25DefaultHealthCheckService11ServiceDataEEENS_19__map_value_compareIS7_SB_NS_4lessIS7_EELb1EEENS5_ISB_EEE7destroyEPNS_11__tree_nodeISB_PvEE, symObjAddr: 0x3F48, symBinAddr: 0x1380C, symSize: 0x4C }
  - { offsetInCU: 0x37F19, offset: 0x15C0B2, size: 0x8, addend: 0x0, symName: __ZNSt3__16__treeINS_12__value_typeINS_12basic_stringIcNS_11char_traitsIcEENS_9allocatorIcEEEEN4grpc25DefaultHealthCheckService11ServiceDataEEENS_19__map_value_compareIS7_SB_NS_4lessIS7_EELb1EEENS5_ISB_EEE25__emplace_unique_key_argsIS7_JRKNS_21piecewise_construct_tENS_5tupleIJOS7_EEENSM_IJEEEEEENS_4pairINS_15__tree_iteratorISB_PNS_11__tree_nodeISB_PvEElEEbEERKT_DpOT0_, symObjAddr: 0x401C, symBinAddr: 0x138E0, symSize: 0xA8 }
  - { offsetInCU: 0x382EB, offset: 0x15C484, size: 0x8, addend: 0x0, symName: __ZN4grpc25DefaultHealthCheckService11ServiceData16SetServingStatusENS0_13ServingStatusE, symObjAddr: 0x10C, symBinAddr: 0x10670, symSize: 0x7C }
  - { offsetInCU: 0x384AD, offset: 0x15C646, size: 0x8, addend: 0x0, symName: __ZNSt3__16__treeINS_12__value_typeINS_12basic_stringIcNS_11char_traitsIcEENS_9allocatorIcEEEEN4grpc25DefaultHealthCheckService11ServiceDataEEENS_19__map_value_compareIS7_SB_NS_4lessIS7_EELb1EEENS5_ISB_EEE7destroyEPNS_11__tree_nodeISB_PvEE, symObjAddr: 0x3F48, symBinAddr: 0x1380C, symSize: 0x4C }
  - { offsetInCU: 0x386E1, offset: 0x15C87A, size: 0x8, addend: 0x0, symName: __ZN4grpc25DefaultHealthCheckServiceC1Ev, symObjAddr: 0x188, symBinAddr: 0x106EC, symSize: 0x4 }
  - { offsetInCU: 0x3870F, offset: 0x15C8A8, size: 0x8, addend: 0x0, symName: __ZN4grpc25DefaultHealthCheckServiceC1Ev, symObjAddr: 0x188, symBinAddr: 0x106EC, symSize: 0x4 }
  - { offsetInCU: 0x387F6, offset: 0x15C98F, size: 0x8, addend: 0x0, symName: __ZN4grpc25DefaultHealthCheckService16SetServingStatusERKNSt3__112basic_stringIcNS1_11char_traitsIcEENS1_9allocatorIcEEEEb, symObjAddr: 0x18C, symBinAddr: 0x106F0, symSize: 0xAC }
  - { offsetInCU: 0x389C8, offset: 0x15CB61, size: 0x8, addend: 0x0, symName: __ZNSt3__16__treeINS_12__value_typeINS_12basic_stringIcNS_11char_traitsIcEENS_9allocatorIcEEEEN4grpc25DefaultHealthCheckService11ServiceDataEEENS_19__map_value_compareIS7_SB_NS_4lessIS7_EELb1EEENS5_ISB_EEE25__emplace_unique_key_argsIS7_JRKNS_21piecewise_construct_tENS_5tupleIJRKS7_EEENSM_IJEEEEEENS_4pairINS_15__tree_iteratorISB_PNS_11__tree_nodeISB_PvEElEEbEERKT_DpOT0_, symObjAddr: 0x43F8, symBinAddr: 0x13ABC, symSize: 0x94 }
  - { offsetInCU: 0x38C1B, offset: 0x15CDB4, size: 0x8, addend: 0x0, symName: __ZN4grpc25DefaultHealthCheckService16SetServingStatusEb, symObjAddr: 0x238, symBinAddr: 0x1079C, symSize: 0xBC }
  - { offsetInCU: 0x38F3C, offset: 0x15D0D5, size: 0x8, addend: 0x0, symName: __ZN4grpc25DefaultHealthCheckService8ShutdownEv, symObjAddr: 0x2F4, symBinAddr: 0x10858, symSize: 0xB8 }
  - { offsetInCU: 0x392C0, offset: 0x15D459, size: 0x8, addend: 0x0, symName: __ZNK4grpc25DefaultHealthCheckService16GetServingStatusERKNSt3__112basic_stringIcNS1_11char_traitsIcEENS1_9allocatorIcEEEE, symObjAddr: 0x3AC, symBinAddr: 0x10910, symSize: 0x80 }
  - { offsetInCU: 0x394DD, offset: 0x15D676, size: 0x8, addend: 0x0, symName: __ZNKSt3__16__treeINS_12__value_typeINS_12basic_stringIcNS_11char_traitsIcEENS_9allocatorIcEEEEN4grpc25DefaultHealthCheckService11ServiceDataEEENS_19__map_value_compareIS7_SB_NS_4lessIS7_EELb1EEENS5_ISB_EEE4findIS7_EENS_21__tree_const_iteratorISB_PNS_11__tree_nodeISB_PvEElEERKT_, symObjAddr: 0x453C, symBinAddr: 0x13C00, symSize: 0x8C }
  - { offsetInCU: 0x396B4, offset: 0x15D84D, size: 0x8, addend: 0x0, symName: __ZN4grpc25DefaultHealthCheckService13RegisterWatchERKNSt3__112basic_stringIcNS1_11char_traitsIcEENS1_9allocatorIcEEEEN9grpc_core13RefCountedPtrINS0_22HealthCheckServiceImpl12WatchReactorEEE, symObjAddr: 0x42C, symBinAddr: 0x10990, symSize: 0xC4 }
  - { offsetInCU: 0x3998E, offset: 0x15DB27, size: 0x8, addend: 0x0, symName: __ZN4grpc25DefaultHealthCheckService11ServiceData8AddWatchEN9grpc_core13RefCountedPtrINS0_22HealthCheckServiceImpl12WatchReactorEEE, symObjAddr: 0x730, symBinAddr: 0x10C94, symSize: 0x5C }
  - { offsetInCU: 0x39A44, offset: 0x15DBDD, size: 0x8, addend: 0x0, symName: __ZN9grpc_core13RefCountedPtrIN4grpc25DefaultHealthCheckService22HealthCheckServiceImpl12WatchReactorEED2Ev, symObjAddr: 0x45C8, symBinAddr: 0x13C8C, symSize: 0x4C }
  - { offsetInCU: 0x39C35, offset: 0x15DDCE, size: 0x8, addend: 0x0, symName: __ZN4absl12lts_2024011612log_internal10LogMessagelsIPN4grpc25DefaultHealthCheckService22HealthCheckServiceImplELi0EEERS2_RKT_, symObjAddr: 0x1AF0, symBinAddr: 0x12048, symSize: 0x68 }
  - { offsetInCU: 0x39CAA, offset: 0x15DE43, size: 0x8, addend: 0x0, symName: __ZN4absl12lts_2024011612log_internal10LogMessagelsIPN4grpc25DefaultHealthCheckService22HealthCheckServiceImpl12WatchReactorELi0EEERS2_RKT_, symObjAddr: 0x1B58, symBinAddr: 0x120B0, symSize: 0x68 }
  - { offsetInCU: 0x39D2B, offset: 0x15DEC4, size: 0x8, addend: 0x0, symName: __ZN4absl12lts_2024011612log_internal10LogMessagelsIN4grpc25DefaultHealthCheckService13ServingStatusELi0EEERS2_RKT_, symObjAddr: 0x1F58, symBinAddr: 0x124B0, symSize: 0x68 }
  - { offsetInCU: 0x39DDA, offset: 0x15DF73, size: 0x8, addend: 0x0, symName: __ZNSt3__16__treeINS_12__value_typeIPN4grpc25DefaultHealthCheckService22HealthCheckServiceImpl12WatchReactorEN9grpc_core13RefCountedPtrIS5_EEEENS_19__map_value_compareIS6_SA_NS_4lessIS6_EELb1EEENS_9allocatorISA_EEE25__emplace_unique_key_argsIS6_JRKNS_21piecewise_construct_tENS_5tupleIJOS6_EEENSM_IJEEEEEENS_4pairINS_15__tree_iteratorISA_PNS_11__tree_nodeISA_PvEElEEbEERKT_DpOT0_, symObjAddr: 0x4ADC, symBinAddr: 0x13E1C, symSize: 0xE0 }
  - { offsetInCU: 0x3A200, offset: 0x15E399, size: 0x8, addend: 0x0, symName: __ZN9grpc_core13RefCountedPtrIN4grpc25DefaultHealthCheckService22HealthCheckServiceImpl12WatchReactorEEaSEOS5_, symObjAddr: 0x8EC, symBinAddr: 0x10E50, symSize: 0x58 }
  - { offsetInCU: 0x3A3D5, offset: 0x15E56E, size: 0x8, addend: 0x0, symName: __ZN4grpc25DefaultHealthCheckService15UnregisterWatchERKNSt3__112basic_stringIcNS1_11char_traitsIcEENS1_9allocatorIcEEEEPNS0_22HealthCheckServiceImpl12WatchReactorE, symObjAddr: 0x78C, symBinAddr: 0x10CF0, symSize: 0xBC }
  - { offsetInCU: 0x3A6D5, offset: 0x15E86E, size: 0x8, addend: 0x0, symName: __ZNSt3__16__treeINS_12__value_typeINS_12basic_stringIcNS_11char_traitsIcEENS_9allocatorIcEEEEN4grpc25DefaultHealthCheckService11ServiceDataEEENS_19__map_value_compareIS7_SB_NS_4lessIS7_EELb1EEENS5_ISB_EEE4findIS7_EENS_15__tree_iteratorISB_PNS_11__tree_nodeISB_PvEElEERKT_, symObjAddr: 0x4614, symBinAddr: 0x13CD8, symSize: 0x8C }
  - { offsetInCU: 0x3A828, offset: 0x15E9C1, size: 0x8, addend: 0x0, symName: __ZNSt3__16__treeINS_12__value_typeIPN4grpc25DefaultHealthCheckService22HealthCheckServiceImpl12WatchReactorEN9grpc_core13RefCountedPtrIS5_EEEENS_19__map_value_compareIS6_SA_NS_4lessIS6_EELb1EEENS_9allocatorISA_EEE14__erase_uniqueIS6_EEmRKT_, symObjAddr: 0x4C54, symBinAddr: 0x13F94, symSize: 0x80 }
  - { offsetInCU: 0x3AB1D, offset: 0x15ECB6, size: 0x8, addend: 0x0, symName: __ZNSt3__16__treeINS_12__value_typeINS_12basic_stringIcNS_11char_traitsIcEENS_9allocatorIcEEEEN4grpc25DefaultHealthCheckService11ServiceDataEEENS_19__map_value_compareIS7_SB_NS_4lessIS7_EELb1EEENS5_ISB_EEE5eraseENS_21__tree_const_iteratorISB_PNS_11__tree_nodeISB_PvEElEE, symObjAddr: 0x46A0, symBinAddr: 0x13D64, symSize: 0x48 }
  - { offsetInCU: 0x3ACB0, offset: 0x15EE49, size: 0x8, addend: 0x0, symName: __ZN4grpc25DefaultHealthCheckService11ServiceData11RemoveWatchEPNS0_22HealthCheckServiceImpl12WatchReactorE, symObjAddr: 0x848, symBinAddr: 0x10DAC, symSize: 0x28 }
  - { offsetInCU: 0x3AD9B, offset: 0x15EF34, size: 0x8, addend: 0x0, symName: __ZN4grpc25DefaultHealthCheckService21GetHealthCheckServiceEv, symObjAddr: 0x870, symBinAddr: 0x10DD4, symSize: 0x7C }
  - { offsetInCU: 0x3AEF1, offset: 0x15F08A, size: 0x8, addend: 0x0, symName: __ZN4grpc25DefaultHealthCheckService22HealthCheckServiceImplC2EPS0_, symObjAddr: 0x944, symBinAddr: 0x10EA8, symSize: 0x298 }
  - { offsetInCU: 0x3B9B0, offset: 0x15FB49, size: 0x8, addend: 0x0, symName: __ZN4grpc25DefaultHealthCheckService21GetHealthCheckServiceEv.cold.1, symObjAddr: 0xA600, symBinAddr: 0x319D4, symSize: 0x28 }
  - { offsetInCU: 0x3BA50, offset: 0x15FBE9, size: 0x8, addend: 0x0, symName: __ZN9grpc_core8RefCount5UnrefEv, symObjAddr: 0xA4E8, symBinAddr: 0x195E8, symSize: 0x118 }
  - { offsetInCU: 0x3C551, offset: 0x1606EA, size: 0x8, addend: 0x0, symName: __ZN4grpc7Service9AddMethodEPNS_8internal16RpcServiceMethodE, symObjAddr: 0xBDC, symBinAddr: 0x11140, symSize: 0x104 }
  - { offsetInCU: 0x3CAB6, offset: 0x160C4F, size: 0x8, addend: 0x0, symName: __ZN4grpc7Service18MarkMethodCallbackEiPNS_8internal13MethodHandlerE, symObjAddr: 0xCE0, symBinAddr: 0x11244, symSize: 0xBC }
  - { offsetInCU: 0x3CAC2, offset: 0x160C5B, size: 0x8, addend: 0x0, symName: __ZNSt3__110__function12__value_funcIFPN4grpc18ServerUnaryReactorEPNS2_21CallbackServerContextEPKNS2_10ByteBufferEPS7_EEC2B8ue170006EOSC_, symObjAddr: 0x52EC, symBinAddr: 0x145E4, symSize: 0x64 }
  - { offsetInCU: 0x3CB11, offset: 0x160CAA, size: 0x8, addend: 0x0, symName: __ZN4grpc7Service18MarkMethodCallbackEiPNS_8internal13MethodHandlerE, symObjAddr: 0xCE0, symBinAddr: 0x11244, symSize: 0xBC }
  - { offsetInCU: 0x3CD3E, offset: 0x160ED7, size: 0x8, addend: 0x0, symName: __ZNSt3__110__function12__value_funcIFPN4grpc18ServerWriteReactorINS2_10ByteBufferEEEPNS2_21CallbackServerContextEPKS4_EEC2B8ue170006EOSC_, symObjAddr: 0x8E8C, symBinAddr: 0x17F8C, symSize: 0x64 }
  - { offsetInCU: 0x3CD9A, offset: 0x160F33, size: 0x8, addend: 0x0, symName: __ZNSt3__16vectorINS_10unique_ptrIN4grpc8internal16RpcServiceMethodENS_14default_deleteIS4_EEEENS_9allocatorIS7_EEE16__destroy_vectorclB8ue170006Ev, symObjAddr: 0x3B8C, symBinAddr: 0x135E4, symSize: 0x74 }
  - { offsetInCU: 0x3D59D, offset: 0x161736, size: 0x8, addend: 0x0, symName: __ZNSt3__114__split_bufferINS_10unique_ptrIN4grpc8internal16RpcServiceMethodENS_14default_deleteIS4_EEEERNS_9allocatorIS7_EEED2Ev, symObjAddr: 0x2E8C, symBinAddr: 0x13348, symSize: 0x50 }
  - { offsetInCU: 0x3D763, offset: 0x1618FC, size: 0x8, addend: 0x0, symName: __ZNKSt3__16vectorINS_10unique_ptrIN4grpc8internal16RpcServiceMethodENS_14default_deleteIS4_EEEENS_9allocatorIS7_EEE20__throw_length_errorB8ue170006Ev, symObjAddr: 0x2D5C, symBinAddr: 0x132B4, symSize: 0x14 }
  - { offsetInCU: 0x3D8C4, offset: 0x161A5D, size: 0x8, addend: 0x0, symName: __ZN4grpc8internal16RpcServiceMethod16SetServerApiTypeENS1_7ApiTypeE, symObjAddr: 0x2F18, symBinAddr: 0x133D4, symSize: 0x13C }
  - { offsetInCU: 0x3DA9A, offset: 0x161C33, size: 0x8, addend: 0x0, symName: __ZN4absl12lts_2024011612log_internal10LogMessagelsILi86EEERS2_RAT__Kc, symObjAddr: 0x2EDC, symBinAddr: 0x13398, symSize: 0x3C }
  - { offsetInCU: 0x3DB52, offset: 0x161CEB, size: 0x8, addend: 0x0, symName: __ZN4grpc25DefaultHealthCheckService22HealthCheckServiceImplD2Ev, symObjAddr: 0xDA0, symBinAddr: 0x11304, symSize: 0xC8 }
  - { offsetInCU: 0x3DE11, offset: 0x161FAA, size: 0x8, addend: 0x0, symName: __ZN4grpc25DefaultHealthCheckService22HealthCheckServiceImplD1Ev, symObjAddr: 0xE74, symBinAddr: 0x113CC, symSize: 0x4 }
  - { offsetInCU: 0x3DE34, offset: 0x161FCD, size: 0x8, addend: 0x0, symName: __ZN4grpc25DefaultHealthCheckService22HealthCheckServiceImplD1Ev, symObjAddr: 0xE74, symBinAddr: 0x113CC, symSize: 0x4 }
  - { offsetInCU: 0x3DE64, offset: 0x161FFD, size: 0x8, addend: 0x0, symName: __ZN4grpc25DefaultHealthCheckService22HealthCheckServiceImplD0Ev, symObjAddr: 0xE78, symBinAddr: 0x113D0, symSize: 0x14 }
  - { offsetInCU: 0x3E048, offset: 0x1621E1, size: 0x8, addend: 0x0, symName: __ZN4grpc25DefaultHealthCheckService22HealthCheckServiceImpl18HandleCheckRequestEPS0_PNS_21CallbackServerContextEPKNS_10ByteBufferEPS5_, symObjAddr: 0xE8C, symBinAddr: 0x113E4, symSize: 0x344 }
  - { offsetInCU: 0x3F1D2, offset: 0x16336B, size: 0x8, addend: 0x0, symName: __ZN4grpc17ServerContextBase14DefaultReactorEv, symObjAddr: 0x11D0, symBinAddr: 0x11728, symSize: 0x88 }
  - { offsetInCU: 0x3F4FE, offset: 0x163697, size: 0x8, addend: 0x0, symName: __ZN4grpc25DefaultHealthCheckService22HealthCheckServiceImpl13DecodeRequestERKNS_10ByteBufferEPNSt3__112basic_stringIcNS5_11char_traitsIcEENS5_9allocatorIcEEEE, symObjAddr: 0x1258, symBinAddr: 0x117B0, symSize: 0x208 }
  - { offsetInCU: 0x3F50A, offset: 0x1636A3, size: 0x8, addend: 0x0, symName: __ZN4grpc25DefaultHealthCheckService22HealthCheckServiceImpl13DecodeRequestERKNS_10ByteBufferEPNSt3__112basic_stringIcNS5_11char_traitsIcEENS5_9allocatorIcEEEE, symObjAddr: 0x1258, symBinAddr: 0x117B0, symSize: 0x208 }
  - { offsetInCU: 0x3FB7F, offset: 0x163D18, size: 0x8, addend: 0x0, symName: __ZN4grpc25DefaultHealthCheckService22HealthCheckServiceImpl14EncodeResponseENS0_13ServingStatusEPNS_10ByteBufferE, symObjAddr: 0x15FC, symBinAddr: 0x11B54, symSize: 0x1CC }
  - { offsetInCU: 0x40240, offset: 0x1643D9, size: 0x8, addend: 0x0, symName: __ZN4grpc18ServerUnaryReactor6FinishENS_6StatusE, symObjAddr: 0x1460, symBinAddr: 0x119B8, symSize: 0x15C }
  - { offsetInCU: 0x40AC0, offset: 0x164C59, size: 0x8, addend: 0x0, symName: __ZN4grpc6StatusD1Ev, symObjAddr: 0x15BC, symBinAddr: 0x11B14, symSize: 0x40 }
  - { offsetInCU: 0x40F67, offset: 0x165100, size: 0x8, addend: 0x0, symName: __ZN4grpc17ServerContextBase14DefaultReactorEv.cold.1, symObjAddr: 0xA628, symBinAddr: 0x319FC, symSize: 0x28 }
  - { offsetInCU: 0x41AA7, offset: 0x165C40, size: 0x8, addend: 0x0, symName: __ZN4grpc10ByteBufferD2Ev, symObjAddr: 0x3E68, symBinAddr: 0x137D4, symSize: 0x30 }
  - { offsetInCU: 0x41E2C, offset: 0x165FC5, size: 0x8, addend: 0x0, symName: __ZN4grpc25DefaultHealthCheckService22HealthCheckServiceImpl12WatchReactorC2EPS1_PKNS_10ByteBufferE, symObjAddr: 0x17C8, symBinAddr: 0x11D20, symSize: 0x328 }
  - { offsetInCU: 0x42D6B, offset: 0x166F04, size: 0x8, addend: 0x0, symName: __ZN9grpc_core8RefCount3RefEl, symObjAddr: 0xA2DC, symBinAddr: 0x193DC, symSize: 0x100 }
  - { offsetInCU: 0x42EE7, offset: 0x167080, size: 0x8, addend: 0x0, symName: __ZN4grpc18ServerWriteReactorINS_10ByteBufferEED2Ev, symObjAddr: 0x1EF8, symBinAddr: 0x12450, symSize: 0x5C }
  - { offsetInCU: 0x432F2, offset: 0x16748B, size: 0x8, addend: 0x0, symName: __ZN4grpc18ServerWriteReactorINS_10ByteBufferEE6FinishENS_6StatusE, symObjAddr: 0x27DC, symBinAddr: 0x12D34, symSize: 0x15C }
  - { offsetInCU: 0x43B7E, offset: 0x167D17, size: 0x8, addend: 0x0, symName: __ZN4absl12lts_2024011612log_internal10LogMessagelsIN4grpc10StatusCodeELi0EEERS2_RKT_, symObjAddr: 0x2774, symBinAddr: 0x12CCC, symSize: 0x68 }
  - { offsetInCU: 0x43C81, offset: 0x167E1A, size: 0x8, addend: 0x0, symName: __ZN4grpc18ServerWriteReactorINS_10ByteBufferEE10StartWriteEPKS1_NS_12WriteOptionsE, symObjAddr: 0xA444, symBinAddr: 0x19544, symSize: 0xA4 }
  - { offsetInCU: 0x43EDB, offset: 0x168074, size: 0x8, addend: 0x0, symName: __ZN4grpc25DefaultHealthCheckService22HealthCheckServiceImpl12WatchReactor8OnCancelEv, symObjAddr: 0x24EC, symBinAddr: 0x12A44, symSize: 0x104 }
  - { offsetInCU: 0x44735, offset: 0x1688CE, size: 0x8, addend: 0x0, symName: __ZN4grpc25DefaultHealthCheckServiceD1Ev, symObjAddr: 0x2938, symBinAddr: 0x12E90, symSize: 0x50 }
  - { offsetInCU: 0x44913, offset: 0x168AAC, size: 0x8, addend: 0x0, symName: __ZN4grpc25DefaultHealthCheckServiceD0Ev, symObjAddr: 0x2988, symBinAddr: 0x12EE0, symSize: 0x50 }
  - { offsetInCU: 0x44B13, offset: 0x168CAC, size: 0x8, addend: 0x0, symName: __ZN4grpc25DefaultHealthCheckService22HealthCheckServiceImpl12WatchReactorD1Ev, symObjAddr: 0x29D8, symBinAddr: 0x12F30, symSize: 0x58 }
  - { offsetInCU: 0x44D1D, offset: 0x168EB6, size: 0x8, addend: 0x0, symName: __ZN4grpc25DefaultHealthCheckService22HealthCheckServiceImpl12WatchReactorD0Ev, symObjAddr: 0x2A30, symBinAddr: 0x12F88, symSize: 0x5C }
  - { offsetInCU: 0x44F1B, offset: 0x1690B4, size: 0x8, addend: 0x0, symName: __ZN4grpc8internal13ServerReactor18InternalInlineableEv, symObjAddr: 0x2A8C, symBinAddr: 0x12FE4, symSize: 0x8 }
  - { offsetInCU: 0x44F42, offset: 0x1690DB, size: 0x8, addend: 0x0, symName: __ZN4grpc18ServerWriteReactorINS_10ByteBufferEE25OnSendInitialMetadataDoneEb, symObjAddr: 0x2A94, symBinAddr: 0x12FEC, symSize: 0x4 }
  - { offsetInCU: 0x44FAD, offset: 0x169146, size: 0x8, addend: 0x0, symName: __ZN4grpc18ServerWriteReactorINS_10ByteBufferEE18InternalBindWriterEPNS_20ServerCallbackWriterIS1_EE, symObjAddr: 0x2A98, symBinAddr: 0x12FF0, symSize: 0x17C }
  - { offsetInCU: 0x453A7, offset: 0x169540, size: 0x8, addend: 0x0, symName: __ZThn160_N4grpc25DefaultHealthCheckService22HealthCheckServiceImpl12WatchReactorD1Ev, symObjAddr: 0x2C14, symBinAddr: 0x1316C, symSize: 0x58 }
  - { offsetInCU: 0x455C1, offset: 0x16975A, size: 0x8, addend: 0x0, symName: __ZThn160_N4grpc25DefaultHealthCheckService22HealthCheckServiceImpl12WatchReactorD0Ev, symObjAddr: 0x2C6C, symBinAddr: 0x131C4, symSize: 0x5C }
  - { offsetInCU: 0x457CF, offset: 0x169968, size: 0x8, addend: 0x0, symName: __ZN4grpc7ServiceD1Ev, symObjAddr: 0x2CC8, symBinAddr: 0x13220, symSize: 0x48 }
  - { offsetInCU: 0x458C2, offset: 0x169A5B, size: 0x8, addend: 0x0, symName: __ZN4grpc7ServiceD0Ev, symObjAddr: 0x2D10, symBinAddr: 0x13268, symSize: 0x4C }
  - { offsetInCU: 0x45AD7, offset: 0x169C70, size: 0x8, addend: 0x0, symName: __ZNSt3__110unique_ptrIN4grpc8internal16RpcServiceMethodENS_14default_deleteIS3_EEE5resetB8ue170006EPS3_, symObjAddr: 0x2E40, symBinAddr: 0x132FC, symSize: 0x4C }
  - { offsetInCU: 0x45E61, offset: 0x169FFA, size: 0x8, addend: 0x0, symName: __ZN4absl12lts_2024011612log_internal10LogMessagelsIPKcLi0EEERS2_RKT_, symObjAddr: 0x3AB8, symBinAddr: 0x13510, symSize: 0x98 }
  - { offsetInCU: 0x45F6D, offset: 0x16A106, size: 0x8, addend: 0x0, symName: __ZN4grpc8internal16RpcServiceMethod12TypeToStringENS1_7ApiTypeE, symObjAddr: 0x3B50, symBinAddr: 0x135A8, symSize: 0x3C }
  - { offsetInCU: 0x45FA6, offset: 0x16A13F, size: 0x8, addend: 0x0, symName: __ZNSt3__16vectorINS_10unique_ptrIN4grpc8internal16RpcServiceMethodENS_14default_deleteIS4_EEEENS_9allocatorIS7_EEE16__destroy_vectorclB8ue170006Ev, symObjAddr: 0x3B8C, symBinAddr: 0x135E4, symSize: 0x74 }
  - { offsetInCU: 0x466F2, offset: 0x16A88B, size: 0x8, addend: 0x0, symName: __ZN4grpc17ServerContextBase7ReactorD1Ev, symObjAddr: 0x3C00, symBinAddr: 0x13658, symSize: 0x4 }
  - { offsetInCU: 0x46714, offset: 0x16A8AD, size: 0x8, addend: 0x0, symName: __ZN4grpc17ServerContextBase7ReactorD1Ev, symObjAddr: 0x3C00, symBinAddr: 0x13658, symSize: 0x4 }
  - { offsetInCU: 0x46732, offset: 0x16A8CB, size: 0x8, addend: 0x0, symName: __ZN4grpc17ServerContextBase7ReactorD1Ev, symObjAddr: 0x3C00, symBinAddr: 0x13658, symSize: 0x4 }
  - { offsetInCU: 0x46746, offset: 0x16A8DF, size: 0x8, addend: 0x0, symName: __ZN4grpc18ServerUnaryReactorD2Ev, symObjAddr: 0x3D28, symBinAddr: 0x13778, symSize: 0x5C }
  - { offsetInCU: 0x46AC3, offset: 0x16AC5C, size: 0x8, addend: 0x0, symName: __ZN4grpc17ServerContextBase7ReactorD0Ev, symObjAddr: 0x3C04, symBinAddr: 0x1365C, symSize: 0x14 }
  - { offsetInCU: 0x46B40, offset: 0x16ACD9, size: 0x8, addend: 0x0, symName: __ZN4grpc17ServerContextBase7Reactor6OnDoneEv, symObjAddr: 0x3C18, symBinAddr: 0x13670, symSize: 0x4 }
  - { offsetInCU: 0x46B65, offset: 0x16ACFE, size: 0x8, addend: 0x0, symName: __ZN4grpc17ServerContextBase7Reactor8OnCancelEv, symObjAddr: 0x3C1C, symBinAddr: 0x13674, symSize: 0x4 }
  - { offsetInCU: 0x46B8A, offset: 0x16AD23, size: 0x8, addend: 0x0, symName: __ZN4grpc17ServerContextBase7Reactor18InternalInlineableEv, symObjAddr: 0x3C20, symBinAddr: 0x13678, symSize: 0x8 }
  - { offsetInCU: 0x46BB1, offset: 0x16AD4A, size: 0x8, addend: 0x0, symName: __ZN4grpc18ServerUnaryReactor25OnSendInitialMetadataDoneEb, symObjAddr: 0x3C28, symBinAddr: 0x13680, symSize: 0x4 }
  - { offsetInCU: 0x46C12, offset: 0x16ADAB, size: 0x8, addend: 0x0, symName: __ZN4grpc18ServerUnaryReactor16InternalBindCallEPNS_19ServerCallbackUnaryE, symObjAddr: 0x3C2C, symBinAddr: 0x13684, symSize: 0xF0 }
  - { offsetInCU: 0x46F05, offset: 0x16B09E, size: 0x8, addend: 0x0, symName: __ZN4grpc18ServerUnaryReactorD1Ev, symObjAddr: 0x3D1C, symBinAddr: 0x319C4, symSize: 0x4 }
  - { offsetInCU: 0x46F2E, offset: 0x16B0C7, size: 0x8, addend: 0x0, symName: __ZN4grpc18ServerUnaryReactorD0Ev, symObjAddr: 0x3D20, symBinAddr: 0x319C8, symSize: 0x4 }
  - { offsetInCU: 0x46F57, offset: 0x16B0F0, size: 0x8, addend: 0x0, symName: __ZN4grpc18ServerUnaryReactor8OnCancelEv, symObjAddr: 0x3D24, symBinAddr: 0x13774, symSize: 0x4 }
  - { offsetInCU: 0x4704F, offset: 0x16B1E8, size: 0x8, addend: 0x0, symName: __ZN4grpc18ServerWriteReactorINS_10ByteBufferEED1Ev, symObjAddr: 0x3E98, symBinAddr: 0x319CC, symSize: 0x4 }
  - { offsetInCU: 0x47078, offset: 0x16B211, size: 0x8, addend: 0x0, symName: __ZN4grpc18ServerWriteReactorINS_10ByteBufferEED0Ev, symObjAddr: 0x3E9C, symBinAddr: 0x319D0, symSize: 0x4 }
  - { offsetInCU: 0x470A1, offset: 0x16B23A, size: 0x8, addend: 0x0, symName: __ZN4grpc18ServerWriteReactorINS_10ByteBufferEE8OnCancelEv, symObjAddr: 0x3EA0, symBinAddr: 0x13804, symSize: 0x4 }
  - { offsetInCU: 0x470C6, offset: 0x16B25F, size: 0x8, addend: 0x0, symName: __ZN4grpc18ServerWriteReactorINS_10ByteBufferEE11OnWriteDoneEb, symObjAddr: 0x3EA4, symBinAddr: 0x13808, symSize: 0x4 }
  - { offsetInCU: 0x471BB, offset: 0x16B354, size: 0x8, addend: 0x0, symName: __ZNSt3__116allocator_traitsINS_9allocatorINS_11__tree_nodeINS_12__value_typeINS_12basic_stringIcNS_11char_traitsIcEENS1_IcEEEEN4grpc25DefaultHealthCheckService11ServiceDataEEEPvEEEEE7destroyB8ue170006INS_4pairIKS8_SB_EEvvEEvRSF_PT_, symObjAddr: 0x3F94, symBinAddr: 0x13858, symSize: 0x40 }
  - { offsetInCU: 0x474F7, offset: 0x16B690, size: 0x8, addend: 0x0, symName: __ZNSt3__16__treeINS_12__value_typeIPN4grpc25DefaultHealthCheckService22HealthCheckServiceImpl12WatchReactorEN9grpc_core13RefCountedPtrIS5_EEEENS_19__map_value_compareIS6_SA_NS_4lessIS6_EELb1EEENS_9allocatorISA_EEE7destroyEPNS_11__tree_nodeISA_PvEE, symObjAddr: 0x3FD4, symBinAddr: 0x13898, symSize: 0x48 }
  - { offsetInCU: 0x47ADB, offset: 0x16BC74, size: 0x8, addend: 0x0, symName: __ZNSt3__16__treeINS_12__value_typeINS_12basic_stringIcNS_11char_traitsIcEENS_9allocatorIcEEEEN4grpc25DefaultHealthCheckService11ServiceDataEEENS_19__map_value_compareIS7_SB_NS_4lessIS7_EELb1EEENS5_ISB_EEE12__find_equalIS7_EERPNS_16__tree_node_baseIPvEERPNS_15__tree_end_nodeISM_EERKT_, symObjAddr: 0x40C4, symBinAddr: 0x13988, symSize: 0x9C }
  - { offsetInCU: 0x47C0A, offset: 0x16BDA3, size: 0x8, addend: 0x0, symName: __ZNSt3__16__treeINS_12__value_typeINS_12basic_stringIcNS_11char_traitsIcEENS_9allocatorIcEEEEN4grpc25DefaultHealthCheckService11ServiceDataEEENS_19__map_value_compareIS7_SB_NS_4lessIS7_EELb1EEENS5_ISB_EEE16__insert_node_atEPNS_15__tree_end_nodeIPNS_16__tree_node_baseIPvEEEERSM_SM_, symObjAddr: 0x4160, symBinAddr: 0x13A24, symSize: 0x54 }
  - { offsetInCU: 0x47EE5, offset: 0x16C07E, size: 0x8, addend: 0x0, symName: __ZNSt3__122__tree_node_destructorINS_9allocatorINS_11__tree_nodeINS_12__value_typeINS_12basic_stringIcNS_11char_traitsIcEENS1_IcEEEEN4grpc25DefaultHealthCheckService11ServiceDataEEEPvEEEEEclB8ue170006EPSE_, symObjAddr: 0x43B4, symBinAddr: 0x13A78, symSize: 0x44 }
  - { offsetInCU: 0x48037, offset: 0x16C1D0, size: 0x8, addend: 0x0, symName: __ZNSt3__16__treeINS_12__value_typeINS_12basic_stringIcNS_11char_traitsIcEENS_9allocatorIcEEEEN4grpc25DefaultHealthCheckService11ServiceDataEEENS_19__map_value_compareIS7_SB_NS_4lessIS7_EELb1EEENS5_ISB_EEE16__construct_nodeIJRKNS_21piecewise_construct_tENS_5tupleIJRKS7_EEENSM_IJEEEEEENS_10unique_ptrINS_11__tree_nodeISB_PvEENS_22__tree_node_destructorINS5_ISU_EEEEEEDpOT_, symObjAddr: 0x448C, symBinAddr: 0x13B50, symSize: 0xB0 }
  - { offsetInCU: 0x48918, offset: 0x16CAB1, size: 0x8, addend: 0x0, symName: __ZNSt3__16__treeINS_12__value_typeINS_12basic_stringIcNS_11char_traitsIcEENS_9allocatorIcEEEEN4grpc25DefaultHealthCheckService11ServiceDataEEENS_19__map_value_compareIS7_SB_NS_4lessIS7_EELb1EEENS5_ISB_EEE21__remove_node_pointerEPNS_11__tree_nodeISB_PvEE, symObjAddr: 0x46E8, symBinAddr: 0x13DAC, symSize: 0x70 }
  - { offsetInCU: 0x48EC4, offset: 0x16D05D, size: 0x8, addend: 0x0, symName: __ZNSt3__16__treeINS_12__value_typeIPN4grpc25DefaultHealthCheckService22HealthCheckServiceImpl12WatchReactorEN9grpc_core13RefCountedPtrIS5_EEEENS_19__map_value_compareIS6_SA_NS_4lessIS6_EELb1EEENS_9allocatorISA_EEE16__insert_node_atEPNS_15__tree_end_nodeIPNS_16__tree_node_baseIPvEEEERSM_SM_, symObjAddr: 0x4BBC, symBinAddr: 0x13EFC, symSize: 0x54 }
  - { offsetInCU: 0x48F2B, offset: 0x16D0C4, size: 0x8, addend: 0x0, symName: __ZNSt3__110unique_ptrINS_11__tree_nodeINS_12__value_typeIPN4grpc25DefaultHealthCheckService22HealthCheckServiceImpl12WatchReactorEN9grpc_core13RefCountedPtrIS6_EEEEPvEENS_22__tree_node_destructorINS_9allocatorISD_EEEEE5resetB8ue170006EPSD_, symObjAddr: 0x4C10, symBinAddr: 0x13F50, symSize: 0x44 }
  - { offsetInCU: 0x4920A, offset: 0x16D3A3, size: 0x8, addend: 0x0, symName: __ZNSt3__16__treeINS_12__value_typeIPN4grpc25DefaultHealthCheckService22HealthCheckServiceImpl12WatchReactorEN9grpc_core13RefCountedPtrIS5_EEEENS_19__map_value_compareIS6_SA_NS_4lessIS6_EELb1EEENS_9allocatorISA_EEE21__remove_node_pointerEPNS_11__tree_nodeISA_PvEE, symObjAddr: 0x4CD4, symBinAddr: 0x14014, symSize: 0x70 }
  - { offsetInCU: 0x492CF, offset: 0x16D468, size: 0x8, addend: 0x0, symName: '__ZNSt3__110__function6__funcIZN4grpc25DefaultHealthCheckService22HealthCheckServiceImplC1EPS3_E3$_0NS_9allocatorIS6_EEFPNS2_18ServerUnaryReactorEPNS2_21CallbackServerContextEPKNS2_10ByteBufferEPSD_EED1Ev', symObjAddr: 0x4D44, symBinAddr: 0x14084, symSize: 0x4 }
  - { offsetInCU: 0x492FB, offset: 0x16D494, size: 0x8, addend: 0x0, symName: '__ZNSt3__110__function6__funcIZN4grpc25DefaultHealthCheckService22HealthCheckServiceImplC1EPS3_E3$_0NS_9allocatorIS6_EEFPNS2_18ServerUnaryReactorEPNS2_21CallbackServerContextEPKNS2_10ByteBufferEPSD_EED0Ev', symObjAddr: 0x4D48, symBinAddr: 0x14088, symSize: 0x4 }
  - { offsetInCU: 0x494FF, offset: 0x16D698, size: 0x8, addend: 0x0, symName: '__ZNKSt3__110__function6__funcIZN4grpc25DefaultHealthCheckService22HealthCheckServiceImplC1EPS3_E3$_0NS_9allocatorIS6_EEFPNS2_18ServerUnaryReactorEPNS2_21CallbackServerContextEPKNS2_10ByteBufferEPSD_EE7__cloneEv', symObjAddr: 0x4D4C, symBinAddr: 0x1408C, symSize: 0x34 }
  - { offsetInCU: 0x497F4, offset: 0x16D98D, size: 0x8, addend: 0x0, symName: '__ZNKSt3__110__function6__funcIZN4grpc25DefaultHealthCheckService22HealthCheckServiceImplC1EPS3_E3$_0NS_9allocatorIS6_EEFPNS2_18ServerUnaryReactorEPNS2_21CallbackServerContextEPKNS2_10ByteBufferEPSD_EE7__cloneEPNS0_6__baseISH_EE', symObjAddr: 0x4D80, symBinAddr: 0x140C0, symSize: 0x14 }
  - { offsetInCU: 0x4982C, offset: 0x16D9C5, size: 0x8, addend: 0x0, symName: '__ZNKSt3__110__function6__funcIZN4grpc25DefaultHealthCheckService22HealthCheckServiceImplC1EPS3_E3$_0NS_9allocatorIS6_EEFPNS2_18ServerUnaryReactorEPNS2_21CallbackServerContextEPKNS2_10ByteBufferEPSD_EE7__cloneEPNS0_6__baseISH_EE', symObjAddr: 0x4D80, symBinAddr: 0x140C0, symSize: 0x14 }
  - { offsetInCU: 0x4985A, offset: 0x16D9F3, size: 0x8, addend: 0x0, symName: '__ZNKSt3__110__function6__funcIZN4grpc25DefaultHealthCheckService22HealthCheckServiceImplC1EPS3_E3$_0NS_9allocatorIS6_EEFPNS2_18ServerUnaryReactorEPNS2_21CallbackServerContextEPKNS2_10ByteBufferEPSD_EE7__cloneEPNS0_6__baseISH_EE', symObjAddr: 0x4D80, symBinAddr: 0x140C0, symSize: 0x14 }
  - { offsetInCU: 0x49888, offset: 0x16DA21, size: 0x8, addend: 0x0, symName: '__ZNKSt3__110__function6__funcIZN4grpc25DefaultHealthCheckService22HealthCheckServiceImplC1EPS3_E3$_0NS_9allocatorIS6_EEFPNS2_18ServerUnaryReactorEPNS2_21CallbackServerContextEPKNS2_10ByteBufferEPSD_EE7__cloneEPNS0_6__baseISH_EE', symObjAddr: 0x4D80, symBinAddr: 0x140C0, symSize: 0x14 }
  - { offsetInCU: 0x4989D, offset: 0x16DA36, size: 0x8, addend: 0x0, symName: '__ZNKSt3__110__function6__funcIZN4grpc25DefaultHealthCheckService22HealthCheckServiceImplC1EPS3_E3$_0NS_9allocatorIS6_EEFPNS2_18ServerUnaryReactorEPNS2_21CallbackServerContextEPKNS2_10ByteBufferEPSD_EE7__cloneEPNS0_6__baseISH_EE', symObjAddr: 0x4D80, symBinAddr: 0x140C0, symSize: 0x14 }
  - { offsetInCU: 0x498B1, offset: 0x16DA4A, size: 0x8, addend: 0x0, symName: '__ZNKSt3__110__function6__funcIZN4grpc25DefaultHealthCheckService22HealthCheckServiceImplC1EPS3_E3$_0NS_9allocatorIS6_EEFPNS2_18ServerUnaryReactorEPNS2_21CallbackServerContextEPKNS2_10ByteBufferEPSD_EE7__cloneEPNS0_6__baseISH_EE', symObjAddr: 0x4D80, symBinAddr: 0x140C0, symSize: 0x14 }
  - { offsetInCU: 0x498C5, offset: 0x16DA5E, size: 0x8, addend: 0x0, symName: '__ZNKSt3__110__function6__funcIZN4grpc25DefaultHealthCheckService22HealthCheckServiceImplC1EPS3_E3$_0NS_9allocatorIS6_EEFPNS2_18ServerUnaryReactorEPNS2_21CallbackServerContextEPKNS2_10ByteBufferEPSD_EE7__cloneEPNS0_6__baseISH_EE', symObjAddr: 0x4D80, symBinAddr: 0x140C0, symSize: 0x14 }
  - { offsetInCU: 0x498DA, offset: 0x16DA73, size: 0x8, addend: 0x0, symName: '__ZNKSt3__110__function6__funcIZN4grpc25DefaultHealthCheckService22HealthCheckServiceImplC1EPS3_E3$_0NS_9allocatorIS6_EEFPNS2_18ServerUnaryReactorEPNS2_21CallbackServerContextEPKNS2_10ByteBufferEPSD_EE7__cloneEPNS0_6__baseISH_EE', symObjAddr: 0x4D80, symBinAddr: 0x140C0, symSize: 0x14 }
  - { offsetInCU: 0x498F2, offset: 0x16DA8B, size: 0x8, addend: 0x0, symName: '__ZNSt3__110__function6__funcIZN4grpc25DefaultHealthCheckService22HealthCheckServiceImplC1EPS3_E3$_0NS_9allocatorIS6_EEFPNS2_18ServerUnaryReactorEPNS2_21CallbackServerContextEPKNS2_10ByteBufferEPSD_EE7destroyEv', symObjAddr: 0x4D94, symBinAddr: 0x140D4, symSize: 0x4 }
  - { offsetInCU: 0x49943, offset: 0x16DADC, size: 0x8, addend: 0x0, symName: '__ZNSt3__110__function6__funcIZN4grpc25DefaultHealthCheckService22HealthCheckServiceImplC1EPS3_E3$_0NS_9allocatorIS6_EEFPNS2_18ServerUnaryReactorEPNS2_21CallbackServerContextEPKNS2_10ByteBufferEPSD_EE18destroy_deallocateEv', symObjAddr: 0x4D98, symBinAddr: 0x140D8, symSize: 0x4 }
  - { offsetInCU: 0x49979, offset: 0x16DB12, size: 0x8, addend: 0x0, symName: '__ZNSt3__110__function6__funcIZN4grpc25DefaultHealthCheckService22HealthCheckServiceImplC1EPS3_E3$_0NS_9allocatorIS6_EEFPNS2_18ServerUnaryReactorEPNS2_21CallbackServerContextEPKNS2_10ByteBufferEPSD_EE18destroy_deallocateEv', symObjAddr: 0x4D98, symBinAddr: 0x140D8, symSize: 0x4 }
  - { offsetInCU: 0x4999B, offset: 0x16DB34, size: 0x8, addend: 0x0, symName: '__ZNSt3__110__function6__funcIZN4grpc25DefaultHealthCheckService22HealthCheckServiceImplC1EPS3_E3$_0NS_9allocatorIS6_EEFPNS2_18ServerUnaryReactorEPNS2_21CallbackServerContextEPKNS2_10ByteBufferEPSD_EE18destroy_deallocateEv', symObjAddr: 0x4D98, symBinAddr: 0x140D8, symSize: 0x4 }
  - { offsetInCU: 0x499C6, offset: 0x16DB5F, size: 0x8, addend: 0x0, symName: '__ZNSt3__110__function6__funcIZN4grpc25DefaultHealthCheckService22HealthCheckServiceImplC1EPS3_E3$_0NS_9allocatorIS6_EEFPNS2_18ServerUnaryReactorEPNS2_21CallbackServerContextEPKNS2_10ByteBufferEPSD_EE18destroy_deallocateEv', symObjAddr: 0x4D98, symBinAddr: 0x140D8, symSize: 0x4 }
  - { offsetInCU: 0x499EC, offset: 0x16DB85, size: 0x8, addend: 0x0, symName: '__ZNSt3__110__function6__funcIZN4grpc25DefaultHealthCheckService22HealthCheckServiceImplC1EPS3_E3$_0NS_9allocatorIS6_EEFPNS2_18ServerUnaryReactorEPNS2_21CallbackServerContextEPKNS2_10ByteBufferEPSD_EE18destroy_deallocateEv', symObjAddr: 0x4D98, symBinAddr: 0x140D8, symSize: 0x4 }
  - { offsetInCU: 0x49AE7, offset: 0x16DC80, size: 0x8, addend: 0x0, symName: '__ZNSt3__110__function6__funcIZN4grpc25DefaultHealthCheckService22HealthCheckServiceImplC1EPS3_E3$_0NS_9allocatorIS6_EEFPNS2_18ServerUnaryReactorEPNS2_21CallbackServerContextEPKNS2_10ByteBufferEPSD_EEclEOSC_OSF_OSG_', symObjAddr: 0x4D9C, symBinAddr: 0x140DC, symSize: 0x14 }
  - { offsetInCU: 0x49B42, offset: 0x16DCDB, size: 0x8, addend: 0x0, symName: '__ZNSt3__110__function6__funcIZN4grpc25DefaultHealthCheckService22HealthCheckServiceImplC1EPS3_E3$_0NS_9allocatorIS6_EEFPNS2_18ServerUnaryReactorEPNS2_21CallbackServerContextEPKNS2_10ByteBufferEPSD_EEclEOSC_OSF_OSG_', symObjAddr: 0x4D9C, symBinAddr: 0x140DC, symSize: 0x14 }
  - { offsetInCU: 0x49B7B, offset: 0x16DD14, size: 0x8, addend: 0x0, symName: '__ZNSt3__110__function6__funcIZN4grpc25DefaultHealthCheckService22HealthCheckServiceImplC1EPS3_E3$_0NS_9allocatorIS6_EEFPNS2_18ServerUnaryReactorEPNS2_21CallbackServerContextEPKNS2_10ByteBufferEPSD_EEclEOSC_OSF_OSG_', symObjAddr: 0x4D9C, symBinAddr: 0x140DC, symSize: 0x14 }
  - { offsetInCU: 0x49BB4, offset: 0x16DD4D, size: 0x8, addend: 0x0, symName: '__ZNSt3__110__function6__funcIZN4grpc25DefaultHealthCheckService22HealthCheckServiceImplC1EPS3_E3$_0NS_9allocatorIS6_EEFPNS2_18ServerUnaryReactorEPNS2_21CallbackServerContextEPKNS2_10ByteBufferEPSD_EEclEOSC_OSF_OSG_', symObjAddr: 0x4D9C, symBinAddr: 0x140DC, symSize: 0x14 }
  - { offsetInCU: 0x49C33, offset: 0x16DDCC, size: 0x8, addend: 0x0, symName: '__ZNKSt3__110__function6__funcIZN4grpc25DefaultHealthCheckService22HealthCheckServiceImplC1EPS3_E3$_0NS_9allocatorIS6_EEFPNS2_18ServerUnaryReactorEPNS2_21CallbackServerContextEPKNS2_10ByteBufferEPSD_EE6targetERKSt9type_info', symObjAddr: 0x4DB0, symBinAddr: 0x140F0, symSize: 0x3C }
  - { offsetInCU: 0x49CCF, offset: 0x16DE68, size: 0x8, addend: 0x0, symName: '__ZNKSt3__110__function6__funcIZN4grpc25DefaultHealthCheckService22HealthCheckServiceImplC1EPS3_E3$_0NS_9allocatorIS6_EEFPNS2_18ServerUnaryReactorEPNS2_21CallbackServerContextEPKNS2_10ByteBufferEPSD_EE11target_typeEv', symObjAddr: 0x4DEC, symBinAddr: 0x1412C, symSize: 0xC }
  - { offsetInCU: 0x49D43, offset: 0x16DEDC, size: 0x8, addend: 0x0, symName: __ZN4grpc8internal20CallbackUnaryHandlerINS_10ByteBufferES2_ED1Ev, symObjAddr: 0x4E40, symBinAddr: 0x14138, symSize: 0x60 }
  - { offsetInCU: 0x49E24, offset: 0x16DFBD, size: 0x8, addend: 0x0, symName: __ZN4grpc8internal20CallbackUnaryHandlerINS_10ByteBufferES2_ED0Ev, symObjAddr: 0x4EA0, symBinAddr: 0x14198, symSize: 0x60 }
  - { offsetInCU: 0x4A365, offset: 0x16E4FE, size: 0x8, addend: 0x0, symName: __ZN4grpc8internal20CallbackUnaryHandlerINS_10ByteBufferES2_E23ServerCallbackUnaryImplC2EPNS_21CallbackServerContextEPNS0_4CallEPNS_13MessageHolderIS2_S2_EENSt3__18functionIFvvEEE, symObjAddr: 0x5480, symBinAddr: 0x14714, symSize: 0x150 }
  - { offsetInCU: 0x4AACA, offset: 0x16EC63, size: 0x8, addend: 0x0, symName: __ZN4grpc8internal17FinishOnlyReactorINS_18ServerUnaryReactorEEC2ENS_6StatusE, symObjAddr: 0x86C0, symBinAddr: 0x177C0, symSize: 0xE4 }
  - { offsetInCU: 0x4B0E9, offset: 0x16F282, size: 0x8, addend: 0x0, symName: __ZN4grpc8internal20CallbackUnaryHandlerINS_10ByteBufferES2_E23ServerCallbackUnaryImpl12SetupReactorEPNS_18ServerUnaryReactorE, symObjAddr: 0x5380, symBinAddr: 0x14678, symSize: 0x9C }
  - { offsetInCU: 0x4B370, offset: 0x16F509, size: 0x8, addend: 0x0, symName: __ZN4grpc8internal20CallbackUnaryHandlerINS_10ByteBufferES2_E11DeserializeEP9grpc_callP16grpc_byte_bufferPNS_6StatusEPPv, symObjAddr: 0x5198, symBinAddr: 0x14490, symSize: 0x154 }
  - { offsetInCU: 0x4B9D0, offset: 0x16FB69, size: 0x8, addend: 0x0, symName: __ZN4grpc19SerializationTraitsINS_10ByteBufferEvE11DeserializeEPS1_S3_, symObjAddr: 0x87C8, symBinAddr: 0x178C8, symSize: 0xC8 }
  - { offsetInCU: 0x4BC8F, offset: 0x16FE28, size: 0x8, addend: 0x0, symName: __ZNKSt3__18functionIFPN4grpc18ServerUnaryReactorEPNS1_21CallbackServerContextEPKNS1_10ByteBufferEPS6_EEclES5_S8_S9_, symObjAddr: 0x867C, symBinAddr: 0x1777C, symSize: 0x44 }
  - { offsetInCU: 0x4BD3E, offset: 0x16FED7, size: 0x8, addend: 0x0, symName: __ZN4grpc8internal17FinishOnlyReactorINS_18ServerUnaryReactorEEC2ENS_6StatusE, symObjAddr: 0x86C0, symBinAddr: 0x177C0, symSize: 0xE4 }
  - { offsetInCU: 0x4C300, offset: 0x170499, size: 0x8, addend: 0x0, symName: __ZN4grpc8internal9CallOpSetINS0_25CallOpSendInitialMetadataENS0_17CallOpSendMessageENS0_22CallOpServerSendStatusENS0_8CallNoOpILi4EEENS5_ILi5EEENS5_ILi6EEEEC2Ev, symObjAddr: 0x6E70, symBinAddr: 0x16000, symSize: 0x9C }
  - { offsetInCU: 0x4C32B, offset: 0x1704C4, size: 0x8, addend: 0x0, symName: __ZN4grpc8internal9CallOpSetINS0_25CallOpSendInitialMetadataENS0_17CallOpSendMessageENS0_22CallOpServerSendStatusENS0_8CallNoOpILi4EEENS5_ILi5EEENS5_ILi6EEEEC2Ev, symObjAddr: 0x6E70, symBinAddr: 0x16000, symSize: 0x9C }
  - { offsetInCU: 0x4C662, offset: 0x1707FB, size: 0x8, addend: 0x0, symName: __ZNSt3__110__function12__value_funcIFvvEEC2B8ue170006EOS3_, symObjAddr: 0x7B28, symBinAddr: 0x16CB8, symSize: 0x64 }
  - { offsetInCU: 0x4C6B1, offset: 0x17084A, size: 0x8, addend: 0x0, symName: __ZN4grpc8internal22CallbackWithSuccessTagD2Ev, symObjAddr: 0x7B8C, symBinAddr: 0x16D1C, symSize: 0x58 }
  - { offsetInCU: 0x4C77A, offset: 0x170913, size: 0x8, addend: 0x0, symName: __ZN4grpc8internal27InterceptorBatchMethodsImplD2Ev, symObjAddr: 0x6340, symBinAddr: 0x155D4, symSize: 0x90 }
  - { offsetInCU: 0x4C97B, offset: 0x170B14, size: 0x8, addend: 0x0, symName: __ZN4grpc8internal9CallOpSetINS0_25CallOpSendInitialMetadataENS0_17CallOpSendMessageENS0_22CallOpServerSendStatusENS0_8CallNoOpILi4EEENS5_ILi5EEENS5_ILi6EEEED1Ev, symObjAddr: 0x55D0, symBinAddr: 0x14864, symSize: 0x90 }
  - { offsetInCU: 0x4CD40, offset: 0x170ED9, size: 0x8, addend: 0x0, symName: __ZN4grpc8internal9CallOpSetINS0_25CallOpSendInitialMetadataENS0_8CallNoOpILi2EEENS3_ILi3EEENS3_ILi4EEENS3_ILi5EEENS3_ILi6EEEED1Ev, symObjAddr: 0x5660, symBinAddr: 0x148F4, symSize: 0x34 }
  - { offsetInCU: 0x4CDAA, offset: 0x170F43, size: 0x8, addend: 0x0, symName: __ZN4grpc8internal20CallbackUnaryHandlerINS_10ByteBufferES2_E23ServerCallbackUnaryImplD1Ev, symObjAddr: 0x5694, symBinAddr: 0x14928, symSize: 0x4 }
  - { offsetInCU: 0x4CDCD, offset: 0x170F66, size: 0x8, addend: 0x0, symName: __ZN4grpc8internal20CallbackUnaryHandlerINS_10ByteBufferES2_E23ServerCallbackUnaryImplD1Ev, symObjAddr: 0x5694, symBinAddr: 0x14928, symSize: 0x4 }
  - { offsetInCU: 0x4CDE1, offset: 0x170F7A, size: 0x8, addend: 0x0, symName: __ZN4grpc8internal20CallbackUnaryHandlerINS_10ByteBufferES2_E23ServerCallbackUnaryImplD2Ev, symObjAddr: 0x7C50, symBinAddr: 0x16DE0, symSize: 0xF8 }
  - { offsetInCU: 0x4D328, offset: 0x1714C1, size: 0x8, addend: 0x0, symName: __ZN4grpc8internal20CallbackUnaryHandlerINS_10ByteBufferES2_E23ServerCallbackUnaryImplD0Ev, symObjAddr: 0x5698, symBinAddr: 0x1492C, symSize: 0x14 }
  - { offsetInCU: 0x4D3B7, offset: 0x171550, size: 0x8, addend: 0x0, symName: __ZN4grpc8internal20CallbackUnaryHandlerINS_10ByteBufferES2_E23ServerCallbackUnaryImpl7reactorEv, symObjAddr: 0x56AC, symBinAddr: 0x14940, symSize: 0x8 }
  - { offsetInCU: 0x4D3E0, offset: 0x171579, size: 0x8, addend: 0x0, symName: __ZN4grpc8internal20CallbackUnaryHandlerINS_10ByteBufferES2_E23ServerCallbackUnaryImpl7reactorEv, symObjAddr: 0x56AC, symBinAddr: 0x14940, symSize: 0x8 }
  - { offsetInCU: 0x4D404, offset: 0x17159D, size: 0x8, addend: 0x0, symName: __ZN4grpc8internal20CallbackUnaryHandlerINS_10ByteBufferES2_E23ServerCallbackUnaryImpl7reactorEv, symObjAddr: 0x56AC, symBinAddr: 0x14940, symSize: 0x8 }
  - { offsetInCU: 0x4D428, offset: 0x1715C1, size: 0x8, addend: 0x0, symName: __ZN4grpc8internal20CallbackUnaryHandlerINS_10ByteBufferES2_E23ServerCallbackUnaryImpl4callEv, symObjAddr: 0x56B4, symBinAddr: 0x14948, symSize: 0x8 }
  - { offsetInCU: 0x4D451, offset: 0x1715EA, size: 0x8, addend: 0x0, symName: __ZN4grpc8internal20CallbackUnaryHandlerINS_10ByteBufferES2_E23ServerCallbackUnaryImpl4callEv, symObjAddr: 0x56B4, symBinAddr: 0x14948, symSize: 0x8 }
  - { offsetInCU: 0x4D554, offset: 0x1716ED, size: 0x8, addend: 0x0, symName: __ZN4grpc8internal18ServerCallbackCall8RunAsyncEN4absl12lts_2024011612AnyInvocableIFvvEEE, symObjAddr: 0x56BC, symBinAddr: 0x14950, symSize: 0x88 }
  - { offsetInCU: 0x4D754, offset: 0x1718ED, size: 0x8, addend: 0x0, symName: __ZN4absl12lts_2024011622internal_any_invocable8CoreImplILb0EvJEEC2EOS3_, symObjAddr: 0x7D48, symBinAddr: 0x16ED8, symSize: 0x4C }
  - { offsetInCU: 0x4D827, offset: 0x1719C0, size: 0x8, addend: 0x0, symName: __ZN4grpc8internal20CallbackUnaryHandlerINS_10ByteBufferES2_E23ServerCallbackUnaryImpl10CallOnDoneEv, symObjAddr: 0x5744, symBinAddr: 0x149D8, symSize: 0x140 }
  - { offsetInCU: 0x4DE4B, offset: 0x171FE4, size: 0x8, addend: 0x0, symName: __ZN4grpc8internal22CallbackWithSuccessTag3SetEP9grpc_callNSt3__18functionIFvbEEEPNS0_18CompletionQueueTagEb, symObjAddr: 0x7D98, symBinAddr: 0x16F28, symSize: 0x8C }
  - { offsetInCU: 0x4DF46, offset: 0x1720DF, size: 0x8, addend: 0x0, symName: __ZN4grpc8internal22CallOpServerSendStatus16ServerSendStatusEPNSt3__18multimapINS2_12basic_stringIcNS2_11char_traitsIcEENS2_9allocatorIcEEEES9_NS2_4lessIS9_EENS7_INS2_4pairIKS9_S9_EEEEEERKNS_6StatusE, symObjAddr: 0x7E24, symBinAddr: 0x16FB4, symSize: 0xE8 }
  - { offsetInCU: 0x4E32C, offset: 0x1724C5, size: 0x8, addend: 0x0, symName: __ZNSt3__18functionIFN4grpc6StatusEPKvEEaSIZNS1_8internal17CallOpSendMessage14SendMessagePtrINS1_10ByteBufferEEES2_PKT_NS1_12WriteOptionsEEUlS4_E_vEERS6_OSC_, symObjAddr: 0x8158, symBinAddr: 0x17258, symSize: 0xA8 }
  - { offsetInCU: 0x4E720, offset: 0x1728B9, size: 0x8, addend: 0x0, symName: __ZN4grpc8internal20CallbackUnaryHandlerINS_10ByteBufferES2_E23ServerCallbackUnaryImpl19SendInitialMetadataEv.cold.1, symObjAddr: 0xA650, symBinAddr: 0x31A24, symSize: 0x28 }
  - { offsetInCU: 0x4E738, offset: 0x1728D1, size: 0x8, addend: 0x0, symName: __ZN4grpc8internal9CallOpSetINS0_25CallOpSendInitialMetadataENS0_8CallNoOpILi2EEENS3_ILi3EEENS3_ILi4EEENS3_ILi5EEENS3_ILi6EEEED0Ev, symObjAddr: 0x5BE0, symBinAddr: 0x14E74, symSize: 0x34 }
  - { offsetInCU: 0x4E867, offset: 0x172A00, size: 0x8, addend: 0x0, symName: __ZN4grpc8internal9CallOpSetINS0_25CallOpSendInitialMetadataENS0_8CallNoOpILi2EEENS3_ILi3EEENS3_ILi4EEENS3_ILi5EEENS3_ILi6EEEE14FinalizeResultEPPvPb, symObjAddr: 0x5C14, symBinAddr: 0x14EA8, symSize: 0xC0 }
  - { offsetInCU: 0x4E9DD, offset: 0x172B76, size: 0x8, addend: 0x0, symName: __ZN4grpc8internal27InterceptorBatchMethodsImpl15RunInterceptorsEv, symObjAddr: 0x69F0, symBinAddr: 0x15B80, symSize: 0x6C }
  - { offsetInCU: 0x4EAB6, offset: 0x172C4F, size: 0x8, addend: 0x0, symName: __ZN4grpc8internal27InterceptorBatchMethodsImpl21RunClientInterceptorsEv, symObjAddr: 0x6A5C, symBinAddr: 0x15BEC, symSize: 0x44 }
  - { offsetInCU: 0x4EACA, offset: 0x172C63, size: 0x8, addend: 0x0, symName: __ZN4grpc8internal9CallOpSetINS0_25CallOpSendInitialMetadataENS0_8CallNoOpILi2EEENS3_ILi3EEENS3_ILi4EEENS3_ILi5EEENS3_ILi6EEEE7FillOpsEPNS0_4CallE, symObjAddr: 0x5CD4, symBinAddr: 0x14F68, symSize: 0x60 }
  - { offsetInCU: 0x4EB56, offset: 0x172CEF, size: 0x8, addend: 0x0, symName: __ZN4grpc8internal9CallOpSetINS0_25CallOpSendInitialMetadataENS0_8CallNoOpILi2EEENS3_ILi3EEENS3_ILi4EEENS3_ILi5EEENS3_ILi6EEEE15RunInterceptorsEv, symObjAddr: 0x6AD4, symBinAddr: 0x15C64, symSize: 0x8C }
  - { offsetInCU: 0x4EB7F, offset: 0x172D18, size: 0x8, addend: 0x0, symName: __ZN4grpc8internal9CallOpSetINS0_25CallOpSendInitialMetadataENS0_8CallNoOpILi2EEENS3_ILi3EEENS3_ILi4EEENS3_ILi5EEENS3_ILi6EEEE15RunInterceptorsEv, symObjAddr: 0x6AD4, symBinAddr: 0x15C64, symSize: 0x8C }
  - { offsetInCU: 0x4ED05, offset: 0x172E9E, size: 0x8, addend: 0x0, symName: __ZN4grpc8internal9CallOpSetINS0_25CallOpSendInitialMetadataENS0_8CallNoOpILi2EEENS3_ILi3EEENS3_ILi4EEENS3_ILi5EEENS3_ILi6EEEE11core_cq_tagEv, symObjAddr: 0x5D34, symBinAddr: 0x14FC8, symSize: 0x8 }
  - { offsetInCU: 0x4ED4B, offset: 0x172EE4, size: 0x8, addend: 0x0, symName: __ZN4grpc8internal9CallOpSetINS0_25CallOpSendInitialMetadataENS0_8CallNoOpILi2EEENS3_ILi3EEENS3_ILi4EEENS3_ILi5EEENS3_ILi6EEEE17SetHijackingStateEv, symObjAddr: 0x5D3C, symBinAddr: 0x14FD0, symSize: 0xC }
  - { offsetInCU: 0x4EDCB, offset: 0x172F64, size: 0x8, addend: 0x0, symName: __ZN4grpc8internal25CallOpSendInitialMetadata5AddOpEP7grpc_opPm, symObjAddr: 0x6B60, symBinAddr: 0x15CF0, symSize: 0xF4 }
  - { offsetInCU: 0x4F113, offset: 0x1732AC, size: 0x8, addend: 0x0, symName: __ZN4absl12lts_2024011612log_internal10LogMessagelsILi10EEERS2_RAT__Kc, symObjAddr: 0x6C54, symBinAddr: 0x15DE4, symSize: 0x3C }
  - { offsetInCU: 0x4F1A9, offset: 0x173342, size: 0x8, addend: 0x0, symName: __ZN4grpc8internal9CallOpSetINS0_25CallOpSendInitialMetadataENS0_8CallNoOpILi2EEENS3_ILi3EEENS3_ILi4EEENS3_ILi5EEENS3_ILi6EEEE32ContinueFillOpsAfterInterceptionEv.cold.1, symObjAddr: 0xA678, symBinAddr: 0x31A4C, symSize: 0x28 }
  - { offsetInCU: 0x4F1C1, offset: 0x17335A, size: 0x8, addend: 0x0, symName: __ZN4grpc8internal9CallOpSetINS0_25CallOpSendInitialMetadataENS0_8CallNoOpILi2EEENS3_ILi3EEENS3_ILi4EEENS3_ILi5EEENS3_ILi6EEEE39ContinueFinalizeResultAfterInterceptionEv, symObjAddr: 0x5E60, symBinAddr: 0x150F4, symSize: 0x5C }
  - { offsetInCU: 0x4F247, offset: 0x1733E0, size: 0x8, addend: 0x0, symName: __ZN4grpc8internal27InterceptorBatchMethodsImplD1Ev, symObjAddr: 0x5EBC, symBinAddr: 0x15150, symSize: 0x4 }
  - { offsetInCU: 0x4F25B, offset: 0x1733F4, size: 0x8, addend: 0x0, symName: __ZN4grpc8internal9CallOpSetINS0_25CallOpSendInitialMetadataENS0_8CallNoOpILi2EEENS3_ILi3EEENS3_ILi4EEENS3_ILi5EEENS3_ILi6EEEE39ContinueFinalizeResultAfterInterceptionEv.cold.1, symObjAddr: 0xA6A0, symBinAddr: 0x31A74, symSize: 0x20 }
  - { offsetInCU: 0x4F273, offset: 0x17340C, size: 0x8, addend: 0x0, symName: __ZN4grpc8internal27InterceptorBatchMethodsImplD1Ev, symObjAddr: 0x5EBC, symBinAddr: 0x15150, symSize: 0x4 }
  - { offsetInCU: 0x4F296, offset: 0x17342F, size: 0x8, addend: 0x0, symName: __ZN4grpc8internal27InterceptorBatchMethodsImplD1Ev, symObjAddr: 0x5EBC, symBinAddr: 0x15150, symSize: 0x4 }
  - { offsetInCU: 0x4F2AA, offset: 0x173443, size: 0x8, addend: 0x0, symName: __ZN4grpc8internal27InterceptorBatchMethodsImplD0Ev, symObjAddr: 0x5EC0, symBinAddr: 0x15154, symSize: 0x14 }
  - { offsetInCU: 0x4F306, offset: 0x17349F, size: 0x8, addend: 0x0, symName: __ZN4grpc8internal27InterceptorBatchMethodsImpl26QueryInterceptionHookPointENS_12experimental22InterceptionHookPointsE, symObjAddr: 0x5ED4, symBinAddr: 0x15168, symSize: 0xC }
  - { offsetInCU: 0x4F373, offset: 0x17350C, size: 0x8, addend: 0x0, symName: __ZN4grpc8internal27InterceptorBatchMethodsImpl7ProceedEv, symObjAddr: 0x5EE0, symBinAddr: 0x15174, symSize: 0x48 }
  - { offsetInCU: 0x4F413, offset: 0x1735AC, size: 0x8, addend: 0x0, symName: __ZN4grpc8internal27InterceptorBatchMethodsImpl6HijackEv, symObjAddr: 0x5F28, symBinAddr: 0x151BC, symSize: 0x94 }
  - { offsetInCU: 0x4F42E, offset: 0x1735C7, size: 0x8, addend: 0x0, symName: __ZN4grpc8internal27InterceptorBatchMethodsImpl13ProceedClientEv, symObjAddr: 0x63D0, symBinAddr: 0x15664, symSize: 0xE4 }
  - { offsetInCU: 0x4F50D, offset: 0x1736A6, size: 0x8, addend: 0x0, symName: __ZN4grpc8internal27InterceptorBatchMethodsImpl13ProceedServerEv, symObjAddr: 0x64B4, symBinAddr: 0x15748, symSize: 0x98 }
  - { offsetInCU: 0x4F5EF, offset: 0x173788, size: 0x8, addend: 0x0, symName: __ZN4grpc8internal27InterceptorBatchMethodsImpl7ProceedEv.cold.1, symObjAddr: 0xA6C0, symBinAddr: 0x31A94, symSize: 0x48 }
  - { offsetInCU: 0x4F682, offset: 0x17381B, size: 0x8, addend: 0x0, symName: __ZN4grpc8internal27InterceptorBatchMethodsImpl6HijackEv, symObjAddr: 0x5F28, symBinAddr: 0x151BC, symSize: 0x94 }
  - { offsetInCU: 0x4F74B, offset: 0x1738E4, size: 0x8, addend: 0x0, symName: __ZN4grpc8internal27InterceptorBatchMethodsImpl24GetSerializedSendMessageEv, symObjAddr: 0x5FBC, symBinAddr: 0x15250, symSize: 0xD8 }
  - { offsetInCU: 0x4F7C6, offset: 0x17395F, size: 0x8, addend: 0x0, symName: __ZN4grpc12experimental13ServerRpcInfo14RunInterceptorEPNS0_23InterceptorBatchMethodsEm, symObjAddr: 0x6598, symBinAddr: 0x157E0, symSize: 0x4C }
  - { offsetInCU: 0x4F7D8, offset: 0x173971, size: 0x8, addend: 0x0, symName: __ZN4grpc8internal27InterceptorBatchMethodsImpl6HijackEv.cold.1, symObjAddr: 0xA708, symBinAddr: 0x31ADC, symSize: 0x28 }
  - { offsetInCU: 0x4F7F0, offset: 0x173989, size: 0x8, addend: 0x0, symName: __ZN4grpc8internal27InterceptorBatchMethodsImpl6HijackEv.cold.2, symObjAddr: 0xA730, symBinAddr: 0x31B04, symSize: 0x28 }
  - { offsetInCU: 0x4F864, offset: 0x1739FD, size: 0x8, addend: 0x0, symName: __ZN4grpc8internal27InterceptorBatchMethodsImpl24GetSerializedSendMessageEv, symObjAddr: 0x5FBC, symBinAddr: 0x15250, symSize: 0xD8 }
  - { offsetInCU: 0x4FC03, offset: 0x173D9C, size: 0x8, addend: 0x0, symName: __ZN4grpc8internal27InterceptorBatchMethodsImpl24GetSerializedSendMessageEv.cold.1, symObjAddr: 0xA758, symBinAddr: 0x31B2C, symSize: 0x48 }
  - { offsetInCU: 0x4FC96, offset: 0x173E2F, size: 0x8, addend: 0x0, symName: __ZN4grpc8internal27InterceptorBatchMethodsImpl14GetSendMessageEv, symObjAddr: 0x6094, symBinAddr: 0x15328, symSize: 0x34 }
  - { offsetInCU: 0x4FCEB, offset: 0x173E84, size: 0x8, addend: 0x0, symName: __ZN4grpc8internal27InterceptorBatchMethodsImpl17ModifySendMessageEPKv, symObjAddr: 0x60C8, symBinAddr: 0x1535C, symSize: 0x34 }
  - { offsetInCU: 0x4FD06, offset: 0x173E9F, size: 0x8, addend: 0x0, symName: __ZN4grpc8internal27InterceptorBatchMethodsImpl14GetSendMessageEv.cold.1, symObjAddr: 0xA7A0, symBinAddr: 0x31B74, symSize: 0x48 }
  - { offsetInCU: 0x4FD99, offset: 0x173F32, size: 0x8, addend: 0x0, symName: __ZN4grpc8internal27InterceptorBatchMethodsImpl17ModifySendMessageEPKv, symObjAddr: 0x60C8, symBinAddr: 0x1535C, symSize: 0x34 }
  - { offsetInCU: 0x4FDFE, offset: 0x173F97, size: 0x8, addend: 0x0, symName: __ZN4grpc8internal27InterceptorBatchMethodsImpl20GetSendMessageStatusEv, symObjAddr: 0x60FC, symBinAddr: 0x15390, symSize: 0x14 }
  - { offsetInCU: 0x4FE19, offset: 0x173FB2, size: 0x8, addend: 0x0, symName: __ZN4grpc8internal27InterceptorBatchMethodsImpl17ModifySendMessageEPKv.cold.1, symObjAddr: 0xA7E8, symBinAddr: 0x31BBC, symSize: 0x48 }
  - { offsetInCU: 0x4FEAC, offset: 0x174045, size: 0x8, addend: 0x0, symName: __ZN4grpc8internal27InterceptorBatchMethodsImpl20GetSendMessageStatusEv, symObjAddr: 0x60FC, symBinAddr: 0x15390, symSize: 0x14 }
  - { offsetInCU: 0x4FED3, offset: 0x17406C, size: 0x8, addend: 0x0, symName: __ZN4grpc8internal27InterceptorBatchMethodsImpl22GetSendInitialMetadataEv, symObjAddr: 0x6110, symBinAddr: 0x153A4, symSize: 0x8 }
  - { offsetInCU: 0x4FF35, offset: 0x1740CE, size: 0x8, addend: 0x0, symName: __ZN4grpc8internal27InterceptorBatchMethodsImpl13GetSendStatusEv, symObjAddr: 0x6118, symBinAddr: 0x153AC, symSize: 0x14 }
  - { offsetInCU: 0x4FF96, offset: 0x17412F, size: 0x8, addend: 0x0, symName: __ZN4grpc6StatusC2ENS_10StatusCodeERKNSt3__112basic_stringIcNS2_11char_traitsIcEENS2_9allocatorIcEEEESA_, symObjAddr: 0x6630, symBinAddr: 0x1582C, symSize: 0xA0 }
  - { offsetInCU: 0x5023A, offset: 0x1743D3, size: 0x8, addend: 0x0, symName: __ZN4grpc8internal27InterceptorBatchMethodsImpl16ModifySendStatusERKNS_6StatusE, symObjAddr: 0x612C, symBinAddr: 0x153C0, symSize: 0xDC }
  - { offsetInCU: 0x5060B, offset: 0x1747A4, size: 0x8, addend: 0x0, symName: __ZN4grpc8internal27InterceptorBatchMethodsImpl23GetSendTrailingMetadataEv, symObjAddr: 0x6208, symBinAddr: 0x1549C, symSize: 0x8 }
  - { offsetInCU: 0x50632, offset: 0x1747CB, size: 0x8, addend: 0x0, symName: __ZN4grpc8internal27InterceptorBatchMethodsImpl14GetRecvMessageEv, symObjAddr: 0x6210, symBinAddr: 0x154A4, symSize: 0x8 }
  - { offsetInCU: 0x5066F, offset: 0x174808, size: 0x8, addend: 0x0, symName: __ZN4grpc8internal27InterceptorBatchMethodsImpl22GetRecvInitialMetadataEv, symObjAddr: 0x6218, symBinAddr: 0x154AC, symSize: 0x28 }
  - { offsetInCU: 0x506C8, offset: 0x174861, size: 0x8, addend: 0x0, symName: __ZN4grpc8internal11MetadataMap7FillMapEv, symObjAddr: 0x66D0, symBinAddr: 0x158CC, symSize: 0xB8 }
  - { offsetInCU: 0x50860, offset: 0x1749F9, size: 0x8, addend: 0x0, symName: __ZN4grpc8internal27InterceptorBatchMethodsImpl13GetRecvStatusEv, symObjAddr: 0x6240, symBinAddr: 0x154D4, symSize: 0x8 }
  - { offsetInCU: 0x50887, offset: 0x174A20, size: 0x8, addend: 0x0, symName: __ZN4grpc8internal27InterceptorBatchMethodsImpl23GetRecvTrailingMetadataEv, symObjAddr: 0x6248, symBinAddr: 0x154DC, symSize: 0x28 }
  - { offsetInCU: 0x50968, offset: 0x174B01, size: 0x8, addend: 0x0, symName: __ZN4grpc8internal27InterceptorBatchMethodsImpl21GetInterceptedChannelEv, symObjAddr: 0x6270, symBinAddr: 0x15504, symSize: 0x68 }
  - { offsetInCU: 0x50A2D, offset: 0x174BC6, size: 0x8, addend: 0x0, symName: __ZN4grpc8internal27InterceptorBatchMethodsImpl23FailHijackedRecvMessageEv, symObjAddr: 0x62D8, symBinAddr: 0x1556C, symSize: 0x34 }
  - { offsetInCU: 0x50A56, offset: 0x174BEF, size: 0x8, addend: 0x0, symName: __ZN4grpc8internal27InterceptorBatchMethodsImpl23FailHijackedSendMessageEv, symObjAddr: 0x630C, symBinAddr: 0x155A0, symSize: 0x34 }
  - { offsetInCU: 0x50A6A, offset: 0x174C03, size: 0x8, addend: 0x0, symName: __ZN4grpc8internal27InterceptorBatchMethodsImpl23FailHijackedRecvMessageEv.cold.1, symObjAddr: 0xA830, symBinAddr: 0x31C04, symSize: 0x28 }
  - { offsetInCU: 0x50A82, offset: 0x174C1B, size: 0x8, addend: 0x0, symName: __ZN4grpc8internal27InterceptorBatchMethodsImpl23FailHijackedSendMessageEv, symObjAddr: 0x630C, symBinAddr: 0x155A0, symSize: 0x34 }
  - { offsetInCU: 0x50AAB, offset: 0x174C44, size: 0x8, addend: 0x0, symName: __ZN4grpc8internal27InterceptorBatchMethodsImplD2Ev, symObjAddr: 0x6340, symBinAddr: 0x155D4, symSize: 0x90 }
  - { offsetInCU: 0x50ABF, offset: 0x174C58, size: 0x8, addend: 0x0, symName: __ZN4grpc8internal27InterceptorBatchMethodsImpl23FailHijackedSendMessageEv.cold.1, symObjAddr: 0xA858, symBinAddr: 0x31C2C, symSize: 0x28 }
  - { offsetInCU: 0x50B1E, offset: 0x174CB7, size: 0x8, addend: 0x0, symName: __ZN4grpc12experimental13ServerRpcInfo14RunInterceptorEPNS0_23InterceptorBatchMethodsEm, symObjAddr: 0x6598, symBinAddr: 0x157E0, symSize: 0x4C }
  - { offsetInCU: 0x50BD3, offset: 0x174D6C, size: 0x8, addend: 0x0, symName: __ZN4grpc8internal27InterceptorBatchMethodsImpl13ProceedServerEv.cold.1, symObjAddr: 0xA880, symBinAddr: 0x31C54, symSize: 0x28 }
  - { offsetInCU: 0x50C52, offset: 0x174DEB, size: 0x8, addend: 0x0, symName: __ZN4grpc12experimental13ServerRpcInfo14RunInterceptorEPNS0_23InterceptorBatchMethodsEm.cold.1, symObjAddr: 0xA8EC, symBinAddr: 0x31C7C, symSize: 0x44 }
  - { offsetInCU: 0x50E79, offset: 0x175012, size: 0x8, addend: 0x0, symName: __ZNSt3__16__treeINS_12__value_typeIN4grpc10string_refES3_EENS_19__map_value_compareIS3_S4_NS_4lessIS3_EELb1EEENS_9allocatorIS4_EEE15__emplace_multiIJNS_4pairIS3_S3_EEEEENS_15__tree_iteratorIS4_PNS_11__tree_nodeIS4_PvEElEEDpOT_, symObjAddr: 0x6788, symBinAddr: 0x15984, symSize: 0x90 }
  - { offsetInCU: 0x51495, offset: 0x17562E, size: 0x8, addend: 0x0, symName: __ZNSt3__16__treeINS_12__value_typeIN4grpc10string_refES3_EENS_19__map_value_compareIS3_S4_NS_4lessIS3_EELb1EEENS_9allocatorIS4_EEE16__find_leaf_highERPNS_15__tree_end_nodeIPNS_16__tree_node_baseIPvEEEERKS3_, symObjAddr: 0x6818, symBinAddr: 0x15A14, symSize: 0x8C }
  - { offsetInCU: 0x51665, offset: 0x1757FE, size: 0x8, addend: 0x0, symName: __ZNSt3__16__treeINS_12__value_typeIN4grpc10string_refES3_EENS_19__map_value_compareIS3_S4_NS_4lessIS3_EELb1EEENS_9allocatorIS4_EEE16__insert_node_atEPNS_15__tree_end_nodeIPNS_16__tree_node_baseIPvEEEERSG_SG_, symObjAddr: 0x68A4, symBinAddr: 0x15AA0, symSize: 0x54 }
  - { offsetInCU: 0x5179F, offset: 0x175938, size: 0x8, addend: 0x0, symName: __ZN4grpc8internal18InterceptedChannelD1Ev, symObjAddr: 0x694C, symBinAddr: 0x15AF4, symSize: 0x14 }
  - { offsetInCU: 0x517CB, offset: 0x175964, size: 0x8, addend: 0x0, symName: __ZN4grpc8internal18InterceptedChannelD1Ev, symObjAddr: 0x694C, symBinAddr: 0x15AF4, symSize: 0x14 }
  - { offsetInCU: 0x517E6, offset: 0x17597F, size: 0x8, addend: 0x0, symName: __ZN4grpc8internal18InterceptedChannelD0Ev, symObjAddr: 0x6960, symBinAddr: 0x15B08, symSize: 0x4 }
  - { offsetInCU: 0x5180F, offset: 0x1759A8, size: 0x8, addend: 0x0, symName: __ZN4grpc8internal18InterceptedChannel8GetStateEb, symObjAddr: 0x6964, symBinAddr: 0x15B0C, symSize: 0x10 }
  - { offsetInCU: 0x5185F, offset: 0x1759F8, size: 0x8, addend: 0x0, symName: __ZN4grpc8internal18InterceptedChannel10CreateCallERKNS0_9RpcMethodEPNS_13ClientContextEPNS_15CompletionQueueE, symObjAddr: 0x6974, symBinAddr: 0x15B1C, symSize: 0x14 }
  - { offsetInCU: 0x518E0, offset: 0x175A79, size: 0x8, addend: 0x0, symName: __ZN4grpc8internal18InterceptedChannel16PerformOpsOnCallEPNS0_18CallOpSetInterfaceEPNS0_4CallE, symObjAddr: 0x6988, symBinAddr: 0x15B30, symSize: 0x10 }
  - { offsetInCU: 0x51942, offset: 0x175ADB, size: 0x8, addend: 0x0, symName: __ZN4grpc8internal18InterceptedChannel14RegisterMethodEPKc, symObjAddr: 0x6998, symBinAddr: 0x15B40, symSize: 0x10 }
  - { offsetInCU: 0x5198D, offset: 0x175B26, size: 0x8, addend: 0x0, symName: __ZN4grpc8internal18InterceptedChannel23NotifyOnStateChangeImplE23grpc_connectivity_state12gpr_timespecPNS_15CompletionQueueEPv, symObjAddr: 0x69A8, symBinAddr: 0x15B50, symSize: 0x10 }
  - { offsetInCU: 0x51A23, offset: 0x175BBC, size: 0x8, addend: 0x0, symName: __ZN4grpc8internal18InterceptedChannel22WaitForStateChangeImplE23grpc_connectivity_state12gpr_timespec, symObjAddr: 0x69B8, symBinAddr: 0x15B60, symSize: 0x10 }
  - { offsetInCU: 0x51A8B, offset: 0x175C24, size: 0x8, addend: 0x0, symName: __ZN4grpc8internal18InterceptedChannel10CallbackCQEv, symObjAddr: 0x69E0, symBinAddr: 0x15B70, symSize: 0x10 }
  - { offsetInCU: 0x51AD4, offset: 0x175C6D, size: 0x8, addend: 0x0, symName: __ZN4grpc8internal27InterceptorBatchMethodsImpl21RunClientInterceptorsEv, symObjAddr: 0x6A5C, symBinAddr: 0x15BEC, symSize: 0x44 }
  - { offsetInCU: 0x51B56, offset: 0x175CEF, size: 0x8, addend: 0x0, symName: __ZN4grpc8internal27InterceptorBatchMethodsImpl21RunServerInterceptorsEv, symObjAddr: 0x6AA0, symBinAddr: 0x15C30, symSize: 0x34 }
  - { offsetInCU: 0x51BD8, offset: 0x175D71, size: 0x8, addend: 0x0, symName: __ZN4grpc8internal27InterceptorBatchMethodsImpl15RunInterceptorsEv.cold.1, symObjAddr: 0xA930, symBinAddr: 0x31CC0, symSize: 0x28 }
  - { offsetInCU: 0x51DF9, offset: 0x175F92, size: 0x8, addend: 0x0, symName: __ZN4grpc8internal9CallOpSetINS0_25CallOpSendInitialMetadataENS0_17CallOpSendMessageENS0_22CallOpServerSendStatusENS0_8CallNoOpILi4EEENS5_ILi5EEENS5_ILi6EEEED0Ev, symObjAddr: 0x6F0C, symBinAddr: 0x1609C, symSize: 0x90 }
  - { offsetInCU: 0x5221C, offset: 0x1763B5, size: 0x8, addend: 0x0, symName: __ZN4grpc8internal9CallOpSetINS0_25CallOpSendInitialMetadataENS0_17CallOpSendMessageENS0_22CallOpServerSendStatusENS0_8CallNoOpILi4EEENS5_ILi5EEENS5_ILi6EEEE14FinalizeResultEPPvPb, symObjAddr: 0x6F9C, symBinAddr: 0x1612C, symSize: 0xFC }
  - { offsetInCU: 0x523E4, offset: 0x17657D, size: 0x8, addend: 0x0, symName: __ZN4grpc8internal17CallOpSendMessage8FinishOpEPb, symObjAddr: 0x72A8, symBinAddr: 0x16438, symSize: 0x68 }
  - { offsetInCU: 0x52440, offset: 0x1765D9, size: 0x8, addend: 0x0, symName: __ZN4grpc8internal17CallOpSendMessage30SetFinishInterceptionHookPointEPNS0_27InterceptorBatchMethodsImplE, symObjAddr: 0x7310, symBinAddr: 0x164A0, symSize: 0x108 }
  - { offsetInCU: 0x526AC, offset: 0x176845, size: 0x8, addend: 0x0, symName: __ZN4grpc8internal9CallOpSetINS0_25CallOpSendInitialMetadataENS0_17CallOpSendMessageENS0_22CallOpServerSendStatusENS0_8CallNoOpILi4EEENS5_ILi5EEENS5_ILi6EEEE7FillOpsEPNS0_4CallE, symObjAddr: 0x7098, symBinAddr: 0x16228, symSize: 0x60 }
  - { offsetInCU: 0x52738, offset: 0x1768D1, size: 0x8, addend: 0x0, symName: __ZN4grpc8internal9CallOpSetINS0_25CallOpSendInitialMetadataENS0_17CallOpSendMessageENS0_22CallOpServerSendStatusENS0_8CallNoOpILi4EEENS5_ILi5EEENS5_ILi6EEEE15RunInterceptorsEv, symObjAddr: 0x7680, symBinAddr: 0x16810, symSize: 0xE4 }
  - { offsetInCU: 0x529DD, offset: 0x176B76, size: 0x8, addend: 0x0, symName: __ZN4grpc8internal9CallOpSetINS0_25CallOpSendInitialMetadataENS0_17CallOpSendMessageENS0_22CallOpServerSendStatusENS0_8CallNoOpILi4EEENS5_ILi5EEENS5_ILi6EEEE11core_cq_tagEv, symObjAddr: 0x70F8, symBinAddr: 0x16288, symSize: 0x8 }
  - { offsetInCU: 0x52A42, offset: 0x176BDB, size: 0x8, addend: 0x0, symName: __ZN4grpc8internal9CallOpSetINS0_25CallOpSendInitialMetadataENS0_17CallOpSendMessageENS0_22CallOpServerSendStatusENS0_8CallNoOpILi4EEENS5_ILi5EEENS5_ILi6EEEE17SetHijackingStateEv, symObjAddr: 0x7100, symBinAddr: 0x16290, symSize: 0x14 }
  - { offsetInCU: 0x52AE3, offset: 0x176C7C, size: 0x8, addend: 0x0, symName: __ZN4grpc8internal17CallOpSendMessage5AddOpEP7grpc_opPm, symObjAddr: 0x7870, symBinAddr: 0x16A00, symSize: 0x18C }
  - { offsetInCU: 0x52F9E, offset: 0x177137, size: 0x8, addend: 0x0, symName: __ZN4grpc8internal22CallOpServerSendStatus5AddOpEP7grpc_opPm, symObjAddr: 0x79FC, symBinAddr: 0x16B8C, symSize: 0x12C }
  - { offsetInCU: 0x53125, offset: 0x1772BE, size: 0x8, addend: 0x0, symName: __ZN4grpc8internal9CallOpSetINS0_25CallOpSendInitialMetadataENS0_17CallOpSendMessageENS0_22CallOpServerSendStatusENS0_8CallNoOpILi4EEENS5_ILi5EEENS5_ILi6EEEE32ContinueFillOpsAfterInterceptionEv.cold.1, symObjAddr: 0xA958, symBinAddr: 0x31CE8, symSize: 0x28 }
  - { offsetInCU: 0x5313D, offset: 0x1772D6, size: 0x8, addend: 0x0, symName: __ZN4grpc8internal9CallOpSetINS0_25CallOpSendInitialMetadataENS0_17CallOpSendMessageENS0_22CallOpServerSendStatusENS0_8CallNoOpILi4EEENS5_ILi5EEENS5_ILi6EEEE39ContinueFinalizeResultAfterInterceptionEv, symObjAddr: 0x724C, symBinAddr: 0x163DC, symSize: 0x5C }
  - { offsetInCU: 0x531C3, offset: 0x17735C, size: 0x8, addend: 0x0, symName: __ZN4grpc8internal17CallOpSendMessage8FinishOpEPb, symObjAddr: 0x72A8, symBinAddr: 0x16438, symSize: 0x68 }
  - { offsetInCU: 0x531D7, offset: 0x177370, size: 0x8, addend: 0x0, symName: __ZN4grpc8internal9CallOpSetINS0_25CallOpSendInitialMetadataENS0_17CallOpSendMessageENS0_22CallOpServerSendStatusENS0_8CallNoOpILi4EEENS5_ILi5EEENS5_ILi6EEEE39ContinueFinalizeResultAfterInterceptionEv.cold.1, symObjAddr: 0xA980, symBinAddr: 0x31D10, symSize: 0x20 }
  - { offsetInCU: 0x53277, offset: 0x177410, size: 0x8, addend: 0x0, symName: __ZNSt3__18functionIFN4grpc6StatusEPKvEEaSERKS6_, symObjAddr: 0x7418, symBinAddr: 0x165A8, symSize: 0x98 }
  - { offsetInCU: 0x534A5, offset: 0x17763E, size: 0x8, addend: 0x0, symName: __ZNSt3__110__function12__value_funcIFN4grpc6StatusEPKvEEC2B8ue170006ERKS7_, symObjAddr: 0x74B0, symBinAddr: 0x16640, symSize: 0x64 }
  - { offsetInCU: 0x53500, offset: 0x177699, size: 0x8, addend: 0x0, symName: __ZNSt3__110__function12__value_funcIFN4grpc6StatusEPKvEE4swapB8ue170006ERS7_, symObjAddr: 0x7514, symBinAddr: 0x166A4, symSize: 0x16C }
  - { offsetInCU: 0x536BF, offset: 0x177858, size: 0x8, addend: 0x0, symName: __ZN4grpc8internal17CallOpSendMessage24SetInterceptionHookPointEPNS0_27InterceptorBatchMethodsImplE, symObjAddr: 0x7764, symBinAddr: 0x168F4, symSize: 0x10C }
  - { offsetInCU: 0x53A05, offset: 0x177B9E, size: 0x8, addend: 0x0, symName: __ZN4grpc8internal22CallbackWithSuccessTag5ClearEv, symObjAddr: 0x7BE4, symBinAddr: 0x16D74, symSize: 0x6C }
  - { offsetInCU: 0x53B8C, offset: 0x177D25, size: 0x8, addend: 0x0, symName: __ZN4grpc8internal22CallbackWithSuccessTag3SetEP9grpc_callNSt3__18functionIFvbEEEPNS0_18CompletionQueueTagEb.cold.1, symObjAddr: 0xA9A0, symBinAddr: 0x31D30, symSize: 0x44 }
  - { offsetInCU: 0x53C1F, offset: 0x177DB8, size: 0x8, addend: 0x0, symName: __ZN4grpc8internal22CallbackWithSuccessTag9StaticRunEP29grpc_completion_queue_functori, symObjAddr: 0x7F0C, symBinAddr: 0x1709C, symSize: 0xC }
  - { offsetInCU: 0x53C69, offset: 0x177E02, size: 0x8, addend: 0x0, symName: __ZN4grpc8internal22CallbackWithSuccessTag3RunEb, symObjAddr: 0x7FA8, symBinAddr: 0x170A8, symSize: 0x6C }
  - { offsetInCU: 0x53D0D, offset: 0x177EA6, size: 0x8, addend: 0x0, symName: __ZN4grpc8internal16CatchingCallbackIRNSt3__18functionIFvbEEEJRbEEEvOT_DpOT0_, symObjAddr: 0x8014, symBinAddr: 0x17114, symSize: 0x4C }
  - { offsetInCU: 0x53D21, offset: 0x177EBA, size: 0x8, addend: 0x0, symName: __ZN4grpc8internal22CallbackWithSuccessTag3RunEb.cold.1, symObjAddr: 0xA9E4, symBinAddr: 0x31D74, symSize: 0x28 }
  - { offsetInCU: 0x53D89, offset: 0x177F22, size: 0x8, addend: 0x0, symName: __ZNSt3__110__function6__funcIZN4grpc8internal20CallbackUnaryHandlerINS2_10ByteBufferES5_E23ServerCallbackUnaryImpl6FinishENS2_6StatusEEUlbE_NS_9allocatorIS9_EEFvbEED1Ev, symObjAddr: 0x8060, symBinAddr: 0x17160, symSize: 0x4 }
  - { offsetInCU: 0x53DB5, offset: 0x177F4E, size: 0x8, addend: 0x0, symName: __ZNSt3__110__function6__funcIZN4grpc8internal20CallbackUnaryHandlerINS2_10ByteBufferES5_E23ServerCallbackUnaryImpl6FinishENS2_6StatusEEUlbE_NS_9allocatorIS9_EEFvbEED0Ev, symObjAddr: 0x8064, symBinAddr: 0x17164, symSize: 0x4 }
  - { offsetInCU: 0x53FB9, offset: 0x178152, size: 0x8, addend: 0x0, symName: __ZNKSt3__110__function6__funcIZN4grpc8internal20CallbackUnaryHandlerINS2_10ByteBufferES5_E23ServerCallbackUnaryImpl6FinishENS2_6StatusEEUlbE_NS_9allocatorIS9_EEFvbEE7__cloneEv, symObjAddr: 0x8068, symBinAddr: 0x17168, symSize: 0x34 }
  - { offsetInCU: 0x542AE, offset: 0x178447, size: 0x8, addend: 0x0, symName: __ZNKSt3__110__function6__funcIZN4grpc8internal20CallbackUnaryHandlerINS2_10ByteBufferES5_E23ServerCallbackUnaryImpl6FinishENS2_6StatusEEUlbE_NS_9allocatorIS9_EEFvbEE7__cloneEPNS0_6__baseISC_EE, symObjAddr: 0x809C, symBinAddr: 0x1719C, symSize: 0x14 }
  - { offsetInCU: 0x542E6, offset: 0x17847F, size: 0x8, addend: 0x0, symName: __ZNKSt3__110__function6__funcIZN4grpc8internal20CallbackUnaryHandlerINS2_10ByteBufferES5_E23ServerCallbackUnaryImpl6FinishENS2_6StatusEEUlbE_NS_9allocatorIS9_EEFvbEE7__cloneEPNS0_6__baseISC_EE, symObjAddr: 0x809C, symBinAddr: 0x1719C, symSize: 0x14 }
  - { offsetInCU: 0x54314, offset: 0x1784AD, size: 0x8, addend: 0x0, symName: __ZNKSt3__110__function6__funcIZN4grpc8internal20CallbackUnaryHandlerINS2_10ByteBufferES5_E23ServerCallbackUnaryImpl6FinishENS2_6StatusEEUlbE_NS_9allocatorIS9_EEFvbEE7__cloneEPNS0_6__baseISC_EE, symObjAddr: 0x809C, symBinAddr: 0x1719C, symSize: 0x14 }
  - { offsetInCU: 0x54342, offset: 0x1784DB, size: 0x8, addend: 0x0, symName: __ZNKSt3__110__function6__funcIZN4grpc8internal20CallbackUnaryHandlerINS2_10ByteBufferES5_E23ServerCallbackUnaryImpl6FinishENS2_6StatusEEUlbE_NS_9allocatorIS9_EEFvbEE7__cloneEPNS0_6__baseISC_EE, symObjAddr: 0x809C, symBinAddr: 0x1719C, symSize: 0x14 }
  - { offsetInCU: 0x54357, offset: 0x1784F0, size: 0x8, addend: 0x0, symName: __ZNKSt3__110__function6__funcIZN4grpc8internal20CallbackUnaryHandlerINS2_10ByteBufferES5_E23ServerCallbackUnaryImpl6FinishENS2_6StatusEEUlbE_NS_9allocatorIS9_EEFvbEE7__cloneEPNS0_6__baseISC_EE, symObjAddr: 0x809C, symBinAddr: 0x1719C, symSize: 0x14 }
  - { offsetInCU: 0x5436B, offset: 0x178504, size: 0x8, addend: 0x0, symName: __ZNKSt3__110__function6__funcIZN4grpc8internal20CallbackUnaryHandlerINS2_10ByteBufferES5_E23ServerCallbackUnaryImpl6FinishENS2_6StatusEEUlbE_NS_9allocatorIS9_EEFvbEE7__cloneEPNS0_6__baseISC_EE, symObjAddr: 0x809C, symBinAddr: 0x1719C, symSize: 0x14 }
  - { offsetInCU: 0x5437F, offset: 0x178518, size: 0x8, addend: 0x0, symName: __ZNKSt3__110__function6__funcIZN4grpc8internal20CallbackUnaryHandlerINS2_10ByteBufferES5_E23ServerCallbackUnaryImpl6FinishENS2_6StatusEEUlbE_NS_9allocatorIS9_EEFvbEE7__cloneEPNS0_6__baseISC_EE, symObjAddr: 0x809C, symBinAddr: 0x1719C, symSize: 0x14 }
  - { offsetInCU: 0x54394, offset: 0x17852D, size: 0x8, addend: 0x0, symName: __ZNKSt3__110__function6__funcIZN4grpc8internal20CallbackUnaryHandlerINS2_10ByteBufferES5_E23ServerCallbackUnaryImpl6FinishENS2_6StatusEEUlbE_NS_9allocatorIS9_EEFvbEE7__cloneEPNS0_6__baseISC_EE, symObjAddr: 0x809C, symBinAddr: 0x1719C, symSize: 0x14 }
  - { offsetInCU: 0x543AC, offset: 0x178545, size: 0x8, addend: 0x0, symName: __ZNSt3__110__function6__funcIZN4grpc8internal20CallbackUnaryHandlerINS2_10ByteBufferES5_E23ServerCallbackUnaryImpl6FinishENS2_6StatusEEUlbE_NS_9allocatorIS9_EEFvbEE7destroyEv, symObjAddr: 0x80B0, symBinAddr: 0x171B0, symSize: 0x4 }
  - { offsetInCU: 0x543FF, offset: 0x178598, size: 0x8, addend: 0x0, symName: __ZNSt3__110__function6__funcIZN4grpc8internal20CallbackUnaryHandlerINS2_10ByteBufferES5_E23ServerCallbackUnaryImpl6FinishENS2_6StatusEEUlbE_NS_9allocatorIS9_EEFvbEE18destroy_deallocateEv, symObjAddr: 0x80B4, symBinAddr: 0x171B4, symSize: 0x4 }
  - { offsetInCU: 0x54435, offset: 0x1785CE, size: 0x8, addend: 0x0, symName: __ZNSt3__110__function6__funcIZN4grpc8internal20CallbackUnaryHandlerINS2_10ByteBufferES5_E23ServerCallbackUnaryImpl6FinishENS2_6StatusEEUlbE_NS_9allocatorIS9_EEFvbEE18destroy_deallocateEv, symObjAddr: 0x80B4, symBinAddr: 0x171B4, symSize: 0x4 }
  - { offsetInCU: 0x54457, offset: 0x1785F0, size: 0x8, addend: 0x0, symName: __ZNSt3__110__function6__funcIZN4grpc8internal20CallbackUnaryHandlerINS2_10ByteBufferES5_E23ServerCallbackUnaryImpl6FinishENS2_6StatusEEUlbE_NS_9allocatorIS9_EEFvbEE18destroy_deallocateEv, symObjAddr: 0x80B4, symBinAddr: 0x171B4, symSize: 0x4 }
  - { offsetInCU: 0x54482, offset: 0x17861B, size: 0x8, addend: 0x0, symName: __ZNSt3__110__function6__funcIZN4grpc8internal20CallbackUnaryHandlerINS2_10ByteBufferES5_E23ServerCallbackUnaryImpl6FinishENS2_6StatusEEUlbE_NS_9allocatorIS9_EEFvbEE18destroy_deallocateEv, symObjAddr: 0x80B4, symBinAddr: 0x171B4, symSize: 0x4 }
  - { offsetInCU: 0x544A8, offset: 0x178641, size: 0x8, addend: 0x0, symName: __ZNSt3__110__function6__funcIZN4grpc8internal20CallbackUnaryHandlerINS2_10ByteBufferES5_E23ServerCallbackUnaryImpl6FinishENS2_6StatusEEUlbE_NS_9allocatorIS9_EEFvbEE18destroy_deallocateEv, symObjAddr: 0x80B4, symBinAddr: 0x171B4, symSize: 0x4 }
  - { offsetInCU: 0x5454E, offset: 0x1786E7, size: 0x8, addend: 0x0, symName: __ZNSt3__110__function6__funcIZN4grpc8internal20CallbackUnaryHandlerINS2_10ByteBufferES5_E23ServerCallbackUnaryImpl6FinishENS2_6StatusEEUlbE_NS_9allocatorIS9_EEFvbEEclEOb, symObjAddr: 0x80B8, symBinAddr: 0x171B8, symSize: 0x58 }
  - { offsetInCU: 0x546C0, offset: 0x178859, size: 0x8, addend: 0x0, symName: __ZNKSt3__110__function6__funcIZN4grpc8internal20CallbackUnaryHandlerINS2_10ByteBufferES5_E23ServerCallbackUnaryImpl6FinishENS2_6StatusEEUlbE_NS_9allocatorIS9_EEFvbEE6targetERKSt9type_info, symObjAddr: 0x8110, symBinAddr: 0x17210, symSize: 0x3C }
  - { offsetInCU: 0x54710, offset: 0x1788A9, size: 0x8, addend: 0x0, symName: __ZNKSt3__110__function6__funcIZN4grpc8internal20CallbackUnaryHandlerINS2_10ByteBufferES5_E23ServerCallbackUnaryImpl6FinishENS2_6StatusEEUlbE_NS_9allocatorIS9_EEFvbEE11target_typeEv, symObjAddr: 0x814C, symBinAddr: 0x1724C, symSize: 0xC }
  - { offsetInCU: 0x54907, offset: 0x178AA0, size: 0x8, addend: 0x0, symName: __ZNSt3__110__function6__funcIZN4grpc8internal17CallOpSendMessage14SendMessagePtrINS2_10ByteBufferEEENS2_6StatusEPKT_NS2_12WriteOptionsEEUlPKvE_NS_9allocatorISE_EEFS7_SD_EED1Ev, symObjAddr: 0x8200, symBinAddr: 0x17300, symSize: 0x4 }
  - { offsetInCU: 0x54933, offset: 0x178ACC, size: 0x8, addend: 0x0, symName: __ZNSt3__110__function6__funcIZN4grpc8internal17CallOpSendMessage14SendMessagePtrINS2_10ByteBufferEEENS2_6StatusEPKT_NS2_12WriteOptionsEEUlPKvE_NS_9allocatorISE_EEFS7_SD_EED0Ev, symObjAddr: 0x8204, symBinAddr: 0x17304, symSize: 0x4 }
  - { offsetInCU: 0x54B37, offset: 0x178CD0, size: 0x8, addend: 0x0, symName: __ZNKSt3__110__function6__funcIZN4grpc8internal17CallOpSendMessage14SendMessagePtrINS2_10ByteBufferEEENS2_6StatusEPKT_NS2_12WriteOptionsEEUlPKvE_NS_9allocatorISE_EEFS7_SD_EE7__cloneEv, symObjAddr: 0x8208, symBinAddr: 0x17308, symSize: 0x38 }
  - { offsetInCU: 0x54E2C, offset: 0x178FC5, size: 0x8, addend: 0x0, symName: __ZNKSt3__110__function6__funcIZN4grpc8internal17CallOpSendMessage14SendMessagePtrINS2_10ByteBufferEEENS2_6StatusEPKT_NS2_12WriteOptionsEEUlPKvE_NS_9allocatorISE_EEFS7_SD_EE7__cloneEPNS0_6__baseISH_EE, symObjAddr: 0x8240, symBinAddr: 0x17340, symSize: 0x18 }
  - { offsetInCU: 0x54E64, offset: 0x178FFD, size: 0x8, addend: 0x0, symName: __ZNKSt3__110__function6__funcIZN4grpc8internal17CallOpSendMessage14SendMessagePtrINS2_10ByteBufferEEENS2_6StatusEPKT_NS2_12WriteOptionsEEUlPKvE_NS_9allocatorISE_EEFS7_SD_EE7__cloneEPNS0_6__baseISH_EE, symObjAddr: 0x8240, symBinAddr: 0x17340, symSize: 0x18 }
  - { offsetInCU: 0x54E92, offset: 0x17902B, size: 0x8, addend: 0x0, symName: __ZNKSt3__110__function6__funcIZN4grpc8internal17CallOpSendMessage14SendMessagePtrINS2_10ByteBufferEEENS2_6StatusEPKT_NS2_12WriteOptionsEEUlPKvE_NS_9allocatorISE_EEFS7_SD_EE7__cloneEPNS0_6__baseISH_EE, symObjAddr: 0x8240, symBinAddr: 0x17340, symSize: 0x18 }
  - { offsetInCU: 0x54F2A, offset: 0x1790C3, size: 0x8, addend: 0x0, symName: __ZNSt3__110__function6__funcIZN4grpc8internal17CallOpSendMessage14SendMessagePtrINS2_10ByteBufferEEENS2_6StatusEPKT_NS2_12WriteOptionsEEUlPKvE_NS_9allocatorISE_EEFS7_SD_EE7destroyEv, symObjAddr: 0x8258, symBinAddr: 0x17358, symSize: 0x4 }
  - { offsetInCU: 0x54F7D, offset: 0x179116, size: 0x8, addend: 0x0, symName: __ZNSt3__110__function6__funcIZN4grpc8internal17CallOpSendMessage14SendMessagePtrINS2_10ByteBufferEEENS2_6StatusEPKT_NS2_12WriteOptionsEEUlPKvE_NS_9allocatorISE_EEFS7_SD_EE18destroy_deallocateEv, symObjAddr: 0x825C, symBinAddr: 0x1735C, symSize: 0x4 }
  - { offsetInCU: 0x54FB3, offset: 0x17914C, size: 0x8, addend: 0x0, symName: __ZNSt3__110__function6__funcIZN4grpc8internal17CallOpSendMessage14SendMessagePtrINS2_10ByteBufferEEENS2_6StatusEPKT_NS2_12WriteOptionsEEUlPKvE_NS_9allocatorISE_EEFS7_SD_EE18destroy_deallocateEv, symObjAddr: 0x825C, symBinAddr: 0x1735C, symSize: 0x4 }
  - { offsetInCU: 0x54FD5, offset: 0x17916E, size: 0x8, addend: 0x0, symName: __ZNSt3__110__function6__funcIZN4grpc8internal17CallOpSendMessage14SendMessagePtrINS2_10ByteBufferEEENS2_6StatusEPKT_NS2_12WriteOptionsEEUlPKvE_NS_9allocatorISE_EEFS7_SD_EE18destroy_deallocateEv, symObjAddr: 0x825C, symBinAddr: 0x1735C, symSize: 0x4 }
  - { offsetInCU: 0x55000, offset: 0x179199, size: 0x8, addend: 0x0, symName: __ZNSt3__110__function6__funcIZN4grpc8internal17CallOpSendMessage14SendMessagePtrINS2_10ByteBufferEEENS2_6StatusEPKT_NS2_12WriteOptionsEEUlPKvE_NS_9allocatorISE_EEFS7_SD_EE18destroy_deallocateEv, symObjAddr: 0x825C, symBinAddr: 0x1735C, symSize: 0x4 }
  - { offsetInCU: 0x55026, offset: 0x1791BF, size: 0x8, addend: 0x0, symName: __ZNSt3__110__function6__funcIZN4grpc8internal17CallOpSendMessage14SendMessagePtrINS2_10ByteBufferEEENS2_6StatusEPKT_NS2_12WriteOptionsEEUlPKvE_NS_9allocatorISE_EEFS7_SD_EE18destroy_deallocateEv, symObjAddr: 0x825C, symBinAddr: 0x1735C, symSize: 0x4 }
  - { offsetInCU: 0x55071, offset: 0x17920A, size: 0x8, addend: 0x0, symName: __ZNSt3__110__function6__funcIZN4grpc8internal17CallOpSendMessage14SendMessagePtrINS2_10ByteBufferEEENS2_6StatusEPKT_NS2_12WriteOptionsEEUlPKvE_NS_9allocatorISE_EEFS7_SD_EEclEOSD_, symObjAddr: 0x8260, symBinAddr: 0x17360, symSize: 0x8 }
  - { offsetInCU: 0x550EC, offset: 0x179285, size: 0x8, addend: 0x0, symName: __ZNSt3__128__invoke_void_return_wrapperIN4grpc6StatusELb0EE6__callB8ue170006IJRZNS1_8internal17CallOpSendMessage14SendMessagePtrINS1_10ByteBufferEEES2_PKT_NS1_12WriteOptionsEEUlPKvE_SE_EEES2_DpOT_, symObjAddr: 0x82B0, symBinAddr: 0x173B0, symSize: 0xA4 }
  - { offsetInCU: 0x55423, offset: 0x1795BC, size: 0x8, addend: 0x0, symName: __ZNKSt3__110__function6__funcIZN4grpc8internal17CallOpSendMessage14SendMessagePtrINS2_10ByteBufferEEENS2_6StatusEPKT_NS2_12WriteOptionsEEUlPKvE_NS_9allocatorISE_EEFS7_SD_EE6targetERKSt9type_info, symObjAddr: 0x8268, symBinAddr: 0x17368, symSize: 0x3C }
  - { offsetInCU: 0x55473, offset: 0x17960C, size: 0x8, addend: 0x0, symName: __ZNKSt3__110__function6__funcIZN4grpc8internal17CallOpSendMessage14SendMessagePtrINS2_10ByteBufferEEENS2_6StatusEPKT_NS2_12WriteOptionsEEUlPKvE_NS_9allocatorISE_EEFS7_SD_EE11target_typeEv, symObjAddr: 0x82A4, symBinAddr: 0x173A4, symSize: 0xC }
  - { offsetInCU: 0x554F7, offset: 0x179690, size: 0x8, addend: 0x0, symName: __ZN4grpc19SerializationTraitsINS_10ByteBufferEvE9SerializeERKS1_PS1_Pb, symObjAddr: 0x8354, symBinAddr: 0x17454, symSize: 0xCC }
  - { offsetInCU: 0x557AB, offset: 0x179944, size: 0x8, addend: 0x0, symName: __ZNSt3__128__invoke_void_return_wrapperIN4grpc6StatusELb0EE6__callB8ue170006IJRZNS1_8internal17CallOpSendMessage14SendMessagePtrINS1_10ByteBufferEEES2_PKT_NS1_12WriteOptionsEEUlPKvE_SE_EEES2_DpOT_.cold.1, symObjAddr: 0xAA0C, symBinAddr: 0x31D9C, symSize: 0x20 }
  - { offsetInCU: 0x5591E, offset: 0x179AB7, size: 0x8, addend: 0x0, symName: __ZN4grpc10ByteBufferaSERKS0_, symObjAddr: 0x8420, symBinAddr: 0x17520, symSize: 0x4C }
  - { offsetInCU: 0x5598D, offset: 0x179B26, size: 0x8, addend: 0x0, symName: __ZNSt3__110__function6__funcIZN4grpc8internal20CallbackUnaryHandlerINS2_10ByteBufferES5_E23ServerCallbackUnaryImpl19SendInitialMetadataEvEUlbE_NS_9allocatorIS8_EEFvbEED1Ev, symObjAddr: 0x846C, symBinAddr: 0x1756C, symSize: 0x4 }
  - { offsetInCU: 0x559B9, offset: 0x179B52, size: 0x8, addend: 0x0, symName: __ZNSt3__110__function6__funcIZN4grpc8internal20CallbackUnaryHandlerINS2_10ByteBufferES5_E23ServerCallbackUnaryImpl19SendInitialMetadataEvEUlbE_NS_9allocatorIS8_EEFvbEED0Ev, symObjAddr: 0x8470, symBinAddr: 0x17570, symSize: 0x4 }
  - { offsetInCU: 0x55BBD, offset: 0x179D56, size: 0x8, addend: 0x0, symName: __ZNKSt3__110__function6__funcIZN4grpc8internal20CallbackUnaryHandlerINS2_10ByteBufferES5_E23ServerCallbackUnaryImpl19SendInitialMetadataEvEUlbE_NS_9allocatorIS8_EEFvbEE7__cloneEv, symObjAddr: 0x8474, symBinAddr: 0x17574, symSize: 0x34 }
  - { offsetInCU: 0x55EB2, offset: 0x17A04B, size: 0x8, addend: 0x0, symName: __ZNKSt3__110__function6__funcIZN4grpc8internal20CallbackUnaryHandlerINS2_10ByteBufferES5_E23ServerCallbackUnaryImpl19SendInitialMetadataEvEUlbE_NS_9allocatorIS8_EEFvbEE7__cloneEPNS0_6__baseISB_EE, symObjAddr: 0x84A8, symBinAddr: 0x175A8, symSize: 0x14 }
  - { offsetInCU: 0x55EEA, offset: 0x17A083, size: 0x8, addend: 0x0, symName: __ZNKSt3__110__function6__funcIZN4grpc8internal20CallbackUnaryHandlerINS2_10ByteBufferES5_E23ServerCallbackUnaryImpl19SendInitialMetadataEvEUlbE_NS_9allocatorIS8_EEFvbEE7__cloneEPNS0_6__baseISB_EE, symObjAddr: 0x84A8, symBinAddr: 0x175A8, symSize: 0x14 }
  - { offsetInCU: 0x55F18, offset: 0x17A0B1, size: 0x8, addend: 0x0, symName: __ZNKSt3__110__function6__funcIZN4grpc8internal20CallbackUnaryHandlerINS2_10ByteBufferES5_E23ServerCallbackUnaryImpl19SendInitialMetadataEvEUlbE_NS_9allocatorIS8_EEFvbEE7__cloneEPNS0_6__baseISB_EE, symObjAddr: 0x84A8, symBinAddr: 0x175A8, symSize: 0x14 }
  - { offsetInCU: 0x55F46, offset: 0x17A0DF, size: 0x8, addend: 0x0, symName: __ZNKSt3__110__function6__funcIZN4grpc8internal20CallbackUnaryHandlerINS2_10ByteBufferES5_E23ServerCallbackUnaryImpl19SendInitialMetadataEvEUlbE_NS_9allocatorIS8_EEFvbEE7__cloneEPNS0_6__baseISB_EE, symObjAddr: 0x84A8, symBinAddr: 0x175A8, symSize: 0x14 }
  - { offsetInCU: 0x55F5B, offset: 0x17A0F4, size: 0x8, addend: 0x0, symName: __ZNKSt3__110__function6__funcIZN4grpc8internal20CallbackUnaryHandlerINS2_10ByteBufferES5_E23ServerCallbackUnaryImpl19SendInitialMetadataEvEUlbE_NS_9allocatorIS8_EEFvbEE7__cloneEPNS0_6__baseISB_EE, symObjAddr: 0x84A8, symBinAddr: 0x175A8, symSize: 0x14 }
  - { offsetInCU: 0x55F6F, offset: 0x17A108, size: 0x8, addend: 0x0, symName: __ZNKSt3__110__function6__funcIZN4grpc8internal20CallbackUnaryHandlerINS2_10ByteBufferES5_E23ServerCallbackUnaryImpl19SendInitialMetadataEvEUlbE_NS_9allocatorIS8_EEFvbEE7__cloneEPNS0_6__baseISB_EE, symObjAddr: 0x84A8, symBinAddr: 0x175A8, symSize: 0x14 }
  - { offsetInCU: 0x55F83, offset: 0x17A11C, size: 0x8, addend: 0x0, symName: __ZNKSt3__110__function6__funcIZN4grpc8internal20CallbackUnaryHandlerINS2_10ByteBufferES5_E23ServerCallbackUnaryImpl19SendInitialMetadataEvEUlbE_NS_9allocatorIS8_EEFvbEE7__cloneEPNS0_6__baseISB_EE, symObjAddr: 0x84A8, symBinAddr: 0x175A8, symSize: 0x14 }
  - { offsetInCU: 0x55F98, offset: 0x17A131, size: 0x8, addend: 0x0, symName: __ZNKSt3__110__function6__funcIZN4grpc8internal20CallbackUnaryHandlerINS2_10ByteBufferES5_E23ServerCallbackUnaryImpl19SendInitialMetadataEvEUlbE_NS_9allocatorIS8_EEFvbEE7__cloneEPNS0_6__baseISB_EE, symObjAddr: 0x84A8, symBinAddr: 0x175A8, symSize: 0x14 }
  - { offsetInCU: 0x55FB0, offset: 0x17A149, size: 0x8, addend: 0x0, symName: __ZNSt3__110__function6__funcIZN4grpc8internal20CallbackUnaryHandlerINS2_10ByteBufferES5_E23ServerCallbackUnaryImpl19SendInitialMetadataEvEUlbE_NS_9allocatorIS8_EEFvbEE7destroyEv, symObjAddr: 0x84BC, symBinAddr: 0x175BC, symSize: 0x4 }
  - { offsetInCU: 0x56003, offset: 0x17A19C, size: 0x8, addend: 0x0, symName: __ZNSt3__110__function6__funcIZN4grpc8internal20CallbackUnaryHandlerINS2_10ByteBufferES5_E23ServerCallbackUnaryImpl19SendInitialMetadataEvEUlbE_NS_9allocatorIS8_EEFvbEE18destroy_deallocateEv, symObjAddr: 0x84C0, symBinAddr: 0x175C0, symSize: 0x4 }
  - { offsetInCU: 0x56039, offset: 0x17A1D2, size: 0x8, addend: 0x0, symName: __ZNSt3__110__function6__funcIZN4grpc8internal20CallbackUnaryHandlerINS2_10ByteBufferES5_E23ServerCallbackUnaryImpl19SendInitialMetadataEvEUlbE_NS_9allocatorIS8_EEFvbEE18destroy_deallocateEv, symObjAddr: 0x84C0, symBinAddr: 0x175C0, symSize: 0x4 }
  - { offsetInCU: 0x5605B, offset: 0x17A1F4, size: 0x8, addend: 0x0, symName: __ZNSt3__110__function6__funcIZN4grpc8internal20CallbackUnaryHandlerINS2_10ByteBufferES5_E23ServerCallbackUnaryImpl19SendInitialMetadataEvEUlbE_NS_9allocatorIS8_EEFvbEE18destroy_deallocateEv, symObjAddr: 0x84C0, symBinAddr: 0x175C0, symSize: 0x4 }
  - { offsetInCU: 0x56086, offset: 0x17A21F, size: 0x8, addend: 0x0, symName: __ZNSt3__110__function6__funcIZN4grpc8internal20CallbackUnaryHandlerINS2_10ByteBufferES5_E23ServerCallbackUnaryImpl19SendInitialMetadataEvEUlbE_NS_9allocatorIS8_EEFvbEE18destroy_deallocateEv, symObjAddr: 0x84C0, symBinAddr: 0x175C0, symSize: 0x4 }
  - { offsetInCU: 0x560AC, offset: 0x17A245, size: 0x8, addend: 0x0, symName: __ZNSt3__110__function6__funcIZN4grpc8internal20CallbackUnaryHandlerINS2_10ByteBufferES5_E23ServerCallbackUnaryImpl19SendInitialMetadataEvEUlbE_NS_9allocatorIS8_EEFvbEE18destroy_deallocateEv, symObjAddr: 0x84C0, symBinAddr: 0x175C0, symSize: 0x4 }
  - { offsetInCU: 0x560F7, offset: 0x17A290, size: 0x8, addend: 0x0, symName: __ZNSt3__110__function6__funcIZN4grpc8internal20CallbackUnaryHandlerINS2_10ByteBufferES5_E23ServerCallbackUnaryImpl19SendInitialMetadataEvEUlbE_NS_9allocatorIS8_EEFvbEEclEOb, symObjAddr: 0x84C4, symBinAddr: 0x175C4, symSize: 0x8 }
  - { offsetInCU: 0x5616A, offset: 0x17A303, size: 0x8, addend: 0x0, symName: __ZNSt3__128__invoke_void_return_wrapperIvLb1EE6__callB8ue170006IJRZN4grpc8internal20CallbackUnaryHandlerINS3_10ByteBufferES6_E23ServerCallbackUnaryImpl19SendInitialMetadataEvEUlbE_bEEEvDpOT_, symObjAddr: 0x8514, symBinAddr: 0x17614, symSize: 0x5C }
  - { offsetInCU: 0x562DA, offset: 0x17A473, size: 0x8, addend: 0x0, symName: __ZNKSt3__110__function6__funcIZN4grpc8internal20CallbackUnaryHandlerINS2_10ByteBufferES5_E23ServerCallbackUnaryImpl19SendInitialMetadataEvEUlbE_NS_9allocatorIS8_EEFvbEE6targetERKSt9type_info, symObjAddr: 0x84CC, symBinAddr: 0x175CC, symSize: 0x3C }
  - { offsetInCU: 0x5632A, offset: 0x17A4C3, size: 0x8, addend: 0x0, symName: __ZNKSt3__110__function6__funcIZN4grpc8internal20CallbackUnaryHandlerINS2_10ByteBufferES5_E23ServerCallbackUnaryImpl19SendInitialMetadataEvEUlbE_NS_9allocatorIS8_EEFvbEE11target_typeEv, symObjAddr: 0x8508, symBinAddr: 0x17608, symSize: 0xC }
  - { offsetInCU: 0x56389, offset: 0x17A522, size: 0x8, addend: 0x0, symName: __ZNSt3__110__function6__funcIZN4grpc8internal20CallbackUnaryHandlerINS2_10ByteBufferES5_E10RunHandlerERKNS3_13MethodHandler16HandlerParameterEEUlbE_NS_9allocatorISB_EEFvbEED1Ev, symObjAddr: 0x8570, symBinAddr: 0x17670, symSize: 0x4 }
  - { offsetInCU: 0x563B5, offset: 0x17A54E, size: 0x8, addend: 0x0, symName: __ZNSt3__110__function6__funcIZN4grpc8internal20CallbackUnaryHandlerINS2_10ByteBufferES5_E10RunHandlerERKNS3_13MethodHandler16HandlerParameterEEUlbE_NS_9allocatorISB_EEFvbEED0Ev, symObjAddr: 0x8574, symBinAddr: 0x17674, symSize: 0x4 }
  - { offsetInCU: 0x565B9, offset: 0x17A752, size: 0x8, addend: 0x0, symName: __ZNKSt3__110__function6__funcIZN4grpc8internal20CallbackUnaryHandlerINS2_10ByteBufferES5_E10RunHandlerERKNS3_13MethodHandler16HandlerParameterEEUlbE_NS_9allocatorISB_EEFvbEE7__cloneEv, symObjAddr: 0x8578, symBinAddr: 0x17678, symSize: 0x34 }
  - { offsetInCU: 0x568AE, offset: 0x17AA47, size: 0x8, addend: 0x0, symName: __ZNKSt3__110__function6__funcIZN4grpc8internal20CallbackUnaryHandlerINS2_10ByteBufferES5_E10RunHandlerERKNS3_13MethodHandler16HandlerParameterEEUlbE_NS_9allocatorISB_EEFvbEE7__cloneEPNS0_6__baseISE_EE, symObjAddr: 0x85AC, symBinAddr: 0x176AC, symSize: 0x14 }
  - { offsetInCU: 0x568E6, offset: 0x17AA7F, size: 0x8, addend: 0x0, symName: __ZNKSt3__110__function6__funcIZN4grpc8internal20CallbackUnaryHandlerINS2_10ByteBufferES5_E10RunHandlerERKNS3_13MethodHandler16HandlerParameterEEUlbE_NS_9allocatorISB_EEFvbEE7__cloneEPNS0_6__baseISE_EE, symObjAddr: 0x85AC, symBinAddr: 0x176AC, symSize: 0x14 }
  - { offsetInCU: 0x56914, offset: 0x17AAAD, size: 0x8, addend: 0x0, symName: __ZNKSt3__110__function6__funcIZN4grpc8internal20CallbackUnaryHandlerINS2_10ByteBufferES5_E10RunHandlerERKNS3_13MethodHandler16HandlerParameterEEUlbE_NS_9allocatorISB_EEFvbEE7__cloneEPNS0_6__baseISE_EE, symObjAddr: 0x85AC, symBinAddr: 0x176AC, symSize: 0x14 }
  - { offsetInCU: 0x56942, offset: 0x17AADB, size: 0x8, addend: 0x0, symName: __ZNKSt3__110__function6__funcIZN4grpc8internal20CallbackUnaryHandlerINS2_10ByteBufferES5_E10RunHandlerERKNS3_13MethodHandler16HandlerParameterEEUlbE_NS_9allocatorISB_EEFvbEE7__cloneEPNS0_6__baseISE_EE, symObjAddr: 0x85AC, symBinAddr: 0x176AC, symSize: 0x14 }
  - { offsetInCU: 0x56957, offset: 0x17AAF0, size: 0x8, addend: 0x0, symName: __ZNKSt3__110__function6__funcIZN4grpc8internal20CallbackUnaryHandlerINS2_10ByteBufferES5_E10RunHandlerERKNS3_13MethodHandler16HandlerParameterEEUlbE_NS_9allocatorISB_EEFvbEE7__cloneEPNS0_6__baseISE_EE, symObjAddr: 0x85AC, symBinAddr: 0x176AC, symSize: 0x14 }
  - { offsetInCU: 0x5696B, offset: 0x17AB04, size: 0x8, addend: 0x0, symName: __ZNKSt3__110__function6__funcIZN4grpc8internal20CallbackUnaryHandlerINS2_10ByteBufferES5_E10RunHandlerERKNS3_13MethodHandler16HandlerParameterEEUlbE_NS_9allocatorISB_EEFvbEE7__cloneEPNS0_6__baseISE_EE, symObjAddr: 0x85AC, symBinAddr: 0x176AC, symSize: 0x14 }
  - { offsetInCU: 0x5697F, offset: 0x17AB18, size: 0x8, addend: 0x0, symName: __ZNKSt3__110__function6__funcIZN4grpc8internal20CallbackUnaryHandlerINS2_10ByteBufferES5_E10RunHandlerERKNS3_13MethodHandler16HandlerParameterEEUlbE_NS_9allocatorISB_EEFvbEE7__cloneEPNS0_6__baseISE_EE, symObjAddr: 0x85AC, symBinAddr: 0x176AC, symSize: 0x14 }
  - { offsetInCU: 0x56994, offset: 0x17AB2D, size: 0x8, addend: 0x0, symName: __ZNKSt3__110__function6__funcIZN4grpc8internal20CallbackUnaryHandlerINS2_10ByteBufferES5_E10RunHandlerERKNS3_13MethodHandler16HandlerParameterEEUlbE_NS_9allocatorISB_EEFvbEE7__cloneEPNS0_6__baseISE_EE, symObjAddr: 0x85AC, symBinAddr: 0x176AC, symSize: 0x14 }
  - { offsetInCU: 0x569AC, offset: 0x17AB45, size: 0x8, addend: 0x0, symName: __ZNSt3__110__function6__funcIZN4grpc8internal20CallbackUnaryHandlerINS2_10ByteBufferES5_E10RunHandlerERKNS3_13MethodHandler16HandlerParameterEEUlbE_NS_9allocatorISB_EEFvbEE7destroyEv, symObjAddr: 0x85C0, symBinAddr: 0x176C0, symSize: 0x4 }
  - { offsetInCU: 0x569FF, offset: 0x17AB98, size: 0x8, addend: 0x0, symName: __ZNSt3__110__function6__funcIZN4grpc8internal20CallbackUnaryHandlerINS2_10ByteBufferES5_E10RunHandlerERKNS3_13MethodHandler16HandlerParameterEEUlbE_NS_9allocatorISB_EEFvbEE18destroy_deallocateEv, symObjAddr: 0x85C4, symBinAddr: 0x176C4, symSize: 0x4 }
  - { offsetInCU: 0x56A35, offset: 0x17ABCE, size: 0x8, addend: 0x0, symName: __ZNSt3__110__function6__funcIZN4grpc8internal20CallbackUnaryHandlerINS2_10ByteBufferES5_E10RunHandlerERKNS3_13MethodHandler16HandlerParameterEEUlbE_NS_9allocatorISB_EEFvbEE18destroy_deallocateEv, symObjAddr: 0x85C4, symBinAddr: 0x176C4, symSize: 0x4 }
  - { offsetInCU: 0x56A57, offset: 0x17ABF0, size: 0x8, addend: 0x0, symName: __ZNSt3__110__function6__funcIZN4grpc8internal20CallbackUnaryHandlerINS2_10ByteBufferES5_E10RunHandlerERKNS3_13MethodHandler16HandlerParameterEEUlbE_NS_9allocatorISB_EEFvbEE18destroy_deallocateEv, symObjAddr: 0x85C4, symBinAddr: 0x176C4, symSize: 0x4 }
  - { offsetInCU: 0x56A82, offset: 0x17AC1B, size: 0x8, addend: 0x0, symName: __ZNSt3__110__function6__funcIZN4grpc8internal20CallbackUnaryHandlerINS2_10ByteBufferES5_E10RunHandlerERKNS3_13MethodHandler16HandlerParameterEEUlbE_NS_9allocatorISB_EEFvbEE18destroy_deallocateEv, symObjAddr: 0x85C4, symBinAddr: 0x176C4, symSize: 0x4 }
  - { offsetInCU: 0x56AA8, offset: 0x17AC41, size: 0x8, addend: 0x0, symName: __ZNSt3__110__function6__funcIZN4grpc8internal20CallbackUnaryHandlerINS2_10ByteBufferES5_E10RunHandlerERKNS3_13MethodHandler16HandlerParameterEEUlbE_NS_9allocatorISB_EEFvbEE18destroy_deallocateEv, symObjAddr: 0x85C4, symBinAddr: 0x176C4, symSize: 0x4 }
  - { offsetInCU: 0x56B4E, offset: 0x17ACE7, size: 0x8, addend: 0x0, symName: __ZNSt3__110__function6__funcIZN4grpc8internal20CallbackUnaryHandlerINS2_10ByteBufferES5_E10RunHandlerERKNS3_13MethodHandler16HandlerParameterEEUlbE_NS_9allocatorISB_EEFvbEEclEOb, symObjAddr: 0x85C8, symBinAddr: 0x176C8, symSize: 0x8 }
  - { offsetInCU: 0x56B88, offset: 0x17AD21, size: 0x8, addend: 0x0, symName: __ZNSt3__110__function6__funcIZN4grpc8internal20CallbackUnaryHandlerINS2_10ByteBufferES5_E10RunHandlerERKNS3_13MethodHandler16HandlerParameterEEUlbE_NS_9allocatorISB_EEFvbEEclEOb, symObjAddr: 0x85C8, symBinAddr: 0x176C8, symSize: 0x8 }
  - { offsetInCU: 0x56BA6, offset: 0x17AD3F, size: 0x8, addend: 0x0, symName: __ZNSt3__110__function6__funcIZN4grpc8internal20CallbackUnaryHandlerINS2_10ByteBufferES5_E10RunHandlerERKNS3_13MethodHandler16HandlerParameterEEUlbE_NS_9allocatorISB_EEFvbEEclEOb, symObjAddr: 0x85C8, symBinAddr: 0x176C8, symSize: 0x8 }
  - { offsetInCU: 0x56BC4, offset: 0x17AD5D, size: 0x8, addend: 0x0, symName: __ZNSt3__110__function6__funcIZN4grpc8internal20CallbackUnaryHandlerINS2_10ByteBufferES5_E10RunHandlerERKNS3_13MethodHandler16HandlerParameterEEUlbE_NS_9allocatorISB_EEFvbEEclEOb, symObjAddr: 0x85C8, symBinAddr: 0x176C8, symSize: 0x8 }
  - { offsetInCU: 0x56BE4, offset: 0x17AD7D, size: 0x8, addend: 0x0, symName: __ZNSt3__110__function6__funcIZN4grpc8internal20CallbackUnaryHandlerINS2_10ByteBufferES5_E10RunHandlerERKNS3_13MethodHandler16HandlerParameterEEUlbE_NS_9allocatorISB_EEFvbEEclEOb, symObjAddr: 0x85C8, symBinAddr: 0x176C8, symSize: 0x8 }
  - { offsetInCU: 0x56C13, offset: 0x17ADAC, size: 0x8, addend: 0x0, symName: __ZN4grpc8internal18ServerCallbackCall9MaybeDoneEv, symObjAddr: 0x8618, symBinAddr: 0x17718, symSize: 0x64 }
  - { offsetInCU: 0x56CC6, offset: 0x17AE5F, size: 0x8, addend: 0x0, symName: __ZNKSt3__110__function6__funcIZN4grpc8internal20CallbackUnaryHandlerINS2_10ByteBufferES5_E10RunHandlerERKNS3_13MethodHandler16HandlerParameterEEUlbE_NS_9allocatorISB_EEFvbEE6targetERKSt9type_info, symObjAddr: 0x85D0, symBinAddr: 0x176D0, symSize: 0x3C }
  - { offsetInCU: 0x56D16, offset: 0x17AEAF, size: 0x8, addend: 0x0, symName: __ZNKSt3__110__function6__funcIZN4grpc8internal20CallbackUnaryHandlerINS2_10ByteBufferES5_E10RunHandlerERKNS3_13MethodHandler16HandlerParameterEEUlbE_NS_9allocatorISB_EEFvbEE11target_typeEv, symObjAddr: 0x860C, symBinAddr: 0x1770C, symSize: 0xC }
  - { offsetInCU: 0x56D9B, offset: 0x17AF34, size: 0x8, addend: 0x0, symName: __ZN4grpc8internal17FinishOnlyReactorINS_18ServerUnaryReactorEED1Ev, symObjAddr: 0x87A4, symBinAddr: 0x178A4, symSize: 0x4 }
  - { offsetInCU: 0x56DBD, offset: 0x17AF56, size: 0x8, addend: 0x0, symName: __ZN4grpc8internal17FinishOnlyReactorINS_18ServerUnaryReactorEED1Ev, symObjAddr: 0x87A4, symBinAddr: 0x178A4, symSize: 0x4 }
  - { offsetInCU: 0x56DDB, offset: 0x17AF74, size: 0x8, addend: 0x0, symName: __ZN4grpc8internal17FinishOnlyReactorINS_18ServerUnaryReactorEED1Ev, symObjAddr: 0x87A4, symBinAddr: 0x178A4, symSize: 0x4 }
  - { offsetInCU: 0x56E0C, offset: 0x17AFA5, size: 0x8, addend: 0x0, symName: __ZN4grpc8internal17FinishOnlyReactorINS_18ServerUnaryReactorEED0Ev, symObjAddr: 0x87A8, symBinAddr: 0x178A8, symSize: 0x14 }
  - { offsetInCU: 0x56E89, offset: 0x17B022, size: 0x8, addend: 0x0, symName: __ZN4grpc8internal17FinishOnlyReactorINS_18ServerUnaryReactorEE6OnDoneEv, symObjAddr: 0x87BC, symBinAddr: 0x178BC, symSize: 0xC }
  - { offsetInCU: 0x56EDF, offset: 0x17B078, size: 0x8, addend: 0x0, symName: __ZN4grpc8internal20DefaultMessageHolderINS_10ByteBufferES2_ED1Ev, symObjAddr: 0x8890, symBinAddr: 0x17990, symSize: 0x44 }
  - { offsetInCU: 0x56F95, offset: 0x17B12E, size: 0x8, addend: 0x0, symName: __ZN4grpc8internal20DefaultMessageHolderINS_10ByteBufferES2_ED0Ev, symObjAddr: 0x88D4, symBinAddr: 0x179D4, symSize: 0x44 }
  - { offsetInCU: 0x57056, offset: 0x17B1EF, size: 0x8, addend: 0x0, symName: __ZN4grpc17RpcAllocatorState11FreeRequestEv, symObjAddr: 0x8918, symBinAddr: 0x17A18, symSize: 0x4 }
  - { offsetInCU: 0x5707B, offset: 0x17B214, size: 0x8, addend: 0x0, symName: __ZN4grpc8internal20DefaultMessageHolderINS_10ByteBufferES2_E7ReleaseEv, symObjAddr: 0x891C, symBinAddr: 0x17A1C, symSize: 0xC }
  - { offsetInCU: 0x570B5, offset: 0x17B24E, size: 0x8, addend: 0x0, symName: '__ZNSt3__110__function6__funcIZN4grpc25DefaultHealthCheckService22HealthCheckServiceImplC1EPS3_E3$_1NS_9allocatorIS6_EEFPNS2_18ServerWriteReactorINS2_10ByteBufferEEEPNS2_21CallbackServerContextEPKSA_EED1Ev', symObjAddr: 0x8928, symBinAddr: 0x17A28, symSize: 0x4 }
  - { offsetInCU: 0x570E1, offset: 0x17B27A, size: 0x8, addend: 0x0, symName: '__ZNSt3__110__function6__funcIZN4grpc25DefaultHealthCheckService22HealthCheckServiceImplC1EPS3_E3$_1NS_9allocatorIS6_EEFPNS2_18ServerWriteReactorINS2_10ByteBufferEEEPNS2_21CallbackServerContextEPKSA_EED0Ev', symObjAddr: 0x892C, symBinAddr: 0x17A2C, symSize: 0x4 }
  - { offsetInCU: 0x572E5, offset: 0x17B47E, size: 0x8, addend: 0x0, symName: '__ZNKSt3__110__function6__funcIZN4grpc25DefaultHealthCheckService22HealthCheckServiceImplC1EPS3_E3$_1NS_9allocatorIS6_EEFPNS2_18ServerWriteReactorINS2_10ByteBufferEEEPNS2_21CallbackServerContextEPKSA_EE7__cloneEv', symObjAddr: 0x8930, symBinAddr: 0x17A30, symSize: 0x34 }
  - { offsetInCU: 0x575DA, offset: 0x17B773, size: 0x8, addend: 0x0, symName: '__ZNKSt3__110__function6__funcIZN4grpc25DefaultHealthCheckService22HealthCheckServiceImplC1EPS3_E3$_1NS_9allocatorIS6_EEFPNS2_18ServerWriteReactorINS2_10ByteBufferEEEPNS2_21CallbackServerContextEPKSA_EE7__cloneEPNS0_6__baseISH_EE', symObjAddr: 0x8964, symBinAddr: 0x17A64, symSize: 0x14 }
  - { offsetInCU: 0x57612, offset: 0x17B7AB, size: 0x8, addend: 0x0, symName: '__ZNKSt3__110__function6__funcIZN4grpc25DefaultHealthCheckService22HealthCheckServiceImplC1EPS3_E3$_1NS_9allocatorIS6_EEFPNS2_18ServerWriteReactorINS2_10ByteBufferEEEPNS2_21CallbackServerContextEPKSA_EE7__cloneEPNS0_6__baseISH_EE', symObjAddr: 0x8964, symBinAddr: 0x17A64, symSize: 0x14 }
  - { offsetInCU: 0x57640, offset: 0x17B7D9, size: 0x8, addend: 0x0, symName: '__ZNKSt3__110__function6__funcIZN4grpc25DefaultHealthCheckService22HealthCheckServiceImplC1EPS3_E3$_1NS_9allocatorIS6_EEFPNS2_18ServerWriteReactorINS2_10ByteBufferEEEPNS2_21CallbackServerContextEPKSA_EE7__cloneEPNS0_6__baseISH_EE', symObjAddr: 0x8964, symBinAddr: 0x17A64, symSize: 0x14 }
  - { offsetInCU: 0x5766E, offset: 0x17B807, size: 0x8, addend: 0x0, symName: '__ZNKSt3__110__function6__funcIZN4grpc25DefaultHealthCheckService22HealthCheckServiceImplC1EPS3_E3$_1NS_9allocatorIS6_EEFPNS2_18ServerWriteReactorINS2_10ByteBufferEEEPNS2_21CallbackServerContextEPKSA_EE7__cloneEPNS0_6__baseISH_EE', symObjAddr: 0x8964, symBinAddr: 0x17A64, symSize: 0x14 }
  - { offsetInCU: 0x57683, offset: 0x17B81C, size: 0x8, addend: 0x0, symName: '__ZNKSt3__110__function6__funcIZN4grpc25DefaultHealthCheckService22HealthCheckServiceImplC1EPS3_E3$_1NS_9allocatorIS6_EEFPNS2_18ServerWriteReactorINS2_10ByteBufferEEEPNS2_21CallbackServerContextEPKSA_EE7__cloneEPNS0_6__baseISH_EE', symObjAddr: 0x8964, symBinAddr: 0x17A64, symSize: 0x14 }
  - { offsetInCU: 0x57697, offset: 0x17B830, size: 0x8, addend: 0x0, symName: '__ZNKSt3__110__function6__funcIZN4grpc25DefaultHealthCheckService22HealthCheckServiceImplC1EPS3_E3$_1NS_9allocatorIS6_EEFPNS2_18ServerWriteReactorINS2_10ByteBufferEEEPNS2_21CallbackServerContextEPKSA_EE7__cloneEPNS0_6__baseISH_EE', symObjAddr: 0x8964, symBinAddr: 0x17A64, symSize: 0x14 }
  - { offsetInCU: 0x576AB, offset: 0x17B844, size: 0x8, addend: 0x0, symName: '__ZNKSt3__110__function6__funcIZN4grpc25DefaultHealthCheckService22HealthCheckServiceImplC1EPS3_E3$_1NS_9allocatorIS6_EEFPNS2_18ServerWriteReactorINS2_10ByteBufferEEEPNS2_21CallbackServerContextEPKSA_EE7__cloneEPNS0_6__baseISH_EE', symObjAddr: 0x8964, symBinAddr: 0x17A64, symSize: 0x14 }
  - { offsetInCU: 0x576C0, offset: 0x17B859, size: 0x8, addend: 0x0, symName: '__ZNKSt3__110__function6__funcIZN4grpc25DefaultHealthCheckService22HealthCheckServiceImplC1EPS3_E3$_1NS_9allocatorIS6_EEFPNS2_18ServerWriteReactorINS2_10ByteBufferEEEPNS2_21CallbackServerContextEPKSA_EE7__cloneEPNS0_6__baseISH_EE', symObjAddr: 0x8964, symBinAddr: 0x17A64, symSize: 0x14 }
  - { offsetInCU: 0x576D8, offset: 0x17B871, size: 0x8, addend: 0x0, symName: '__ZNSt3__110__function6__funcIZN4grpc25DefaultHealthCheckService22HealthCheckServiceImplC1EPS3_E3$_1NS_9allocatorIS6_EEFPNS2_18ServerWriteReactorINS2_10ByteBufferEEEPNS2_21CallbackServerContextEPKSA_EE7destroyEv', symObjAddr: 0x8978, symBinAddr: 0x17A78, symSize: 0x4 }
  - { offsetInCU: 0x57729, offset: 0x17B8C2, size: 0x8, addend: 0x0, symName: '__ZNSt3__110__function6__funcIZN4grpc25DefaultHealthCheckService22HealthCheckServiceImplC1EPS3_E3$_1NS_9allocatorIS6_EEFPNS2_18ServerWriteReactorINS2_10ByteBufferEEEPNS2_21CallbackServerContextEPKSA_EE18destroy_deallocateEv', symObjAddr: 0x897C, symBinAddr: 0x17A7C, symSize: 0x4 }
  - { offsetInCU: 0x5775F, offset: 0x17B8F8, size: 0x8, addend: 0x0, symName: '__ZNSt3__110__function6__funcIZN4grpc25DefaultHealthCheckService22HealthCheckServiceImplC1EPS3_E3$_1NS_9allocatorIS6_EEFPNS2_18ServerWriteReactorINS2_10ByteBufferEEEPNS2_21CallbackServerContextEPKSA_EE18destroy_deallocateEv', symObjAddr: 0x897C, symBinAddr: 0x17A7C, symSize: 0x4 }
  - { offsetInCU: 0x57781, offset: 0x17B91A, size: 0x8, addend: 0x0, symName: '__ZNSt3__110__function6__funcIZN4grpc25DefaultHealthCheckService22HealthCheckServiceImplC1EPS3_E3$_1NS_9allocatorIS6_EEFPNS2_18ServerWriteReactorINS2_10ByteBufferEEEPNS2_21CallbackServerContextEPKSA_EE18destroy_deallocateEv', symObjAddr: 0x897C, symBinAddr: 0x17A7C, symSize: 0x4 }
  - { offsetInCU: 0x577AC, offset: 0x17B945, size: 0x8, addend: 0x0, symName: '__ZNSt3__110__function6__funcIZN4grpc25DefaultHealthCheckService22HealthCheckServiceImplC1EPS3_E3$_1NS_9allocatorIS6_EEFPNS2_18ServerWriteReactorINS2_10ByteBufferEEEPNS2_21CallbackServerContextEPKSA_EE18destroy_deallocateEv', symObjAddr: 0x897C, symBinAddr: 0x17A7C, symSize: 0x4 }
  - { offsetInCU: 0x577D2, offset: 0x17B96B, size: 0x8, addend: 0x0, symName: '__ZNSt3__110__function6__funcIZN4grpc25DefaultHealthCheckService22HealthCheckServiceImplC1EPS3_E3$_1NS_9allocatorIS6_EEFPNS2_18ServerWriteReactorINS2_10ByteBufferEEEPNS2_21CallbackServerContextEPKSA_EE18destroy_deallocateEv', symObjAddr: 0x897C, symBinAddr: 0x17A7C, symSize: 0x4 }
  - { offsetInCU: 0x578D3, offset: 0x17BA6C, size: 0x8, addend: 0x0, symName: '__ZNSt3__110__function6__funcIZN4grpc25DefaultHealthCheckService22HealthCheckServiceImplC1EPS3_E3$_1NS_9allocatorIS6_EEFPNS2_18ServerWriteReactorINS2_10ByteBufferEEEPNS2_21CallbackServerContextEPKSA_EEclEOSE_OSG_', symObjAddr: 0x8980, symBinAddr: 0x17A80, symSize: 0x58 }
  - { offsetInCU: 0x579E3, offset: 0x17BB7C, size: 0x8, addend: 0x0, symName: '__ZNKSt3__110__function6__funcIZN4grpc25DefaultHealthCheckService22HealthCheckServiceImplC1EPS3_E3$_1NS_9allocatorIS6_EEFPNS2_18ServerWriteReactorINS2_10ByteBufferEEEPNS2_21CallbackServerContextEPKSA_EE6targetERKSt9type_info', symObjAddr: 0x89D8, symBinAddr: 0x17AD8, symSize: 0x3C }
  - { offsetInCU: 0x57A33, offset: 0x17BBCC, size: 0x8, addend: 0x0, symName: '__ZNKSt3__110__function6__funcIZN4grpc25DefaultHealthCheckService22HealthCheckServiceImplC1EPS3_E3$_1NS_9allocatorIS6_EEFPNS2_18ServerWriteReactorINS2_10ByteBufferEEEPNS2_21CallbackServerContextEPKSA_EE11target_typeEv', symObjAddr: 0x8A14, symBinAddr: 0x17B14, symSize: 0xC }
  - { offsetInCU: 0x57A75, offset: 0x17BC0E, size: 0x8, addend: 0x0, symName: __ZN4grpc8internal30CallbackServerStreamingHandlerINS_10ByteBufferES2_ED1Ev, symObjAddr: 0x8A20, symBinAddr: 0x17B20, symSize: 0x60 }
  - { offsetInCU: 0x57B59, offset: 0x17BCF2, size: 0x8, addend: 0x0, symName: __ZN4grpc8internal30CallbackServerStreamingHandlerINS_10ByteBufferES2_ED0Ev, symObjAddr: 0x8A80, symBinAddr: 0x17B80, symSize: 0x60 }
  - { offsetInCU: 0x57EA7, offset: 0x17C040, size: 0x8, addend: 0x0, symName: __ZN4grpc8internal30CallbackServerStreamingHandlerINS_10ByteBufferES2_E24ServerCallbackWriterImplC2EPNS_21CallbackServerContextEPNS0_4CallEPKS2_NSt3__18functionIFvvEEE, symObjAddr: 0x9078, symBinAddr: 0x18178, symSize: 0x178 }
  - { offsetInCU: 0x58740, offset: 0x17C8D9, size: 0x8, addend: 0x0, symName: __ZN4grpc8internal17FinishOnlyReactorINS_18ServerWriteReactorINS_10ByteBufferEEEEC2ENS_6StatusE, symObjAddr: 0xA0C0, symBinAddr: 0x191C0, symSize: 0xF0 }
  - { offsetInCU: 0x58CBD, offset: 0x17CE56, size: 0x8, addend: 0x0, symName: __ZN4grpc8internal30CallbackServerStreamingHandlerINS_10ByteBufferES2_E11DeserializeEP9grpc_callP16grpc_byte_bufferPNS_6StatusEPPv, symObjAddr: 0x8D70, symBinAddr: 0x17E70, symSize: 0x11C }
  - { offsetInCU: 0x592C4, offset: 0x17D45D, size: 0x8, addend: 0x0, symName: __ZNKSt3__18functionIFPN4grpc18ServerWriteReactorINS1_10ByteBufferEEEPNS1_21CallbackServerContextEPKS3_EEclES7_S9_, symObjAddr: 0xA084, symBinAddr: 0x19184, symSize: 0x3C }
  - { offsetInCU: 0x59353, offset: 0x17D4EC, size: 0x8, addend: 0x0, symName: __ZN4grpc8internal17FinishOnlyReactorINS_18ServerWriteReactorINS_10ByteBufferEEEEC2ENS_6StatusE, symObjAddr: 0xA0C0, symBinAddr: 0x191C0, symSize: 0xF0 }
  - { offsetInCU: 0x5972F, offset: 0x17D8C8, size: 0x8, addend: 0x0, symName: __ZN4grpc8internal9CallOpSetINS0_25CallOpSendInitialMetadataENS0_17CallOpSendMessageENS0_8CallNoOpILi3EEENS4_ILi4EEENS4_ILi5EEENS4_ILi6EEEEC2Ev, symObjAddr: 0x9804, symBinAddr: 0x18904, symSize: 0x8C }
  - { offsetInCU: 0x5975A, offset: 0x17D8F3, size: 0x8, addend: 0x0, symName: __ZN4grpc8internal9CallOpSetINS0_25CallOpSendInitialMetadataENS0_17CallOpSendMessageENS0_8CallNoOpILi3EEENS4_ILi4EEENS4_ILi5EEENS4_ILi6EEEEC2Ev, symObjAddr: 0x9804, symBinAddr: 0x18904, symSize: 0x8C }
  - { offsetInCU: 0x599E3, offset: 0x17DB7C, size: 0x8, addend: 0x0, symName: __ZN4grpc8internal9CallOpSetINS0_25CallOpSendInitialMetadataENS0_17CallOpSendMessageENS0_8CallNoOpILi3EEENS4_ILi4EEENS4_ILi5EEENS4_ILi6EEEED1Ev, symObjAddr: 0x91F0, symBinAddr: 0x182F0, symSize: 0x6C }
  - { offsetInCU: 0x59B28, offset: 0x17DCC1, size: 0x8, addend: 0x0, symName: __ZN4grpc8internal30CallbackServerStreamingHandlerINS_10ByteBufferES2_E24ServerCallbackWriterImplD1Ev, symObjAddr: 0x925C, symBinAddr: 0x1835C, symSize: 0x4 }
  - { offsetInCU: 0x59B4B, offset: 0x17DCE4, size: 0x8, addend: 0x0, symName: __ZN4grpc8internal30CallbackServerStreamingHandlerINS_10ByteBufferES2_E24ServerCallbackWriterImplD1Ev, symObjAddr: 0x925C, symBinAddr: 0x1835C, symSize: 0x4 }
  - { offsetInCU: 0x59B5F, offset: 0x17DCF8, size: 0x8, addend: 0x0, symName: __ZN4grpc8internal30CallbackServerStreamingHandlerINS_10ByteBufferES2_E24ServerCallbackWriterImplD2Ev, symObjAddr: 0x9C94, symBinAddr: 0x18D94, symSize: 0x15C }
  - { offsetInCU: 0x5A258, offset: 0x17E3F1, size: 0x8, addend: 0x0, symName: __ZN4grpc8internal30CallbackServerStreamingHandlerINS_10ByteBufferES2_E24ServerCallbackWriterImplD0Ev, symObjAddr: 0x9260, symBinAddr: 0x18360, symSize: 0x14 }
  - { offsetInCU: 0x5A2E6, offset: 0x17E47F, size: 0x8, addend: 0x0, symName: __ZN4grpc8internal30CallbackServerStreamingHandlerINS_10ByteBufferES2_E24ServerCallbackWriterImpl7reactorEv, symObjAddr: 0x9274, symBinAddr: 0x18374, symSize: 0x8 }
  - { offsetInCU: 0x5A30F, offset: 0x17E4A8, size: 0x8, addend: 0x0, symName: __ZN4grpc8internal30CallbackServerStreamingHandlerINS_10ByteBufferES2_E24ServerCallbackWriterImpl7reactorEv, symObjAddr: 0x9274, symBinAddr: 0x18374, symSize: 0x8 }
  - { offsetInCU: 0x5A334, offset: 0x17E4CD, size: 0x8, addend: 0x0, symName: __ZN4grpc8internal30CallbackServerStreamingHandlerINS_10ByteBufferES2_E24ServerCallbackWriterImpl7reactorEv, symObjAddr: 0x9274, symBinAddr: 0x18374, symSize: 0x8 }
  - { offsetInCU: 0x5A358, offset: 0x17E4F1, size: 0x8, addend: 0x0, symName: __ZN4grpc8internal30CallbackServerStreamingHandlerINS_10ByteBufferES2_E24ServerCallbackWriterImpl4callEv, symObjAddr: 0x927C, symBinAddr: 0x1837C, symSize: 0x8 }
  - { offsetInCU: 0x5A381, offset: 0x17E51A, size: 0x8, addend: 0x0, symName: __ZN4grpc8internal30CallbackServerStreamingHandlerINS_10ByteBufferES2_E24ServerCallbackWriterImpl4callEv, symObjAddr: 0x927C, symBinAddr: 0x1837C, symSize: 0x8 }
  - { offsetInCU: 0x5A39F, offset: 0x17E538, size: 0x8, addend: 0x0, symName: __ZN4grpc8internal30CallbackServerStreamingHandlerINS_10ByteBufferES2_E24ServerCallbackWriterImpl10CallOnDoneEv, symObjAddr: 0x9284, symBinAddr: 0x18384, symSize: 0x128 }
  - { offsetInCU: 0x5AA34, offset: 0x17EBCD, size: 0x8, addend: 0x0, symName: __ZN4grpc8internal30CallbackServerStreamingHandlerINS_10ByteBufferES2_E24ServerCallbackWriterImpl19SendInitialMetadataEv.cold.1, symObjAddr: 0xAA2C, symBinAddr: 0x31DBC, symSize: 0x28 }
  - { offsetInCU: 0x5AA62, offset: 0x17EBFB, size: 0x8, addend: 0x0, symName: __ZN4grpc8internal30CallbackServerStreamingHandlerINS_10ByteBufferES2_E24ServerCallbackWriterImpl5WriteEPKS2_NS_12WriteOptionsE, symObjAddr: 0x967C, symBinAddr: 0x1877C, symSize: 0xC0 }
  - { offsetInCU: 0x5AC33, offset: 0x17EDCC, size: 0x8, addend: 0x0, symName: __ZN4grpc8internal30CallbackServerStreamingHandlerINS_10ByteBufferES2_E24ServerCallbackWriterImpl14WriteAndFinishEPKS2_NS_12WriteOptionsENS_6StatusE, symObjAddr: 0x973C, symBinAddr: 0x1883C, symSize: 0xC8 }
  - { offsetInCU: 0x5B07B, offset: 0x17F214, size: 0x8, addend: 0x0, symName: __ZN4grpc8internal9CallOpSetINS0_25CallOpSendInitialMetadataENS0_17CallOpSendMessageENS0_8CallNoOpILi3EEENS4_ILi4EEENS4_ILi5EEENS4_ILi6EEEED0Ev, symObjAddr: 0x9890, symBinAddr: 0x18990, symSize: 0x6C }
  - { offsetInCU: 0x5B1FF, offset: 0x17F398, size: 0x8, addend: 0x0, symName: __ZN4grpc8internal9CallOpSetINS0_25CallOpSendInitialMetadataENS0_17CallOpSendMessageENS0_8CallNoOpILi3EEENS4_ILi4EEENS4_ILi5EEENS4_ILi6EEEE14FinalizeResultEPPvPb, symObjAddr: 0x98FC, symBinAddr: 0x189FC, symSize: 0xE0 }
  - { offsetInCU: 0x5B392, offset: 0x17F52B, size: 0x8, addend: 0x0, symName: __ZN4grpc8internal9CallOpSetINS0_25CallOpSendInitialMetadataENS0_17CallOpSendMessageENS0_8CallNoOpILi3EEENS4_ILi4EEENS4_ILi5EEENS4_ILi6EEEE7FillOpsEPNS0_4CallE, symObjAddr: 0x99DC, symBinAddr: 0x18ADC, symSize: 0x60 }
  - { offsetInCU: 0x5B41E, offset: 0x17F5B7, size: 0x8, addend: 0x0, symName: __ZN4grpc8internal9CallOpSetINS0_25CallOpSendInitialMetadataENS0_17CallOpSendMessageENS0_8CallNoOpILi3EEENS4_ILi4EEENS4_ILi5EEENS4_ILi6EEEE15RunInterceptorsEv, symObjAddr: 0x9BD8, symBinAddr: 0x18CD8, symSize: 0xBC }
  - { offsetInCU: 0x5B61C, offset: 0x17F7B5, size: 0x8, addend: 0x0, symName: __ZN4grpc8internal9CallOpSetINS0_25CallOpSendInitialMetadataENS0_17CallOpSendMessageENS0_8CallNoOpILi3EEENS4_ILi4EEENS4_ILi5EEENS4_ILi6EEEE11core_cq_tagEv, symObjAddr: 0x9A3C, symBinAddr: 0x18B3C, symSize: 0x8 }
  - { offsetInCU: 0x5B643, offset: 0x17F7DC, size: 0x8, addend: 0x0, symName: __ZN4grpc8internal9CallOpSetINS0_25CallOpSendInitialMetadataENS0_17CallOpSendMessageENS0_8CallNoOpILi3EEENS4_ILi4EEENS4_ILi5EEENS4_ILi6EEEE17SetHijackingStateEv, symObjAddr: 0x9A44, symBinAddr: 0x18B44, symSize: 0x10 }
  - { offsetInCU: 0x5B6BA, offset: 0x17F853, size: 0x8, addend: 0x0, symName: __ZN4grpc8internal9CallOpSetINS0_25CallOpSendInitialMetadataENS0_17CallOpSendMessageENS0_8CallNoOpILi3EEENS4_ILi4EEENS4_ILi5EEENS4_ILi6EEEE32ContinueFillOpsAfterInterceptionEv.cold.1, symObjAddr: 0xAA54, symBinAddr: 0x31DE4, symSize: 0x28 }
  - { offsetInCU: 0x5B6D2, offset: 0x17F86B, size: 0x8, addend: 0x0, symName: __ZN4grpc8internal9CallOpSetINS0_25CallOpSendInitialMetadataENS0_17CallOpSendMessageENS0_8CallNoOpILi3EEENS4_ILi4EEENS4_ILi5EEENS4_ILi6EEEE39ContinueFinalizeResultAfterInterceptionEv, symObjAddr: 0x9B7C, symBinAddr: 0x18C7C, symSize: 0x5C }
  - { offsetInCU: 0x5B758, offset: 0x17F8F1, size: 0x8, addend: 0x0, symName: __ZN4grpc8internal9CallOpSetINS0_25CallOpSendInitialMetadataENS0_17CallOpSendMessageENS0_8CallNoOpILi3EEENS4_ILi4EEENS4_ILi5EEENS4_ILi6EEEE15RunInterceptorsEv, symObjAddr: 0x9BD8, symBinAddr: 0x18CD8, symSize: 0xBC }
  - { offsetInCU: 0x5B76C, offset: 0x17F905, size: 0x8, addend: 0x0, symName: __ZN4grpc8internal9CallOpSetINS0_25CallOpSendInitialMetadataENS0_17CallOpSendMessageENS0_8CallNoOpILi3EEENS4_ILi4EEENS4_ILi5EEENS4_ILi6EEEE39ContinueFinalizeResultAfterInterceptionEv.cold.1, symObjAddr: 0xAA7C, symBinAddr: 0x31E0C, symSize: 0x20 }
  - { offsetInCU: 0x5B784, offset: 0x17F91D, size: 0x8, addend: 0x0, symName: __ZNSt3__110__function6__funcIZN4grpc8internal30CallbackServerStreamingHandlerINS2_10ByteBufferES5_E24ServerCallbackWriterImpl6FinishENS2_6StatusEEUlbE_NS_9allocatorIS9_EEFvbEED1Ev, symObjAddr: 0x9DF0, symBinAddr: 0x18EF0, symSize: 0x4 }
  - { offsetInCU: 0x5B7B0, offset: 0x17F949, size: 0x8, addend: 0x0, symName: __ZNSt3__110__function6__funcIZN4grpc8internal30CallbackServerStreamingHandlerINS2_10ByteBufferES5_E24ServerCallbackWriterImpl6FinishENS2_6StatusEEUlbE_NS_9allocatorIS9_EEFvbEED0Ev, symObjAddr: 0x9DF4, symBinAddr: 0x18EF4, symSize: 0x4 }
  - { offsetInCU: 0x5B9B4, offset: 0x17FB4D, size: 0x8, addend: 0x0, symName: __ZNKSt3__110__function6__funcIZN4grpc8internal30CallbackServerStreamingHandlerINS2_10ByteBufferES5_E24ServerCallbackWriterImpl6FinishENS2_6StatusEEUlbE_NS_9allocatorIS9_EEFvbEE7__cloneEv, symObjAddr: 0x9DF8, symBinAddr: 0x18EF8, symSize: 0x34 }
  - { offsetInCU: 0x5BCA9, offset: 0x17FE42, size: 0x8, addend: 0x0, symName: __ZNKSt3__110__function6__funcIZN4grpc8internal30CallbackServerStreamingHandlerINS2_10ByteBufferES5_E24ServerCallbackWriterImpl6FinishENS2_6StatusEEUlbE_NS_9allocatorIS9_EEFvbEE7__cloneEPNS0_6__baseISC_EE, symObjAddr: 0x9E2C, symBinAddr: 0x18F2C, symSize: 0x14 }
  - { offsetInCU: 0x5BCE1, offset: 0x17FE7A, size: 0x8, addend: 0x0, symName: __ZNKSt3__110__function6__funcIZN4grpc8internal30CallbackServerStreamingHandlerINS2_10ByteBufferES5_E24ServerCallbackWriterImpl6FinishENS2_6StatusEEUlbE_NS_9allocatorIS9_EEFvbEE7__cloneEPNS0_6__baseISC_EE, symObjAddr: 0x9E2C, symBinAddr: 0x18F2C, symSize: 0x14 }
  - { offsetInCU: 0x5BD0F, offset: 0x17FEA8, size: 0x8, addend: 0x0, symName: __ZNKSt3__110__function6__funcIZN4grpc8internal30CallbackServerStreamingHandlerINS2_10ByteBufferES5_E24ServerCallbackWriterImpl6FinishENS2_6StatusEEUlbE_NS_9allocatorIS9_EEFvbEE7__cloneEPNS0_6__baseISC_EE, symObjAddr: 0x9E2C, symBinAddr: 0x18F2C, symSize: 0x14 }
  - { offsetInCU: 0x5BD3D, offset: 0x17FED6, size: 0x8, addend: 0x0, symName: __ZNKSt3__110__function6__funcIZN4grpc8internal30CallbackServerStreamingHandlerINS2_10ByteBufferES5_E24ServerCallbackWriterImpl6FinishENS2_6StatusEEUlbE_NS_9allocatorIS9_EEFvbEE7__cloneEPNS0_6__baseISC_EE, symObjAddr: 0x9E2C, symBinAddr: 0x18F2C, symSize: 0x14 }
  - { offsetInCU: 0x5BD52, offset: 0x17FEEB, size: 0x8, addend: 0x0, symName: __ZNKSt3__110__function6__funcIZN4grpc8internal30CallbackServerStreamingHandlerINS2_10ByteBufferES5_E24ServerCallbackWriterImpl6FinishENS2_6StatusEEUlbE_NS_9allocatorIS9_EEFvbEE7__cloneEPNS0_6__baseISC_EE, symObjAddr: 0x9E2C, symBinAddr: 0x18F2C, symSize: 0x14 }
  - { offsetInCU: 0x5BD66, offset: 0x17FEFF, size: 0x8, addend: 0x0, symName: __ZNKSt3__110__function6__funcIZN4grpc8internal30CallbackServerStreamingHandlerINS2_10ByteBufferES5_E24ServerCallbackWriterImpl6FinishENS2_6StatusEEUlbE_NS_9allocatorIS9_EEFvbEE7__cloneEPNS0_6__baseISC_EE, symObjAddr: 0x9E2C, symBinAddr: 0x18F2C, symSize: 0x14 }
  - { offsetInCU: 0x5BD7A, offset: 0x17FF13, size: 0x8, addend: 0x0, symName: __ZNKSt3__110__function6__funcIZN4grpc8internal30CallbackServerStreamingHandlerINS2_10ByteBufferES5_E24ServerCallbackWriterImpl6FinishENS2_6StatusEEUlbE_NS_9allocatorIS9_EEFvbEE7__cloneEPNS0_6__baseISC_EE, symObjAddr: 0x9E2C, symBinAddr: 0x18F2C, symSize: 0x14 }
  - { offsetInCU: 0x5BD8F, offset: 0x17FF28, size: 0x8, addend: 0x0, symName: __ZNKSt3__110__function6__funcIZN4grpc8internal30CallbackServerStreamingHandlerINS2_10ByteBufferES5_E24ServerCallbackWriterImpl6FinishENS2_6StatusEEUlbE_NS_9allocatorIS9_EEFvbEE7__cloneEPNS0_6__baseISC_EE, symObjAddr: 0x9E2C, symBinAddr: 0x18F2C, symSize: 0x14 }
  - { offsetInCU: 0x5BDA7, offset: 0x17FF40, size: 0x8, addend: 0x0, symName: __ZNSt3__110__function6__funcIZN4grpc8internal30CallbackServerStreamingHandlerINS2_10ByteBufferES5_E24ServerCallbackWriterImpl6FinishENS2_6StatusEEUlbE_NS_9allocatorIS9_EEFvbEE7destroyEv, symObjAddr: 0x9E40, symBinAddr: 0x18F40, symSize: 0x4 }
  - { offsetInCU: 0x5BDFA, offset: 0x17FF93, size: 0x8, addend: 0x0, symName: __ZNSt3__110__function6__funcIZN4grpc8internal30CallbackServerStreamingHandlerINS2_10ByteBufferES5_E24ServerCallbackWriterImpl6FinishENS2_6StatusEEUlbE_NS_9allocatorIS9_EEFvbEE18destroy_deallocateEv, symObjAddr: 0x9E44, symBinAddr: 0x18F44, symSize: 0x4 }
  - { offsetInCU: 0x5BE30, offset: 0x17FFC9, size: 0x8, addend: 0x0, symName: __ZNSt3__110__function6__funcIZN4grpc8internal30CallbackServerStreamingHandlerINS2_10ByteBufferES5_E24ServerCallbackWriterImpl6FinishENS2_6StatusEEUlbE_NS_9allocatorIS9_EEFvbEE18destroy_deallocateEv, symObjAddr: 0x9E44, symBinAddr: 0x18F44, symSize: 0x4 }
  - { offsetInCU: 0x5BE52, offset: 0x17FFEB, size: 0x8, addend: 0x0, symName: __ZNSt3__110__function6__funcIZN4grpc8internal30CallbackServerStreamingHandlerINS2_10ByteBufferES5_E24ServerCallbackWriterImpl6FinishENS2_6StatusEEUlbE_NS_9allocatorIS9_EEFvbEE18destroy_deallocateEv, symObjAddr: 0x9E44, symBinAddr: 0x18F44, symSize: 0x4 }
  - { offsetInCU: 0x5BE7D, offset: 0x180016, size: 0x8, addend: 0x0, symName: __ZNSt3__110__function6__funcIZN4grpc8internal30CallbackServerStreamingHandlerINS2_10ByteBufferES5_E24ServerCallbackWriterImpl6FinishENS2_6StatusEEUlbE_NS_9allocatorIS9_EEFvbEE18destroy_deallocateEv, symObjAddr: 0x9E44, symBinAddr: 0x18F44, symSize: 0x4 }
  - { offsetInCU: 0x5BEA3, offset: 0x18003C, size: 0x8, addend: 0x0, symName: __ZNSt3__110__function6__funcIZN4grpc8internal30CallbackServerStreamingHandlerINS2_10ByteBufferES5_E24ServerCallbackWriterImpl6FinishENS2_6StatusEEUlbE_NS_9allocatorIS9_EEFvbEE18destroy_deallocateEv, symObjAddr: 0x9E44, symBinAddr: 0x18F44, symSize: 0x4 }
  - { offsetInCU: 0x5BF4A, offset: 0x1800E3, size: 0x8, addend: 0x0, symName: __ZNSt3__110__function6__funcIZN4grpc8internal30CallbackServerStreamingHandlerINS2_10ByteBufferES5_E24ServerCallbackWriterImpl6FinishENS2_6StatusEEUlbE_NS_9allocatorIS9_EEFvbEEclEOb, symObjAddr: 0x9E48, symBinAddr: 0x18F48, symSize: 0x28 }
  - { offsetInCU: 0x5C04B, offset: 0x1801E4, size: 0x8, addend: 0x0, symName: __ZNKSt3__110__function6__funcIZN4grpc8internal30CallbackServerStreamingHandlerINS2_10ByteBufferES5_E24ServerCallbackWriterImpl6FinishENS2_6StatusEEUlbE_NS_9allocatorIS9_EEFvbEE6targetERKSt9type_info, symObjAddr: 0x9E70, symBinAddr: 0x18F70, symSize: 0x3C }
  - { offsetInCU: 0x5C09B, offset: 0x180234, size: 0x8, addend: 0x0, symName: __ZNKSt3__110__function6__funcIZN4grpc8internal30CallbackServerStreamingHandlerINS2_10ByteBufferES5_E24ServerCallbackWriterImpl6FinishENS2_6StatusEEUlbE_NS_9allocatorIS9_EEFvbEE11target_typeEv, symObjAddr: 0x9EAC, symBinAddr: 0x18FAC, symSize: 0xC }
  - { offsetInCU: 0x5C0C4, offset: 0x18025D, size: 0x8, addend: 0x0, symName: __ZNSt3__110__function6__funcIZN4grpc8internal30CallbackServerStreamingHandlerINS2_10ByteBufferES5_E24ServerCallbackWriterImpl19SendInitialMetadataEvEUlbE_NS_9allocatorIS8_EEFvbEED1Ev, symObjAddr: 0x9EB8, symBinAddr: 0x18FB8, symSize: 0x4 }
  - { offsetInCU: 0x5C0F0, offset: 0x180289, size: 0x8, addend: 0x0, symName: __ZNSt3__110__function6__funcIZN4grpc8internal30CallbackServerStreamingHandlerINS2_10ByteBufferES5_E24ServerCallbackWriterImpl19SendInitialMetadataEvEUlbE_NS_9allocatorIS8_EEFvbEED0Ev, symObjAddr: 0x9EBC, symBinAddr: 0x18FBC, symSize: 0x4 }
  - { offsetInCU: 0x5C2F4, offset: 0x18048D, size: 0x8, addend: 0x0, symName: __ZNKSt3__110__function6__funcIZN4grpc8internal30CallbackServerStreamingHandlerINS2_10ByteBufferES5_E24ServerCallbackWriterImpl19SendInitialMetadataEvEUlbE_NS_9allocatorIS8_EEFvbEE7__cloneEv, symObjAddr: 0x9EC0, symBinAddr: 0x18FC0, symSize: 0x34 }
  - { offsetInCU: 0x5C5E9, offset: 0x180782, size: 0x8, addend: 0x0, symName: __ZNKSt3__110__function6__funcIZN4grpc8internal30CallbackServerStreamingHandlerINS2_10ByteBufferES5_E24ServerCallbackWriterImpl19SendInitialMetadataEvEUlbE_NS_9allocatorIS8_EEFvbEE7__cloneEPNS0_6__baseISB_EE, symObjAddr: 0x9EF4, symBinAddr: 0x18FF4, symSize: 0x14 }
  - { offsetInCU: 0x5C621, offset: 0x1807BA, size: 0x8, addend: 0x0, symName: __ZNKSt3__110__function6__funcIZN4grpc8internal30CallbackServerStreamingHandlerINS2_10ByteBufferES5_E24ServerCallbackWriterImpl19SendInitialMetadataEvEUlbE_NS_9allocatorIS8_EEFvbEE7__cloneEPNS0_6__baseISB_EE, symObjAddr: 0x9EF4, symBinAddr: 0x18FF4, symSize: 0x14 }
  - { offsetInCU: 0x5C64F, offset: 0x1807E8, size: 0x8, addend: 0x0, symName: __ZNKSt3__110__function6__funcIZN4grpc8internal30CallbackServerStreamingHandlerINS2_10ByteBufferES5_E24ServerCallbackWriterImpl19SendInitialMetadataEvEUlbE_NS_9allocatorIS8_EEFvbEE7__cloneEPNS0_6__baseISB_EE, symObjAddr: 0x9EF4, symBinAddr: 0x18FF4, symSize: 0x14 }
  - { offsetInCU: 0x5C67D, offset: 0x180816, size: 0x8, addend: 0x0, symName: __ZNKSt3__110__function6__funcIZN4grpc8internal30CallbackServerStreamingHandlerINS2_10ByteBufferES5_E24ServerCallbackWriterImpl19SendInitialMetadataEvEUlbE_NS_9allocatorIS8_EEFvbEE7__cloneEPNS0_6__baseISB_EE, symObjAddr: 0x9EF4, symBinAddr: 0x18FF4, symSize: 0x14 }
  - { offsetInCU: 0x5C692, offset: 0x18082B, size: 0x8, addend: 0x0, symName: __ZNKSt3__110__function6__funcIZN4grpc8internal30CallbackServerStreamingHandlerINS2_10ByteBufferES5_E24ServerCallbackWriterImpl19SendInitialMetadataEvEUlbE_NS_9allocatorIS8_EEFvbEE7__cloneEPNS0_6__baseISB_EE, symObjAddr: 0x9EF4, symBinAddr: 0x18FF4, symSize: 0x14 }
  - { offsetInCU: 0x5C6A6, offset: 0x18083F, size: 0x8, addend: 0x0, symName: __ZNKSt3__110__function6__funcIZN4grpc8internal30CallbackServerStreamingHandlerINS2_10ByteBufferES5_E24ServerCallbackWriterImpl19SendInitialMetadataEvEUlbE_NS_9allocatorIS8_EEFvbEE7__cloneEPNS0_6__baseISB_EE, symObjAddr: 0x9EF4, symBinAddr: 0x18FF4, symSize: 0x14 }
  - { offsetInCU: 0x5C6BA, offset: 0x180853, size: 0x8, addend: 0x0, symName: __ZNKSt3__110__function6__funcIZN4grpc8internal30CallbackServerStreamingHandlerINS2_10ByteBufferES5_E24ServerCallbackWriterImpl19SendInitialMetadataEvEUlbE_NS_9allocatorIS8_EEFvbEE7__cloneEPNS0_6__baseISB_EE, symObjAddr: 0x9EF4, symBinAddr: 0x18FF4, symSize: 0x14 }
  - { offsetInCU: 0x5C6CF, offset: 0x180868, size: 0x8, addend: 0x0, symName: __ZNKSt3__110__function6__funcIZN4grpc8internal30CallbackServerStreamingHandlerINS2_10ByteBufferES5_E24ServerCallbackWriterImpl19SendInitialMetadataEvEUlbE_NS_9allocatorIS8_EEFvbEE7__cloneEPNS0_6__baseISB_EE, symObjAddr: 0x9EF4, symBinAddr: 0x18FF4, symSize: 0x14 }
  - { offsetInCU: 0x5C6E7, offset: 0x180880, size: 0x8, addend: 0x0, symName: __ZNSt3__110__function6__funcIZN4grpc8internal30CallbackServerStreamingHandlerINS2_10ByteBufferES5_E24ServerCallbackWriterImpl19SendInitialMetadataEvEUlbE_NS_9allocatorIS8_EEFvbEE7destroyEv, symObjAddr: 0x9F08, symBinAddr: 0x19008, symSize: 0x4 }
  - { offsetInCU: 0x5C73A, offset: 0x1808D3, size: 0x8, addend: 0x0, symName: __ZNSt3__110__function6__funcIZN4grpc8internal30CallbackServerStreamingHandlerINS2_10ByteBufferES5_E24ServerCallbackWriterImpl19SendInitialMetadataEvEUlbE_NS_9allocatorIS8_EEFvbEE18destroy_deallocateEv, symObjAddr: 0x9F0C, symBinAddr: 0x1900C, symSize: 0x4 }
  - { offsetInCU: 0x5C770, offset: 0x180909, size: 0x8, addend: 0x0, symName: __ZNSt3__110__function6__funcIZN4grpc8internal30CallbackServerStreamingHandlerINS2_10ByteBufferES5_E24ServerCallbackWriterImpl19SendInitialMetadataEvEUlbE_NS_9allocatorIS8_EEFvbEE18destroy_deallocateEv, symObjAddr: 0x9F0C, symBinAddr: 0x1900C, symSize: 0x4 }
  - { offsetInCU: 0x5C792, offset: 0x18092B, size: 0x8, addend: 0x0, symName: __ZNSt3__110__function6__funcIZN4grpc8internal30CallbackServerStreamingHandlerINS2_10ByteBufferES5_E24ServerCallbackWriterImpl19SendInitialMetadataEvEUlbE_NS_9allocatorIS8_EEFvbEE18destroy_deallocateEv, symObjAddr: 0x9F0C, symBinAddr: 0x1900C, symSize: 0x4 }
  - { offsetInCU: 0x5C7BD, offset: 0x180956, size: 0x8, addend: 0x0, symName: __ZNSt3__110__function6__funcIZN4grpc8internal30CallbackServerStreamingHandlerINS2_10ByteBufferES5_E24ServerCallbackWriterImpl19SendInitialMetadataEvEUlbE_NS_9allocatorIS8_EEFvbEE18destroy_deallocateEv, symObjAddr: 0x9F0C, symBinAddr: 0x1900C, symSize: 0x4 }
  - { offsetInCU: 0x5C7E3, offset: 0x18097C, size: 0x8, addend: 0x0, symName: __ZNSt3__110__function6__funcIZN4grpc8internal30CallbackServerStreamingHandlerINS2_10ByteBufferES5_E24ServerCallbackWriterImpl19SendInitialMetadataEvEUlbE_NS_9allocatorIS8_EEFvbEE18destroy_deallocateEv, symObjAddr: 0x9F0C, symBinAddr: 0x1900C, symSize: 0x4 }
  - { offsetInCU: 0x5C82E, offset: 0x1809C7, size: 0x8, addend: 0x0, symName: __ZNSt3__110__function6__funcIZN4grpc8internal30CallbackServerStreamingHandlerINS2_10ByteBufferES5_E24ServerCallbackWriterImpl19SendInitialMetadataEvEUlbE_NS_9allocatorIS8_EEFvbEEclEOb, symObjAddr: 0x9F10, symBinAddr: 0x19010, symSize: 0x8 }
  - { offsetInCU: 0x5C8A1, offset: 0x180A3A, size: 0x8, addend: 0x0, symName: __ZNSt3__128__invoke_void_return_wrapperIvLb1EE6__callB8ue170006IJRZN4grpc8internal30CallbackServerStreamingHandlerINS3_10ByteBufferES6_E24ServerCallbackWriterImpl19SendInitialMetadataEvEUlbE_bEEEvDpOT_, symObjAddr: 0x9F60, symBinAddr: 0x19060, symSize: 0x5C }
  - { offsetInCU: 0x5CA12, offset: 0x180BAB, size: 0x8, addend: 0x0, symName: __ZNKSt3__110__function6__funcIZN4grpc8internal30CallbackServerStreamingHandlerINS2_10ByteBufferES5_E24ServerCallbackWriterImpl19SendInitialMetadataEvEUlbE_NS_9allocatorIS8_EEFvbEE6targetERKSt9type_info, symObjAddr: 0x9F18, symBinAddr: 0x19018, symSize: 0x3C }
  - { offsetInCU: 0x5CA62, offset: 0x180BFB, size: 0x8, addend: 0x0, symName: __ZNKSt3__110__function6__funcIZN4grpc8internal30CallbackServerStreamingHandlerINS2_10ByteBufferES5_E24ServerCallbackWriterImpl19SendInitialMetadataEvEUlbE_NS_9allocatorIS8_EEFvbEE11target_typeEv, symObjAddr: 0x9F54, symBinAddr: 0x19054, symSize: 0xC }
  - { offsetInCU: 0x5CAC3, offset: 0x180C5C, size: 0x8, addend: 0x0, symName: __ZNSt3__110__function6__funcIZN4grpc8internal30CallbackServerStreamingHandlerINS2_10ByteBufferES5_E10RunHandlerERKNS3_13MethodHandler16HandlerParameterEEUlbE_NS_9allocatorISB_EEFvbEED1Ev, symObjAddr: 0x9FBC, symBinAddr: 0x190BC, symSize: 0x4 }
  - { offsetInCU: 0x5CAEF, offset: 0x180C88, size: 0x8, addend: 0x0, symName: __ZNSt3__110__function6__funcIZN4grpc8internal30CallbackServerStreamingHandlerINS2_10ByteBufferES5_E10RunHandlerERKNS3_13MethodHandler16HandlerParameterEEUlbE_NS_9allocatorISB_EEFvbEED0Ev, symObjAddr: 0x9FC0, symBinAddr: 0x190C0, symSize: 0x4 }
  - { offsetInCU: 0x5CCF3, offset: 0x180E8C, size: 0x8, addend: 0x0, symName: __ZNKSt3__110__function6__funcIZN4grpc8internal30CallbackServerStreamingHandlerINS2_10ByteBufferES5_E10RunHandlerERKNS3_13MethodHandler16HandlerParameterEEUlbE_NS_9allocatorISB_EEFvbEE7__cloneEv, symObjAddr: 0x9FC4, symBinAddr: 0x190C4, symSize: 0x34 }
  - { offsetInCU: 0x5CFE8, offset: 0x181181, size: 0x8, addend: 0x0, symName: __ZNKSt3__110__function6__funcIZN4grpc8internal30CallbackServerStreamingHandlerINS2_10ByteBufferES5_E10RunHandlerERKNS3_13MethodHandler16HandlerParameterEEUlbE_NS_9allocatorISB_EEFvbEE7__cloneEPNS0_6__baseISE_EE, symObjAddr: 0x9FF8, symBinAddr: 0x190F8, symSize: 0x14 }
  - { offsetInCU: 0x5D020, offset: 0x1811B9, size: 0x8, addend: 0x0, symName: __ZNKSt3__110__function6__funcIZN4grpc8internal30CallbackServerStreamingHandlerINS2_10ByteBufferES5_E10RunHandlerERKNS3_13MethodHandler16HandlerParameterEEUlbE_NS_9allocatorISB_EEFvbEE7__cloneEPNS0_6__baseISE_EE, symObjAddr: 0x9FF8, symBinAddr: 0x190F8, symSize: 0x14 }
  - { offsetInCU: 0x5D04E, offset: 0x1811E7, size: 0x8, addend: 0x0, symName: __ZNKSt3__110__function6__funcIZN4grpc8internal30CallbackServerStreamingHandlerINS2_10ByteBufferES5_E10RunHandlerERKNS3_13MethodHandler16HandlerParameterEEUlbE_NS_9allocatorISB_EEFvbEE7__cloneEPNS0_6__baseISE_EE, symObjAddr: 0x9FF8, symBinAddr: 0x190F8, symSize: 0x14 }
  - { offsetInCU: 0x5D07C, offset: 0x181215, size: 0x8, addend: 0x0, symName: __ZNKSt3__110__function6__funcIZN4grpc8internal30CallbackServerStreamingHandlerINS2_10ByteBufferES5_E10RunHandlerERKNS3_13MethodHandler16HandlerParameterEEUlbE_NS_9allocatorISB_EEFvbEE7__cloneEPNS0_6__baseISE_EE, symObjAddr: 0x9FF8, symBinAddr: 0x190F8, symSize: 0x14 }
  - { offsetInCU: 0x5D091, offset: 0x18122A, size: 0x8, addend: 0x0, symName: __ZNKSt3__110__function6__funcIZN4grpc8internal30CallbackServerStreamingHandlerINS2_10ByteBufferES5_E10RunHandlerERKNS3_13MethodHandler16HandlerParameterEEUlbE_NS_9allocatorISB_EEFvbEE7__cloneEPNS0_6__baseISE_EE, symObjAddr: 0x9FF8, symBinAddr: 0x190F8, symSize: 0x14 }
  - { offsetInCU: 0x5D0A5, offset: 0x18123E, size: 0x8, addend: 0x0, symName: __ZNKSt3__110__function6__funcIZN4grpc8internal30CallbackServerStreamingHandlerINS2_10ByteBufferES5_E10RunHandlerERKNS3_13MethodHandler16HandlerParameterEEUlbE_NS_9allocatorISB_EEFvbEE7__cloneEPNS0_6__baseISE_EE, symObjAddr: 0x9FF8, symBinAddr: 0x190F8, symSize: 0x14 }
  - { offsetInCU: 0x5D0B9, offset: 0x181252, size: 0x8, addend: 0x0, symName: __ZNKSt3__110__function6__funcIZN4grpc8internal30CallbackServerStreamingHandlerINS2_10ByteBufferES5_E10RunHandlerERKNS3_13MethodHandler16HandlerParameterEEUlbE_NS_9allocatorISB_EEFvbEE7__cloneEPNS0_6__baseISE_EE, symObjAddr: 0x9FF8, symBinAddr: 0x190F8, symSize: 0x14 }
  - { offsetInCU: 0x5D0CE, offset: 0x181267, size: 0x8, addend: 0x0, symName: __ZNKSt3__110__function6__funcIZN4grpc8internal30CallbackServerStreamingHandlerINS2_10ByteBufferES5_E10RunHandlerERKNS3_13MethodHandler16HandlerParameterEEUlbE_NS_9allocatorISB_EEFvbEE7__cloneEPNS0_6__baseISE_EE, symObjAddr: 0x9FF8, symBinAddr: 0x190F8, symSize: 0x14 }
  - { offsetInCU: 0x5D0E6, offset: 0x18127F, size: 0x8, addend: 0x0, symName: __ZNSt3__110__function6__funcIZN4grpc8internal30CallbackServerStreamingHandlerINS2_10ByteBufferES5_E10RunHandlerERKNS3_13MethodHandler16HandlerParameterEEUlbE_NS_9allocatorISB_EEFvbEE7destroyEv, symObjAddr: 0xA00C, symBinAddr: 0x1910C, symSize: 0x4 }
  - { offsetInCU: 0x5D139, offset: 0x1812D2, size: 0x8, addend: 0x0, symName: __ZNSt3__110__function6__funcIZN4grpc8internal30CallbackServerStreamingHandlerINS2_10ByteBufferES5_E10RunHandlerERKNS3_13MethodHandler16HandlerParameterEEUlbE_NS_9allocatorISB_EEFvbEE18destroy_deallocateEv, symObjAddr: 0xA010, symBinAddr: 0x19110, symSize: 0x4 }
  - { offsetInCU: 0x5D16F, offset: 0x181308, size: 0x8, addend: 0x0, symName: __ZNSt3__110__function6__funcIZN4grpc8internal30CallbackServerStreamingHandlerINS2_10ByteBufferES5_E10RunHandlerERKNS3_13MethodHandler16HandlerParameterEEUlbE_NS_9allocatorISB_EEFvbEE18destroy_deallocateEv, symObjAddr: 0xA010, symBinAddr: 0x19110, symSize: 0x4 }
  - { offsetInCU: 0x5D191, offset: 0x18132A, size: 0x8, addend: 0x0, symName: __ZNSt3__110__function6__funcIZN4grpc8internal30CallbackServerStreamingHandlerINS2_10ByteBufferES5_E10RunHandlerERKNS3_13MethodHandler16HandlerParameterEEUlbE_NS_9allocatorISB_EEFvbEE18destroy_deallocateEv, symObjAddr: 0xA010, symBinAddr: 0x19110, symSize: 0x4 }
  - { offsetInCU: 0x5D1BC, offset: 0x181355, size: 0x8, addend: 0x0, symName: __ZNSt3__110__function6__funcIZN4grpc8internal30CallbackServerStreamingHandlerINS2_10ByteBufferES5_E10RunHandlerERKNS3_13MethodHandler16HandlerParameterEEUlbE_NS_9allocatorISB_EEFvbEE18destroy_deallocateEv, symObjAddr: 0xA010, symBinAddr: 0x19110, symSize: 0x4 }
  - { offsetInCU: 0x5D1E2, offset: 0x18137B, size: 0x8, addend: 0x0, symName: __ZNSt3__110__function6__funcIZN4grpc8internal30CallbackServerStreamingHandlerINS2_10ByteBufferES5_E10RunHandlerERKNS3_13MethodHandler16HandlerParameterEEUlbE_NS_9allocatorISB_EEFvbEE18destroy_deallocateEv, symObjAddr: 0xA010, symBinAddr: 0x19110, symSize: 0x4 }
  - { offsetInCU: 0x5D289, offset: 0x181422, size: 0x8, addend: 0x0, symName: __ZNSt3__110__function6__funcIZN4grpc8internal30CallbackServerStreamingHandlerINS2_10ByteBufferES5_E10RunHandlerERKNS3_13MethodHandler16HandlerParameterEEUlbE_NS_9allocatorISB_EEFvbEEclEOb, symObjAddr: 0xA014, symBinAddr: 0x19114, symSize: 0x28 }
  - { offsetInCU: 0x5D3AE, offset: 0x181547, size: 0x8, addend: 0x0, symName: __ZNKSt3__110__function6__funcIZN4grpc8internal30CallbackServerStreamingHandlerINS2_10ByteBufferES5_E10RunHandlerERKNS3_13MethodHandler16HandlerParameterEEUlbE_NS_9allocatorISB_EEFvbEE6targetERKSt9type_info, symObjAddr: 0xA03C, symBinAddr: 0x1913C, symSize: 0x3C }
  - { offsetInCU: 0x5D3FE, offset: 0x181597, size: 0x8, addend: 0x0, symName: __ZNKSt3__110__function6__funcIZN4grpc8internal30CallbackServerStreamingHandlerINS2_10ByteBufferES5_E10RunHandlerERKNS3_13MethodHandler16HandlerParameterEEUlbE_NS_9allocatorISB_EEFvbEE11target_typeEv, symObjAddr: 0xA078, symBinAddr: 0x19178, symSize: 0xC }
  - { offsetInCU: 0x5D477, offset: 0x181610, size: 0x8, addend: 0x0, symName: __ZN4grpc8internal17FinishOnlyReactorINS_18ServerWriteReactorINS_10ByteBufferEEEED1Ev, symObjAddr: 0xA1B0, symBinAddr: 0x192B0, symSize: 0x4 }
  - { offsetInCU: 0x5D499, offset: 0x181632, size: 0x8, addend: 0x0, symName: __ZN4grpc8internal17FinishOnlyReactorINS_18ServerWriteReactorINS_10ByteBufferEEEED1Ev, symObjAddr: 0xA1B0, symBinAddr: 0x192B0, symSize: 0x4 }
  - { offsetInCU: 0x5D4B7, offset: 0x181650, size: 0x8, addend: 0x0, symName: __ZN4grpc8internal17FinishOnlyReactorINS_18ServerWriteReactorINS_10ByteBufferEEEED1Ev, symObjAddr: 0xA1B0, symBinAddr: 0x192B0, symSize: 0x4 }
  - { offsetInCU: 0x5D4E8, offset: 0x181681, size: 0x8, addend: 0x0, symName: __ZN4grpc8internal17FinishOnlyReactorINS_18ServerWriteReactorINS_10ByteBufferEEEED0Ev, symObjAddr: 0xA1B4, symBinAddr: 0x192B4, symSize: 0x14 }
  - { offsetInCU: 0x5D565, offset: 0x1816FE, size: 0x8, addend: 0x0, symName: __ZN4grpc8internal17FinishOnlyReactorINS_18ServerWriteReactorINS_10ByteBufferEEEE6OnDoneEv, symObjAddr: 0xA1C8, symBinAddr: 0x192C8, symSize: 0xC }
  - { offsetInCU: 0x5D59F, offset: 0x181738, size: 0x8, addend: 0x0, symName: __ZNSt3__110__function6__funcIZN4grpc8internal30CallbackServerStreamingHandlerINS2_10ByteBufferES5_E24ServerCallbackWriterImpl12SetupReactorEPNS2_18ServerWriteReactorIS5_EEEUlbE_NS_9allocatorISB_EEFvbEED1Ev, symObjAddr: 0xA1D4, symBinAddr: 0x192D4, symSize: 0x4 }
  - { offsetInCU: 0x5D5CB, offset: 0x181764, size: 0x8, addend: 0x0, symName: __ZNSt3__110__function6__funcIZN4grpc8internal30CallbackServerStreamingHandlerINS2_10ByteBufferES5_E24ServerCallbackWriterImpl12SetupReactorEPNS2_18ServerWriteReactorIS5_EEEUlbE_NS_9allocatorISB_EEFvbEED0Ev, symObjAddr: 0xA1D8, symBinAddr: 0x192D8, symSize: 0x4 }
  - { offsetInCU: 0x5D7CF, offset: 0x181968, size: 0x8, addend: 0x0, symName: __ZNKSt3__110__function6__funcIZN4grpc8internal30CallbackServerStreamingHandlerINS2_10ByteBufferES5_E24ServerCallbackWriterImpl12SetupReactorEPNS2_18ServerWriteReactorIS5_EEEUlbE_NS_9allocatorISB_EEFvbEE7__cloneEv, symObjAddr: 0xA1DC, symBinAddr: 0x192DC, symSize: 0x38 }
  - { offsetInCU: 0x5DAF1, offset: 0x181C8A, size: 0x8, addend: 0x0, symName: __ZNKSt3__110__function6__funcIZN4grpc8internal30CallbackServerStreamingHandlerINS2_10ByteBufferES5_E24ServerCallbackWriterImpl12SetupReactorEPNS2_18ServerWriteReactorIS5_EEEUlbE_NS_9allocatorISB_EEFvbEE7__cloneEPNS0_6__baseISE_EE, symObjAddr: 0xA214, symBinAddr: 0x19314, symSize: 0x18 }
  - { offsetInCU: 0x5DB29, offset: 0x181CC2, size: 0x8, addend: 0x0, symName: __ZNKSt3__110__function6__funcIZN4grpc8internal30CallbackServerStreamingHandlerINS2_10ByteBufferES5_E24ServerCallbackWriterImpl12SetupReactorEPNS2_18ServerWriteReactorIS5_EEEUlbE_NS_9allocatorISB_EEFvbEE7__cloneEPNS0_6__baseISE_EE, symObjAddr: 0xA214, symBinAddr: 0x19314, symSize: 0x18 }
  - { offsetInCU: 0x5DB57, offset: 0x181CF0, size: 0x8, addend: 0x0, symName: __ZNKSt3__110__function6__funcIZN4grpc8internal30CallbackServerStreamingHandlerINS2_10ByteBufferES5_E24ServerCallbackWriterImpl12SetupReactorEPNS2_18ServerWriteReactorIS5_EEEUlbE_NS_9allocatorISB_EEFvbEE7__cloneEPNS0_6__baseISE_EE, symObjAddr: 0xA214, symBinAddr: 0x19314, symSize: 0x18 }
  - { offsetInCU: 0x5DC6D, offset: 0x181E06, size: 0x8, addend: 0x0, symName: __ZNSt3__110__function6__funcIZN4grpc8internal30CallbackServerStreamingHandlerINS2_10ByteBufferES5_E24ServerCallbackWriterImpl12SetupReactorEPNS2_18ServerWriteReactorIS5_EEEUlbE_NS_9allocatorISB_EEFvbEE7destroyEv, symObjAddr: 0xA22C, symBinAddr: 0x1932C, symSize: 0x4 }
  - { offsetInCU: 0x5DCC0, offset: 0x181E59, size: 0x8, addend: 0x0, symName: __ZNSt3__110__function6__funcIZN4grpc8internal30CallbackServerStreamingHandlerINS2_10ByteBufferES5_E24ServerCallbackWriterImpl12SetupReactorEPNS2_18ServerWriteReactorIS5_EEEUlbE_NS_9allocatorISB_EEFvbEE18destroy_deallocateEv, symObjAddr: 0xA230, symBinAddr: 0x19330, symSize: 0x4 }
  - { offsetInCU: 0x5DCF6, offset: 0x181E8F, size: 0x8, addend: 0x0, symName: __ZNSt3__110__function6__funcIZN4grpc8internal30CallbackServerStreamingHandlerINS2_10ByteBufferES5_E24ServerCallbackWriterImpl12SetupReactorEPNS2_18ServerWriteReactorIS5_EEEUlbE_NS_9allocatorISB_EEFvbEE18destroy_deallocateEv, symObjAddr: 0xA230, symBinAddr: 0x19330, symSize: 0x4 }
  - { offsetInCU: 0x5DD18, offset: 0x181EB1, size: 0x8, addend: 0x0, symName: __ZNSt3__110__function6__funcIZN4grpc8internal30CallbackServerStreamingHandlerINS2_10ByteBufferES5_E24ServerCallbackWriterImpl12SetupReactorEPNS2_18ServerWriteReactorIS5_EEEUlbE_NS_9allocatorISB_EEFvbEE18destroy_deallocateEv, symObjAddr: 0xA230, symBinAddr: 0x19330, symSize: 0x4 }
  - { offsetInCU: 0x5DD43, offset: 0x181EDC, size: 0x8, addend: 0x0, symName: __ZNSt3__110__function6__funcIZN4grpc8internal30CallbackServerStreamingHandlerINS2_10ByteBufferES5_E24ServerCallbackWriterImpl12SetupReactorEPNS2_18ServerWriteReactorIS5_EEEUlbE_NS_9allocatorISB_EEFvbEE18destroy_deallocateEv, symObjAddr: 0xA230, symBinAddr: 0x19330, symSize: 0x4 }
  - { offsetInCU: 0x5DD69, offset: 0x181F02, size: 0x8, addend: 0x0, symName: __ZNSt3__110__function6__funcIZN4grpc8internal30CallbackServerStreamingHandlerINS2_10ByteBufferES5_E24ServerCallbackWriterImpl12SetupReactorEPNS2_18ServerWriteReactorIS5_EEEUlbE_NS_9allocatorISB_EEFvbEE18destroy_deallocateEv, symObjAddr: 0xA230, symBinAddr: 0x19330, symSize: 0x4 }
  - { offsetInCU: 0x5DDB4, offset: 0x181F4D, size: 0x8, addend: 0x0, symName: __ZNSt3__110__function6__funcIZN4grpc8internal30CallbackServerStreamingHandlerINS2_10ByteBufferES5_E24ServerCallbackWriterImpl12SetupReactorEPNS2_18ServerWriteReactorIS5_EEEUlbE_NS_9allocatorISB_EEFvbEEclEOb, symObjAddr: 0xA234, symBinAddr: 0x19334, symSize: 0x8 }
  - { offsetInCU: 0x5DE27, offset: 0x181FC0, size: 0x8, addend: 0x0, symName: __ZNSt3__128__invoke_void_return_wrapperIvLb1EE6__callB8ue170006IJRZN4grpc8internal30CallbackServerStreamingHandlerINS3_10ByteBufferES6_E24ServerCallbackWriterImpl12SetupReactorEPNS3_18ServerWriteReactorIS6_EEEUlbE_bEEEvDpOT_, symObjAddr: 0xA284, symBinAddr: 0x19384, symSize: 0x58 }
  - { offsetInCU: 0x5DF43, offset: 0x1820DC, size: 0x8, addend: 0x0, symName: __ZNKSt3__110__function6__funcIZN4grpc8internal30CallbackServerStreamingHandlerINS2_10ByteBufferES5_E24ServerCallbackWriterImpl12SetupReactorEPNS2_18ServerWriteReactorIS5_EEEUlbE_NS_9allocatorISB_EEFvbEE6targetERKSt9type_info, symObjAddr: 0xA23C, symBinAddr: 0x1933C, symSize: 0x3C }
  - { offsetInCU: 0x5DF93, offset: 0x18212C, size: 0x8, addend: 0x0, symName: __ZNKSt3__110__function6__funcIZN4grpc8internal30CallbackServerStreamingHandlerINS2_10ByteBufferES5_E24ServerCallbackWriterImpl12SetupReactorEPNS2_18ServerWriteReactorIS5_EEEUlbE_NS_9allocatorISB_EEFvbEE11target_typeEv, symObjAddr: 0xA278, symBinAddr: 0x19378, symSize: 0xC }
  - { offsetInCU: 0x5E0A4, offset: 0x18223D, size: 0x8, addend: 0x0, symName: __ZN4absl12lts_2024011612log_internal10LogMessagelsIPN9grpc_core8RefCountELi0EEERS2_RKT_, symObjAddr: 0xA3DC, symBinAddr: 0x194DC, symSize: 0x68 }
  - { offsetInCU: 0x5E189, offset: 0x182322, size: 0x8, addend: 0x0, symName: __ZN9grpc_core8RefCount5UnrefEv.cold.1, symObjAddr: 0xAA9C, symBinAddr: 0x31E2C, symSize: 0x48 }
  - { offsetInCU: 0x5E21C, offset: 0x1823B5, size: 0x8, addend: 0x0, symName: _OUTLINED_FUNCTION_0, symObjAddr: 0xAAE4, symBinAddr: 0x19700, symSize: 0x18 }
  - { offsetInCU: 0x5E234, offset: 0x1823CD, size: 0x8, addend: 0x0, symName: _OUTLINED_FUNCTION_1, symObjAddr: 0xAAFC, symBinAddr: 0x19718, symSize: 0x10 }
  - { offsetInCU: 0x5E24C, offset: 0x1823E5, size: 0x8, addend: 0x0, symName: _OUTLINED_FUNCTION_2, symObjAddr: 0xAB0C, symBinAddr: 0x19728, symSize: 0xC }
  - { offsetInCU: 0x5E264, offset: 0x1823FD, size: 0x8, addend: 0x0, symName: _OUTLINED_FUNCTION_3, symObjAddr: 0xAB18, symBinAddr: 0x19734, symSize: 0xC }
  - { offsetInCU: 0x5E27C, offset: 0x182415, size: 0x8, addend: 0x0, symName: _OUTLINED_FUNCTION_4, symObjAddr: 0xAB24, symBinAddr: 0x19740, symSize: 0x8 }
  - { offsetInCU: 0x12FDC, offset: 0x195AFE, size: 0x8, addend: 0x0, symName: __ZN4grpc8internal30ExternalConnectionAcceptorImplC2ERKNSt3__112basic_stringIcNS2_11char_traitsIcEENS2_9allocatorIcEEEENS_13ServerBuilder17experimental_type22ExternalConnectionTypeENS2_10shared_ptrINS_17ServerCredentialsEEE, symObjAddr: 0x0, symBinAddr: 0x19748, symSize: 0x11C }
  - { offsetInCU: 0x135C9, offset: 0x1960EB, size: 0x8, addend: 0x0, symName: __ZNSt3__110shared_ptrIN4grpc17ServerCredentialsEED2B8ue170006Ev, symObjAddr: 0x5EC, symBinAddr: 0x19C24, symSize: 0x58 }
  - { offsetInCU: 0x1365D, offset: 0x19617F, size: 0x8, addend: 0x0, symName: __ZN4grpc8internal30ExternalConnectionAcceptorImplC1ERKNSt3__112basic_stringIcNS2_11char_traitsIcEENS2_9allocatorIcEEEENS_13ServerBuilder17experimental_type22ExternalConnectionTypeENS2_10shared_ptrINS_17ServerCredentialsEEE, symObjAddr: 0x11C, symBinAddr: 0x19864, symSize: 0x4 }
  - { offsetInCU: 0x136B6, offset: 0x1961D8, size: 0x8, addend: 0x0, symName: __ZN4grpc8internal30ExternalConnectionAcceptorImplC1ERKNSt3__112basic_stringIcNS2_11char_traitsIcEENS2_9allocatorIcEEEENS_13ServerBuilder17experimental_type22ExternalConnectionTypeENS2_10shared_ptrINS_17ServerCredentialsEEE, symObjAddr: 0x11C, symBinAddr: 0x19864, symSize: 0x4 }
  - { offsetInCU: 0x13999, offset: 0x1964BB, size: 0x8, addend: 0x0, symName: __ZN4grpc8internal30ExternalConnectionAcceptorImpl11GetAcceptorEv, symObjAddr: 0x120, symBinAddr: 0x19868, symSize: 0xE0 }
  - { offsetInCU: 0x13C72, offset: 0x196794, size: 0x8, addend: 0x0, symName: __ZNSt3__110shared_ptrIN4grpc8internal30ExternalConnectionAcceptorImplEEC2B8ue170006IS3_vEERKNS_8weak_ptrIT_EE, symObjAddr: 0x69C, symBinAddr: 0x19CD4, symSize: 0x40 }
  - { offsetInCU: 0x13DC6, offset: 0x1968E8, size: 0x8, addend: 0x0, symName: __ZN4grpc8internal30ExternalConnectionAcceptorImpl19HandleNewConnectionEPNS_12experimental26ExternalConnectionAcceptor23NewConnectionParametersE, symObjAddr: 0x200, symBinAddr: 0x19948, symSize: 0x138 }
  - { offsetInCU: 0x1402C, offset: 0x196B4E, size: 0x8, addend: 0x0, symName: __ZN4grpc8internal30ExternalConnectionAcceptorImpl8ShutdownEv, symObjAddr: 0x338, symBinAddr: 0x19A80, symSize: 0x3C }
  - { offsetInCU: 0x1411D, offset: 0x196C3F, size: 0x8, addend: 0x0, symName: __ZN4grpc8internal30ExternalConnectionAcceptorImpl5StartEv, symObjAddr: 0x374, symBinAddr: 0x19ABC, symSize: 0xEC }
  - { offsetInCU: 0x1426A, offset: 0x196D8C, size: 0x8, addend: 0x0, symName: __ZN4grpc8internal30ExternalConnectionAcceptorImpl16SetToChannelArgsEPNS_16ChannelArgumentsE, symObjAddr: 0x460, symBinAddr: 0x19BA8, symSize: 0x14 }
  - { offsetInCU: 0x142D9, offset: 0x196DFB, size: 0x8, addend: 0x0, symName: __ZN4grpc8internal12_GLOBAL__N_115AcceptorWrapperD1Ev, symObjAddr: 0x480, symBinAddr: 0x19BBC, symSize: 0x30 }
  - { offsetInCU: 0x14341, offset: 0x196E63, size: 0x8, addend: 0x0, symName: __ZNSt3__110shared_ptrIN4grpc8internal30ExternalConnectionAcceptorImplEED2B8ue170006Ev, symObjAddr: 0x644, symBinAddr: 0x19C7C, symSize: 0x58 }
  - { offsetInCU: 0x143F1, offset: 0x196F13, size: 0x8, addend: 0x0, symName: __ZN4grpc8internal12_GLOBAL__N_115AcceptorWrapperD0Ev, symObjAddr: 0x4B0, symBinAddr: 0x19BEC, symSize: 0x30 }
  - { offsetInCU: 0x14496, offset: 0x196FB8, size: 0x8, addend: 0x0, symName: __ZN4grpc8internal12_GLOBAL__N_115AcceptorWrapper19HandleNewConnectionEPNS_12experimental26ExternalConnectionAcceptor23NewConnectionParametersE, symObjAddr: 0x4E0, symBinAddr: 0x19C1C, symSize: 0x8 }
  - { offsetInCU: 0x144CE, offset: 0x196FF0, size: 0x8, addend: 0x0, symName: __ZN4grpc8internal12_GLOBAL__N_115AcceptorWrapper19HandleNewConnectionEPNS_12experimental26ExternalConnectionAcceptor23NewConnectionParametersE, symObjAddr: 0x4E0, symBinAddr: 0x19C1C, symSize: 0x8 }
  - { offsetInCU: 0x26, offset: 0x197269, size: 0x8, addend: 0x0, symName: __ZN4grpc32DefaultHealthCheckServiceEnabledEv, symObjAddr: 0x0, symBinAddr: 0x19D14, symSize: 0xC }
  - { offsetInCU: 0x47, offset: 0x19728A, size: 0x8, addend: 0x0, symName: __ZN4grpc12_GLOBAL__N_143g_grpc_default_health_check_service_enabledE, symObjAddr: 0xE526, symBinAddr: 0x491E0, symSize: 0x0 }
  - { offsetInCU: 0x64, offset: 0x1972A7, size: 0x8, addend: 0x0, symName: __ZN4grpc32DefaultHealthCheckServiceEnabledEv, symObjAddr: 0x0, symBinAddr: 0x19D14, symSize: 0xC }
  - { offsetInCU: 0x82, offset: 0x1972C5, size: 0x8, addend: 0x0, symName: __ZN4grpc31EnableDefaultHealthCheckServiceEb, symObjAddr: 0xC, symBinAddr: 0x19D20, symSize: 0xC }
  - { offsetInCU: 0x26, offset: 0x19B3DD, size: 0x8, addend: 0x0, symName: __ZN4grpc37HealthCheckServiceServerBuilderOptionC2ENSt3__110unique_ptrINS_27HealthCheckServiceInterfaceENS1_14default_deleteIS3_EEEE, symObjAddr: 0x0, symBinAddr: 0x19D2C, symSize: 0x18 }
  - { offsetInCU: 0x45, offset: 0x19B3FC, size: 0x8, addend: 0x0, symName: __ZN4grpcL31kHealthCheckServiceInterfaceArgE, symObjAddr: 0x2D0, symBinAddr: 0x369E3, symSize: 0x0 }
  - { offsetInCU: 0x62A4, offset: 0x1A165B, size: 0x8, addend: 0x0, symName: __ZN4grpc37HealthCheckServiceServerBuilderOptionC2ENSt3__110unique_ptrINS_27HealthCheckServiceInterfaceENS1_14default_deleteIS3_EEEE, symObjAddr: 0x0, symBinAddr: 0x19D2C, symSize: 0x18 }
  - { offsetInCU: 0x62CF, offset: 0x1A1686, size: 0x8, addend: 0x0, symName: __ZN4grpc37HealthCheckServiceServerBuilderOptionC2ENSt3__110unique_ptrINS_27HealthCheckServiceInterfaceENS1_14default_deleteIS3_EEEE, symObjAddr: 0x0, symBinAddr: 0x19D2C, symSize: 0x18 }
  - { offsetInCU: 0x62E3, offset: 0x1A169A, size: 0x8, addend: 0x0, symName: __ZN4grpc37HealthCheckServiceServerBuilderOptionC2ENSt3__110unique_ptrINS_27HealthCheckServiceInterfaceENS1_14default_deleteIS3_EEEE, symObjAddr: 0x0, symBinAddr: 0x19D2C, symSize: 0x18 }
  - { offsetInCU: 0x62F7, offset: 0x1A16AE, size: 0x8, addend: 0x0, symName: __ZN4grpc37HealthCheckServiceServerBuilderOptionC2ENSt3__110unique_ptrINS_27HealthCheckServiceInterfaceENS1_14default_deleteIS3_EEEE, symObjAddr: 0x0, symBinAddr: 0x19D2C, symSize: 0x18 }
  - { offsetInCU: 0x6342, offset: 0x1A16F9, size: 0x8, addend: 0x0, symName: __ZN4grpc37HealthCheckServiceServerBuilderOptionC1ENSt3__110unique_ptrINS_27HealthCheckServiceInterfaceENS1_14default_deleteIS3_EEEE, symObjAddr: 0x18, symBinAddr: 0x19D44, symSize: 0x18 }
  - { offsetInCU: 0x637E, offset: 0x1A1735, size: 0x8, addend: 0x0, symName: __ZN4grpc37HealthCheckServiceServerBuilderOptionC1ENSt3__110unique_ptrINS_27HealthCheckServiceInterfaceENS1_14default_deleteIS3_EEEE, symObjAddr: 0x18, symBinAddr: 0x19D44, symSize: 0x18 }
  - { offsetInCU: 0x63A1, offset: 0x1A1758, size: 0x8, addend: 0x0, symName: __ZN4grpc37HealthCheckServiceServerBuilderOptionC1ENSt3__110unique_ptrINS_27HealthCheckServiceInterfaceENS1_14default_deleteIS3_EEEE, symObjAddr: 0x18, symBinAddr: 0x19D44, symSize: 0x18 }
  - { offsetInCU: 0x63B5, offset: 0x1A176C, size: 0x8, addend: 0x0, symName: __ZN4grpc37HealthCheckServiceServerBuilderOptionC1ENSt3__110unique_ptrINS_27HealthCheckServiceInterfaceENS1_14default_deleteIS3_EEEE, symObjAddr: 0x18, symBinAddr: 0x19D44, symSize: 0x18 }
  - { offsetInCU: 0x63C9, offset: 0x1A1780, size: 0x8, addend: 0x0, symName: __ZN4grpc37HealthCheckServiceServerBuilderOptionC1ENSt3__110unique_ptrINS_27HealthCheckServiceInterfaceENS1_14default_deleteIS3_EEEE, symObjAddr: 0x18, symBinAddr: 0x19D44, symSize: 0x18 }
  - { offsetInCU: 0x64D8, offset: 0x1A188F, size: 0x8, addend: 0x0, symName: __ZN4grpc37HealthCheckServiceServerBuilderOption15UpdateArgumentsEPNS_16ChannelArgumentsE, symObjAddr: 0x30, symBinAddr: 0x19D5C, symSize: 0x78 }
  - { offsetInCU: 0x69FF, offset: 0x1A1DB6, size: 0x8, addend: 0x0, symName: __ZN4grpc37HealthCheckServiceServerBuilderOption13UpdatePluginsEPNSt3__16vectorINS1_10unique_ptrINS_19ServerBuilderPluginENS1_14default_deleteIS4_EEEENS1_9allocatorIS7_EEEE, symObjAddr: 0xA8, symBinAddr: 0x19DD4, symSize: 0x4 }
  - { offsetInCU: 0x6ACF, offset: 0x1A1E86, size: 0x8, addend: 0x0, symName: __ZN4grpc37HealthCheckServiceServerBuilderOptionD1Ev, symObjAddr: 0xAC, symBinAddr: 0x19DD8, symSize: 0x40 }
  - { offsetInCU: 0x6BAE, offset: 0x1A1F65, size: 0x8, addend: 0x0, symName: __ZN4grpc37HealthCheckServiceServerBuilderOptionD0Ev, symObjAddr: 0xEC, symBinAddr: 0x19E18, symSize: 0x40 }
  - { offsetInCU: 0x26, offset: 0x1A22A5, size: 0x8, addend: 0x0, symName: __ZN4grpc26InsecureChannelCredentialsEv, symObjAddr: 0x0, symBinAddr: 0x19E58, symSize: 0x70 }
  - { offsetInCU: 0xB17, offset: 0x1A2D96, size: 0x8, addend: 0x0, symName: __ZN4grpc26InsecureChannelCredentialsEv, symObjAddr: 0x0, symBinAddr: 0x19E58, symSize: 0x70 }
  - { offsetInCU: 0x9CA1, offset: 0x1ABF20, size: 0x8, addend: 0x0, symName: __ZNSt3__120__shared_ptr_emplaceIN4grpc12_GLOBAL__N_130InsecureChannelCredentialsImplENS_9allocatorIS3_EEED1Ev, symObjAddr: 0x70, symBinAddr: 0x19EC8, symSize: 0x10 }
  - { offsetInCU: 0x9CC3, offset: 0x1ABF42, size: 0x8, addend: 0x0, symName: __ZNSt3__120__shared_ptr_emplaceIN4grpc12_GLOBAL__N_130InsecureChannelCredentialsImplENS_9allocatorIS3_EEED1Ev, symObjAddr: 0x70, symBinAddr: 0x19EC8, symSize: 0x10 }
  - { offsetInCU: 0x9CFB, offset: 0x1ABF7A, size: 0x8, addend: 0x0, symName: __ZNSt3__120__shared_ptr_emplaceIN4grpc12_GLOBAL__N_130InsecureChannelCredentialsImplENS_9allocatorIS3_EEED0Ev, symObjAddr: 0x80, symBinAddr: 0x19ED8, symSize: 0x20 }
  - { offsetInCU: 0x9DAF, offset: 0x1AC02E, size: 0x8, addend: 0x0, symName: __ZNSt3__120__shared_ptr_emplaceIN4grpc12_GLOBAL__N_130InsecureChannelCredentialsImplENS_9allocatorIS3_EEE16__on_zero_sharedEv, symObjAddr: 0xA0, symBinAddr: 0x19EF8, symSize: 0x8 }
  - { offsetInCU: 0x9DD8, offset: 0x1AC057, size: 0x8, addend: 0x0, symName: __ZNSt3__120__shared_ptr_emplaceIN4grpc12_GLOBAL__N_130InsecureChannelCredentialsImplENS_9allocatorIS3_EEE16__on_zero_sharedEv, symObjAddr: 0xA0, symBinAddr: 0x19EF8, symSize: 0x8 }
  - { offsetInCU: 0x9E2C, offset: 0x1AC0AB, size: 0x8, addend: 0x0, symName: __ZNSt3__120__shared_ptr_emplaceIN4grpc12_GLOBAL__N_130InsecureChannelCredentialsImplENS_9allocatorIS3_EEE21__on_zero_shared_weakEv, symObjAddr: 0xA8, symBinAddr: 0x19F00, symSize: 0x4 }
  - { offsetInCU: 0x9E60, offset: 0x1AC0DF, size: 0x8, addend: 0x0, symName: __ZNSt3__120__shared_ptr_emplaceIN4grpc12_GLOBAL__N_130InsecureChannelCredentialsImplENS_9allocatorIS3_EEE21__on_zero_shared_weakEv, symObjAddr: 0xA8, symBinAddr: 0x19F00, symSize: 0x4 }
  - { offsetInCU: 0x9E82, offset: 0x1AC101, size: 0x8, addend: 0x0, symName: __ZNSt3__120__shared_ptr_emplaceIN4grpc12_GLOBAL__N_130InsecureChannelCredentialsImplENS_9allocatorIS3_EEE21__on_zero_shared_weakEv, symObjAddr: 0xA8, symBinAddr: 0x19F00, symSize: 0x4 }
  - { offsetInCU: 0x9EA4, offset: 0x1AC123, size: 0x8, addend: 0x0, symName: __ZNSt3__120__shared_ptr_emplaceIN4grpc12_GLOBAL__N_130InsecureChannelCredentialsImplENS_9allocatorIS3_EEE21__on_zero_shared_weakEv, symObjAddr: 0xA8, symBinAddr: 0x19F00, symSize: 0x4 }
  - { offsetInCU: 0x9ED0, offset: 0x1AC14F, size: 0x8, addend: 0x0, symName: __ZNSt3__120__shared_ptr_emplaceIN4grpc12_GLOBAL__N_130InsecureChannelCredentialsImplENS_9allocatorIS3_EEE21__on_zero_shared_weakEv, symObjAddr: 0xA8, symBinAddr: 0x19F00, symSize: 0x4 }
  - { offsetInCU: 0x9EF7, offset: 0x1AC176, size: 0x8, addend: 0x0, symName: __ZNSt3__120__shared_ptr_emplaceIN4grpc12_GLOBAL__N_130InsecureChannelCredentialsImplENS_9allocatorIS3_EEE21__on_zero_shared_weakEv, symObjAddr: 0xA8, symBinAddr: 0x19F00, symSize: 0x4 }
  - { offsetInCU: 0x9F22, offset: 0x1AC1A1, size: 0x8, addend: 0x0, symName: __ZN4grpc12_GLOBAL__N_130InsecureChannelCredentialsImplD1Ev, symObjAddr: 0xAC, symBinAddr: 0x19F04, symSize: 0x4 }
  - { offsetInCU: 0x9F44, offset: 0x1AC1C3, size: 0x8, addend: 0x0, symName: __ZN4grpc12_GLOBAL__N_130InsecureChannelCredentialsImplD1Ev, symObjAddr: 0xAC, symBinAddr: 0x19F04, symSize: 0x4 }
  - { offsetInCU: 0x9F5E, offset: 0x1AC1DD, size: 0x8, addend: 0x0, symName: __ZN4grpc12_GLOBAL__N_130InsecureChannelCredentialsImplD0Ev, symObjAddr: 0xB0, symBinAddr: 0x19F08, symSize: 0x14 }
  - { offsetInCU: 0xA32B, offset: 0x1AC5AA, size: 0x8, addend: 0x0, symName: __ZN4grpc12_GLOBAL__N_130InsecureChannelCredentialsImpl29CreateChannelWithInterceptorsERKNSt3__112basic_stringIcNS2_11char_traitsIcEENS2_9allocatorIcEEEERKNS_16ChannelArgumentsENS2_6vectorINS2_10unique_ptrINS_12experimental33ClientInterceptorFactoryInterfaceENS2_14default_deleteISH_EEEENS6_ISK_EEEE, symObjAddr: 0x128, symBinAddr: 0x19F1C, symSize: 0xEC }
  - { offsetInCU: 0x26, offset: 0x1AD125, size: 0x8, addend: 0x0, symName: __ZN4grpc25InsecureServerCredentialsEv, symObjAddr: 0x0, symBinAddr: 0x1A008, symSize: 0x70 }
  - { offsetInCU: 0x3063, offset: 0x1B0162, size: 0x8, addend: 0x0, symName: __ZN4grpc25InsecureServerCredentialsEv, symObjAddr: 0x0, symBinAddr: 0x1A008, symSize: 0x70 }
  - { offsetInCU: 0x56BB, offset: 0x1B27BA, size: 0x8, addend: 0x0, symName: __ZNSt3__120__shared_ptr_emplaceIN4grpc12_GLOBAL__N_129InsecureServerCredentialsImplENS_9allocatorIS3_EEED1Ev, symObjAddr: 0x70, symBinAddr: 0x1A078, symSize: 0x10 }
  - { offsetInCU: 0x56DD, offset: 0x1B27DC, size: 0x8, addend: 0x0, symName: __ZNSt3__120__shared_ptr_emplaceIN4grpc12_GLOBAL__N_129InsecureServerCredentialsImplENS_9allocatorIS3_EEED1Ev, symObjAddr: 0x70, symBinAddr: 0x1A078, symSize: 0x10 }
  - { offsetInCU: 0x5715, offset: 0x1B2814, size: 0x8, addend: 0x0, symName: __ZNSt3__120__shared_ptr_emplaceIN4grpc12_GLOBAL__N_129InsecureServerCredentialsImplENS_9allocatorIS3_EEED0Ev, symObjAddr: 0x80, symBinAddr: 0x1A088, symSize: 0x20 }
  - { offsetInCU: 0x57C9, offset: 0x1B28C8, size: 0x8, addend: 0x0, symName: __ZNSt3__120__shared_ptr_emplaceIN4grpc12_GLOBAL__N_129InsecureServerCredentialsImplENS_9allocatorIS3_EEE16__on_zero_sharedEv, symObjAddr: 0xA0, symBinAddr: 0x1A0A8, symSize: 0x8 }
  - { offsetInCU: 0x57F2, offset: 0x1B28F1, size: 0x8, addend: 0x0, symName: __ZNSt3__120__shared_ptr_emplaceIN4grpc12_GLOBAL__N_129InsecureServerCredentialsImplENS_9allocatorIS3_EEE16__on_zero_sharedEv, symObjAddr: 0xA0, symBinAddr: 0x1A0A8, symSize: 0x8 }
  - { offsetInCU: 0x5846, offset: 0x1B2945, size: 0x8, addend: 0x0, symName: __ZNSt3__120__shared_ptr_emplaceIN4grpc12_GLOBAL__N_129InsecureServerCredentialsImplENS_9allocatorIS3_EEE21__on_zero_shared_weakEv, symObjAddr: 0xA8, symBinAddr: 0x1A0B0, symSize: 0x4 }
  - { offsetInCU: 0x587A, offset: 0x1B2979, size: 0x8, addend: 0x0, symName: __ZNSt3__120__shared_ptr_emplaceIN4grpc12_GLOBAL__N_129InsecureServerCredentialsImplENS_9allocatorIS3_EEE21__on_zero_shared_weakEv, symObjAddr: 0xA8, symBinAddr: 0x1A0B0, symSize: 0x4 }
  - { offsetInCU: 0x589C, offset: 0x1B299B, size: 0x8, addend: 0x0, symName: __ZNSt3__120__shared_ptr_emplaceIN4grpc12_GLOBAL__N_129InsecureServerCredentialsImplENS_9allocatorIS3_EEE21__on_zero_shared_weakEv, symObjAddr: 0xA8, symBinAddr: 0x1A0B0, symSize: 0x4 }
  - { offsetInCU: 0x58BE, offset: 0x1B29BD, size: 0x8, addend: 0x0, symName: __ZNSt3__120__shared_ptr_emplaceIN4grpc12_GLOBAL__N_129InsecureServerCredentialsImplENS_9allocatorIS3_EEE21__on_zero_shared_weakEv, symObjAddr: 0xA8, symBinAddr: 0x1A0B0, symSize: 0x4 }
  - { offsetInCU: 0x58EA, offset: 0x1B29E9, size: 0x8, addend: 0x0, symName: __ZNSt3__120__shared_ptr_emplaceIN4grpc12_GLOBAL__N_129InsecureServerCredentialsImplENS_9allocatorIS3_EEE21__on_zero_shared_weakEv, symObjAddr: 0xA8, symBinAddr: 0x1A0B0, symSize: 0x4 }
  - { offsetInCU: 0x5911, offset: 0x1B2A10, size: 0x8, addend: 0x0, symName: __ZNSt3__120__shared_ptr_emplaceIN4grpc12_GLOBAL__N_129InsecureServerCredentialsImplENS_9allocatorIS3_EEE21__on_zero_shared_weakEv, symObjAddr: 0xA8, symBinAddr: 0x1A0B0, symSize: 0x4 }
  - { offsetInCU: 0x593C, offset: 0x1B2A3B, size: 0x8, addend: 0x0, symName: __ZN4grpc12_GLOBAL__N_129InsecureServerCredentialsImplD1Ev, symObjAddr: 0xAC, symBinAddr: 0x1A0B4, symSize: 0x4 }
  - { offsetInCU: 0x595E, offset: 0x1B2A5D, size: 0x8, addend: 0x0, symName: __ZN4grpc12_GLOBAL__N_129InsecureServerCredentialsImplD1Ev, symObjAddr: 0xAC, symBinAddr: 0x1A0B4, symSize: 0x4 }
  - { offsetInCU: 0x5978, offset: 0x1B2A77, size: 0x8, addend: 0x0, symName: __ZN4grpc12_GLOBAL__N_129InsecureServerCredentialsImplD0Ev, symObjAddr: 0xB0, symBinAddr: 0x1A0B8, symSize: 0x14 }
  - { offsetInCU: 0x41A2, offset: 0x1B6C7B, size: 0x8, addend: 0x0, symName: __ZN4grpc13ResourceQuotaC2Ev, symObjAddr: 0x0, symBinAddr: 0x1A0CC, symSize: 0x6C }
  - { offsetInCU: 0x4276, offset: 0x1B6D4F, size: 0x8, addend: 0x0, symName: __ZN4grpc13ResourceQuotaC1Ev, symObjAddr: 0xAC, symBinAddr: 0x1A138, symSize: 0x4 }
  - { offsetInCU: 0x42A4, offset: 0x1B6D7D, size: 0x8, addend: 0x0, symName: __ZN4grpc13ResourceQuotaC1Ev, symObjAddr: 0xAC, symBinAddr: 0x1A138, symSize: 0x4 }
  - { offsetInCU: 0x4315, offset: 0x1B6DEE, size: 0x8, addend: 0x0, symName: __ZN4grpc13ResourceQuotaC2ERKNSt3__112basic_stringIcNS1_11char_traitsIcEENS1_9allocatorIcEEEE, symObjAddr: 0xB0, symBinAddr: 0x1A13C, symSize: 0x7C }
  - { offsetInCU: 0x4414, offset: 0x1B6EED, size: 0x8, addend: 0x0, symName: __ZN4grpc13ResourceQuotaC1ERKNSt3__112basic_stringIcNS1_11char_traitsIcEENS1_9allocatorIcEEEE, symObjAddr: 0x12C, symBinAddr: 0x1A1B8, symSize: 0x4 }
  - { offsetInCU: 0x4450, offset: 0x1B6F29, size: 0x8, addend: 0x0, symName: __ZN4grpc13ResourceQuotaC1ERKNSt3__112basic_stringIcNS1_11char_traitsIcEENS1_9allocatorIcEEEE, symObjAddr: 0x12C, symBinAddr: 0x1A1B8, symSize: 0x4 }
  - { offsetInCU: 0x446C, offset: 0x1B6F45, size: 0x8, addend: 0x0, symName: __ZN4grpc13ResourceQuotaD2Ev, symObjAddr: 0x130, symBinAddr: 0x1A1BC, symSize: 0x2C }
  - { offsetInCU: 0x44CB, offset: 0x1B6FA4, size: 0x8, addend: 0x0, symName: __ZN4grpc13ResourceQuotaD1Ev, symObjAddr: 0x168, symBinAddr: 0x1A1E8, symSize: 0x4 }
  - { offsetInCU: 0x44EE, offset: 0x1B6FC7, size: 0x8, addend: 0x0, symName: __ZN4grpc13ResourceQuotaD1Ev, symObjAddr: 0x168, symBinAddr: 0x1A1E8, symSize: 0x4 }
  - { offsetInCU: 0x4523, offset: 0x1B6FFC, size: 0x8, addend: 0x0, symName: __ZN4grpc13ResourceQuotaD0Ev, symObjAddr: 0x16C, symBinAddr: 0x1A1EC, symSize: 0x14 }
  - { offsetInCU: 0x4581, offset: 0x1B705A, size: 0x8, addend: 0x0, symName: __ZN4grpc13ResourceQuota6ResizeEm, symObjAddr: 0x180, symBinAddr: 0x1A200, symSize: 0x28 }
  - { offsetInCU: 0x45E4, offset: 0x1B70BD, size: 0x8, addend: 0x0, symName: __ZN4grpc13ResourceQuota13SetMaxThreadsEi, symObjAddr: 0x1A8, symBinAddr: 0x1A228, symSize: 0x28 }
  - { offsetInCU: 0x4F7B, offset: 0x1BC09B, size: 0x8, addend: 0x0, symName: __ZNSt3__119__allocate_at_leastB8ue170006INS_9allocatorIN4grpc10string_refEEEEENS_19__allocation_resultINS_16allocator_traitsIT_E7pointerEEERS7_m, symObjAddr: 0xDDC, symBinAddr: 0x1A980, symSize: 0x34 }
  - { offsetInCU: 0x9211, offset: 0x1C0331, size: 0x8, addend: 0x0, symName: __ZNK4grpc17SecureAuthContext15GetPeerIdentityEv, symObjAddr: 0x0, symBinAddr: 0x1A250, symSize: 0x150 }
  - { offsetInCU: 0x994E, offset: 0x1C0A6E, size: 0x8, addend: 0x0, symName: __ZNKSt3__16vectorIN4grpc10string_refENS_9allocatorIS2_EEE20__throw_length_errorB8ue170006Ev, symObjAddr: 0xDC8, symBinAddr: 0x1A96C, symSize: 0x14 }
  - { offsetInCU: 0x9978, offset: 0x1C0A98, size: 0x8, addend: 0x0, symName: __ZNSt3__119__allocate_at_leastB8ue170006INS_9allocatorIN4grpc10string_refEEEEENS_19__allocation_resultINS_16allocator_traitsIT_E7pointerEEERS7_m, symObjAddr: 0xDDC, symBinAddr: 0x1A980, symSize: 0x34 }
  - { offsetInCU: 0x99BA, offset: 0x1C0ADA, size: 0x8, addend: 0x0, symName: __ZNK4grpc17SecureAuthContext27GetPeerIdentityPropertyNameEv, symObjAddr: 0x150, symBinAddr: 0x1A3A0, symSize: 0x48 }
  - { offsetInCU: 0x9C99, offset: 0x1C0DB9, size: 0x8, addend: 0x0, symName: __ZNKSt3__16vectorIN4grpc10string_refENS_9allocatorIS2_EEE20__throw_length_errorB8ue170006Ev, symObjAddr: 0xDC8, symBinAddr: 0x1A96C, symSize: 0x14 }
  - { offsetInCU: 0x9D0F, offset: 0x1C0E2F, size: 0x8, addend: 0x0, symName: __ZNK4grpc17SecureAuthContext18FindPropertyValuesERKNSt3__112basic_stringIcNS1_11char_traitsIcEENS1_9allocatorIcEEEE, symObjAddr: 0x198, symBinAddr: 0x1A3E8, symSize: 0x160 }
  - { offsetInCU: 0xA4F8, offset: 0x1C1618, size: 0x8, addend: 0x0, symName: __ZNK4grpc17SecureAuthContext5beginEv, symObjAddr: 0x2F8, symBinAddr: 0x1A548, symSize: 0x60 }
  - { offsetInCU: 0xA5C6, offset: 0x1C16E6, size: 0x8, addend: 0x0, symName: __ZNK4grpc17SecureAuthContext3endEv, symObjAddr: 0x358, symBinAddr: 0x1A5A8, symSize: 0x8 }
  - { offsetInCU: 0xA5FB, offset: 0x1C171B, size: 0x8, addend: 0x0, symName: __ZN4grpc17SecureAuthContext11AddPropertyERKNSt3__112basic_stringIcNS1_11char_traitsIcEENS1_9allocatorIcEEEERKNS_10string_refE, symObjAddr: 0x360, symBinAddr: 0x1A5B0, symSize: 0x28 }
  - { offsetInCU: 0xA646, offset: 0x1C1766, size: 0x8, addend: 0x0, symName: __ZN4grpc17SecureAuthContext11AddPropertyERKNSt3__112basic_stringIcNS1_11char_traitsIcEENS1_9allocatorIcEEEERKNS_10string_refE, symObjAddr: 0x360, symBinAddr: 0x1A5B0, symSize: 0x28 }
  - { offsetInCU: 0xA726, offset: 0x1C1846, size: 0x8, addend: 0x0, symName: __ZN4grpc17SecureAuthContext27SetPeerIdentityPropertyNameERKNSt3__112basic_stringIcNS1_11char_traitsIcEENS1_9allocatorIcEEEE, symObjAddr: 0x388, symBinAddr: 0x1A5D8, symSize: 0x34 }
  - { offsetInCU: 0xA81B, offset: 0x1C193B, size: 0x8, addend: 0x0, symName: __ZNK4grpc17SecureAuthContext19IsPeerAuthenticatedEv, symObjAddr: 0x3BC, symBinAddr: 0x1A60C, symSize: 0x24 }
  - { offsetInCU: 0xA8C6, offset: 0x1C19E6, size: 0x8, addend: 0x0, symName: __ZN4grpc17SecureAuthContextD1Ev, symObjAddr: 0x3E0, symBinAddr: 0x1A630, symSize: 0x28 }
  - { offsetInCU: 0xA92E, offset: 0x1C1A4E, size: 0x8, addend: 0x0, symName: __ZN9grpc_core13RefCountedPtrI17grpc_auth_contextED2Ev, symObjAddr: 0x430, symBinAddr: 0x1A680, symSize: 0x48 }
  - { offsetInCU: 0xA9F6, offset: 0x1C1B16, size: 0x8, addend: 0x0, symName: __ZN4grpc17SecureAuthContextD0Ev, symObjAddr: 0x408, symBinAddr: 0x1A658, symSize: 0x28 }
  - { offsetInCU: 0xAC19, offset: 0x1C1D39, size: 0x8, addend: 0x0, symName: __ZN17grpc_auth_contextD2Ev, symObjAddr: 0xA84, symBinAddr: 0x1A6C8, symSize: 0xC8 }
  - { offsetInCU: 0xB837, offset: 0x1C2957, size: 0x8, addend: 0x0, symName: __ZN9grpc_core13RefCountedPtrI17grpc_auth_contextE5resetERKNS_13DebugLocationEPKcPS1_, symObjAddr: 0xB4C, symBinAddr: 0x1A790, symSize: 0x44 }
  - { offsetInCU: 0xB9AF, offset: 0x1C2ACF, size: 0x8, addend: 0x0, symName: __ZN9grpc_core8RefCount5UnrefERKNS_13DebugLocationEPKc, symObjAddr: 0xB90, symBinAddr: 0x1A7D4, symSize: 0x198 }
  - { offsetInCU: 0xBD3F, offset: 0x1C2E5F, size: 0x8, addend: 0x0, symName: __ZN9grpc_core8RefCount5UnrefERKNS_13DebugLocationEPKc.cold.1, symObjAddr: 0xE60, symBinAddr: 0x31E74, symSize: 0x50 }
  - { offsetInCU: 0x37BF, offset: 0x1C681F, size: 0x8, addend: 0x0, symName: __ZNSt3__115allocate_sharedB8ue170006IN4grpc17SecureAuthContextENS_9allocatorIS2_EEJP17grpc_auth_contextEvEENS_10shared_ptrIT_EERKT0_DpOT1_, symObjAddr: 0x940, symBinAddr: 0x1AA58, symSize: 0x58 }
  - { offsetInCU: 0x52F0, offset: 0x1C8350, size: 0x8, addend: 0x0, symName: __ZN4grpc17CreateAuthContextEP9grpc_call, symObjAddr: 0x0, symBinAddr: 0x1A9E8, symSize: 0x70 }
  - { offsetInCU: 0x8A0B, offset: 0x1CBA6B, size: 0x8, addend: 0x0, symName: __ZNSt3__120__shared_ptr_emplaceIN4grpc17SecureAuthContextENS_9allocatorIS2_EEEC2B8ue170006IJP17grpc_auth_contextEEES4_DpOT_, symObjAddr: 0x998, symBinAddr: 0x1AAB0, symSize: 0x70 }
  - { offsetInCU: 0x8D07, offset: 0x1CBD67, size: 0x8, addend: 0x0, symName: __ZNSt3__120__shared_ptr_emplaceIN4grpc17SecureAuthContextENS_9allocatorIS2_EEED1Ev, symObjAddr: 0xA08, symBinAddr: 0x1AB20, symSize: 0x14 }
  - { offsetInCU: 0x8D29, offset: 0x1CBD89, size: 0x8, addend: 0x0, symName: __ZNSt3__120__shared_ptr_emplaceIN4grpc17SecureAuthContextENS_9allocatorIS2_EEED1Ev, symObjAddr: 0xA08, symBinAddr: 0x1AB20, symSize: 0x14 }
  - { offsetInCU: 0x8D61, offset: 0x1CBDC1, size: 0x8, addend: 0x0, symName: __ZNSt3__120__shared_ptr_emplaceIN4grpc17SecureAuthContextENS_9allocatorIS2_EEED0Ev, symObjAddr: 0xA1C, symBinAddr: 0x1AB34, symSize: 0x24 }
  - { offsetInCU: 0x8DFB, offset: 0x1CBE5B, size: 0x8, addend: 0x0, symName: __ZNSt3__120__shared_ptr_emplaceIN4grpc17SecureAuthContextENS_9allocatorIS2_EEE16__on_zero_sharedEv, symObjAddr: 0xA40, symBinAddr: 0x1AB58, symSize: 0x8 }
  - { offsetInCU: 0x8E24, offset: 0x1CBE84, size: 0x8, addend: 0x0, symName: __ZNSt3__120__shared_ptr_emplaceIN4grpc17SecureAuthContextENS_9allocatorIS2_EEE16__on_zero_sharedEv, symObjAddr: 0xA40, symBinAddr: 0x1AB58, symSize: 0x8 }
  - { offsetInCU: 0x8E42, offset: 0x1CBEA2, size: 0x8, addend: 0x0, symName: __ZNSt3__120__shared_ptr_emplaceIN4grpc17SecureAuthContextENS_9allocatorIS2_EEE16__on_zero_sharedEv, symObjAddr: 0xA40, symBinAddr: 0x1AB58, symSize: 0x8 }
  - { offsetInCU: 0x8E89, offset: 0x1CBEE9, size: 0x8, addend: 0x0, symName: __ZNSt3__120__shared_ptr_emplaceIN4grpc17SecureAuthContextENS_9allocatorIS2_EEE21__on_zero_shared_weakEv, symObjAddr: 0xA48, symBinAddr: 0x1AB60, symSize: 0x4 }
  - { offsetInCU: 0x8EBD, offset: 0x1CBF1D, size: 0x8, addend: 0x0, symName: __ZNSt3__120__shared_ptr_emplaceIN4grpc17SecureAuthContextENS_9allocatorIS2_EEE21__on_zero_shared_weakEv, symObjAddr: 0xA48, symBinAddr: 0x1AB60, symSize: 0x4 }
  - { offsetInCU: 0x8EDF, offset: 0x1CBF3F, size: 0x8, addend: 0x0, symName: __ZNSt3__120__shared_ptr_emplaceIN4grpc17SecureAuthContextENS_9allocatorIS2_EEE21__on_zero_shared_weakEv, symObjAddr: 0xA48, symBinAddr: 0x1AB60, symSize: 0x4 }
  - { offsetInCU: 0x8F01, offset: 0x1CBF61, size: 0x8, addend: 0x0, symName: __ZNSt3__120__shared_ptr_emplaceIN4grpc17SecureAuthContextENS_9allocatorIS2_EEE21__on_zero_shared_weakEv, symObjAddr: 0xA48, symBinAddr: 0x1AB60, symSize: 0x4 }
  - { offsetInCU: 0x8F2D, offset: 0x1CBF8D, size: 0x8, addend: 0x0, symName: __ZNSt3__120__shared_ptr_emplaceIN4grpc17SecureAuthContextENS_9allocatorIS2_EEE21__on_zero_shared_weakEv, symObjAddr: 0xA48, symBinAddr: 0x1AB60, symSize: 0x4 }
  - { offsetInCU: 0x8F54, offset: 0x1CBFB4, size: 0x8, addend: 0x0, symName: __ZNSt3__120__shared_ptr_emplaceIN4grpc17SecureAuthContextENS_9allocatorIS2_EEE21__on_zero_shared_weakEv, symObjAddr: 0xA48, symBinAddr: 0x1AB60, symSize: 0x4 }
  - { offsetInCU: 0xEBA7, offset: 0x1DAC43, size: 0x8, addend: 0x0, symName: __ZNSt3__115allocate_sharedB8ue170006IN4grpc28CompositeCallCredentialsImplENS_9allocatorIS2_EEJRKNS_10shared_ptrINS1_15CallCredentialsEEES9_EvEENS5_IT_EERKT0_DpOT1_, symObjAddr: 0x3E58, symBinAddr: 0x1D290, symSize: 0x60 }
  - { offsetInCU: 0xFE32, offset: 0x1DBECE, size: 0x8, addend: 0x0, symName: __ZNSt3__119__allocate_at_leastB8ue170006INS_9allocatorI13grpc_metadataEEEENS_19__allocation_resultINS_16allocator_traitsIT_E7pointerEEERS6_m, symObjAddr: 0x2BF0, symBinAddr: 0x1CF58, symSize: 0x44 }
  - { offsetInCU: 0x131DE, offset: 0x1DF27A, size: 0x8, addend: 0x0, symName: __ZN4absl12lts_2024011622internal_any_invocable12LocalInvokerILb0EvRZN4grpc12_GLOBAL__N_132MetadataCredentialsPluginWrapper7DestroyEPvEUlvE_JEEET0_PNS1_15TypeErasedStateEDpNS1_18ForwardedParameterIT2_E4typeE, symObjAddr: 0x30C8, symBinAddr: 0x1CF9C, symSize: 0xA8 }
  - { offsetInCU: 0x14FB4, offset: 0x1E1050, size: 0x8, addend: 0x0, symName: __ZN4absl12lts_2024011616strings_internal13JoinAlgorithmINSt3__111__wrap_iterIPKNS3_12basic_stringIcNS3_11char_traitsIcEENS3_9allocatorIcEEEEEEvEESA_T_SE_NS0_11string_viewENS1_11NoFormatterE, symObjAddr: 0x3C0C, symBinAddr: 0x1D044, symSize: 0x168 }
  - { offsetInCU: 0x164D6, offset: 0x1E2572, size: 0x8, addend: 0x0, symName: __ZN4grpc12experimental29StsCredentialsOptionsFromJsonERKNSt3__112basic_stringIcNS1_11char_traitsIcEENS1_9allocatorIcEEEEPNS0_21StsCredentialsOptionsE, symObjAddr: 0x348, symBinAddr: 0x1AEDC, symSize: 0x55C }
  - { offsetInCU: 0x17B38, offset: 0x1E3BD4, size: 0x8, addend: 0x0, symName: __ZN4grpc12experimental12_GLOBAL__N_126ClearStsCredentialsOptionsEPNS0_21StsCredentialsOptionsE, symObjAddr: 0x8A4, symBinAddr: 0x1B438, symSize: 0x124 }
  - { offsetInCU: 0x17B64, offset: 0x1E3C00, size: 0x8, addend: 0x0, symName: __ZN4grpc12experimental12_GLOBAL__N_126ClearStsCredentialsOptionsEPNS0_21StsCredentialsOptionsE, symObjAddr: 0x8A4, symBinAddr: 0x1B438, symSize: 0x124 }
  - { offsetInCU: 0x17B7F, offset: 0x1E3C1B, size: 0x8, addend: 0x0, symName: __ZN4grpc12experimental12_GLOBAL__N_126ClearStsCredentialsOptionsEPNS0_21StsCredentialsOptionsE, symObjAddr: 0x8A4, symBinAddr: 0x1B438, symSize: 0x124 }
  - { offsetInCU: 0x18365, offset: 0x1E4401, size: 0x8, addend: 0x0, symName: __ZN4grpc12experimental28StsCredentialsOptionsFromEnvEPNS0_21StsCredentialsOptionsE, symObjAddr: 0x9C8, symBinAddr: 0x1B55C, symSize: 0x2C8 }
  - { offsetInCU: 0x18FFB, offset: 0x1E5097, size: 0x8, addend: 0x0, symName: __ZN4grpc12experimental30StsCredentialsCppToCoreOptionsERKNS0_21StsCredentialsOptionsE, symObjAddr: 0xC90, symBinAddr: 0x1B824, symSize: 0xC4 }
  - { offsetInCU: 0x1903C, offset: 0x1E50D8, size: 0x8, addend: 0x0, symName: __ZN4grpc12experimental30StsCredentialsCppToCoreOptionsERKNS0_21StsCredentialsOptionsE, symObjAddr: 0xC90, symBinAddr: 0x1B824, symSize: 0xC4 }
  - { offsetInCU: 0x19057, offset: 0x1E50F3, size: 0x8, addend: 0x0, symName: __ZN4grpc12experimental30StsCredentialsCppToCoreOptionsERKNS0_21StsCredentialsOptionsE, symObjAddr: 0xC90, symBinAddr: 0x1B824, symSize: 0xC4 }
  - { offsetInCU: 0x19073, offset: 0x1E510F, size: 0x8, addend: 0x0, symName: __ZN4grpc12experimental30StsCredentialsCppToCoreOptionsERKNS0_21StsCredentialsOptionsE, symObjAddr: 0xC90, symBinAddr: 0x1B824, symSize: 0xC4 }
  - { offsetInCU: 0x1908F, offset: 0x1E512B, size: 0x8, addend: 0x0, symName: __ZN4grpc12experimental30StsCredentialsCppToCoreOptionsERKNS0_21StsCredentialsOptionsE, symObjAddr: 0xC90, symBinAddr: 0x1B824, symSize: 0xC4 }
  - { offsetInCU: 0x1942C, offset: 0x1E54C8, size: 0x8, addend: 0x0, symName: __ZN4grpc12experimental14StsCredentialsERKNS0_21StsCredentialsOptionsE, symObjAddr: 0xD54, symBinAddr: 0x1B8E8, symSize: 0x48 }
  - { offsetInCU: 0x19505, offset: 0x1E55A1, size: 0x8, addend: 0x0, symName: __ZN4grpc12experimental15AltsCredentialsERKNS0_22AltsCredentialsOptionsE, symObjAddr: 0xD9C, symBinAddr: 0x1B930, symSize: 0xD0 }
  - { offsetInCU: 0x197F8, offset: 0x1E5894, size: 0x8, addend: 0x0, symName: __ZN4grpc12experimental16LocalCredentialsE23grpc_local_connect_type, symObjAddr: 0xE6C, symBinAddr: 0x1BA00, symSize: 0x78 }
  - { offsetInCU: 0x19973, offset: 0x1E5A0F, size: 0x8, addend: 0x0, symName: __ZN4grpc12experimental14TlsCredentialsERKNS0_28TlsChannelCredentialsOptionsE, symObjAddr: 0xEE4, symBinAddr: 0x1BA78, symSize: 0x3C }
  - { offsetInCU: 0x19A0E, offset: 0x1E5AAA, size: 0x8, addend: 0x0, symName: __ZN4grpc12experimental29MetadataCredentialsFromPluginENSt3__110unique_ptrINS_25MetadataCredentialsPluginENS1_14default_deleteIS3_EEEE19grpc_security_level, symObjAddr: 0x12EC, symBinAddr: 0x1BE80, symSize: 0x180 }
  - { offsetInCU: 0x1A684, offset: 0x1E6720, size: 0x8, addend: 0x0, symName: __ZN4grpc12_GLOBAL__N_122WrapChannelCredentialsEP24grpc_channel_credentials, symObjAddr: 0x74, symBinAddr: 0x1AC0C, symSize: 0x80 }
  - { offsetInCU: 0x1A97F, offset: 0x1E6A1B, size: 0x8, addend: 0x0, symName: __ZN4grpc12_GLOBAL__N_119WrapCallCredentialsEP21grpc_call_credentials, symObjAddr: 0x1E4, symBinAddr: 0x1AD78, symSize: 0x80 }
  - { offsetInCU: 0x1AC7A, offset: 0x1E6D16, size: 0x8, addend: 0x0, symName: __ZN4grpc12_GLOBAL__N_113UnrefMetadataERKNSt3__16vectorI13grpc_metadataNS1_9allocatorIS3_EEEE, symObjAddr: 0x25E4, symBinAddr: 0x1CEC4, symSize: 0x80 }
  - { offsetInCU: 0x1AEFC, offset: 0x1E6F98, size: 0x8, addend: 0x0, symName: __ZN4grpc24GoogleDefaultCredentialsEv, symObjAddr: 0x0, symBinAddr: 0x1AB98, symSize: 0x74 }
  - { offsetInCU: 0x1B066, offset: 0x1E7102, size: 0x8, addend: 0x0, symName: __ZN4grpc26ExternalAccountCredentialsERKNSt3__112basic_stringIcNS0_11char_traitsIcEENS0_9allocatorIcEEEERKNS0_6vectorIS6_NS4_IS6_EEEE, symObjAddr: 0xF8, symBinAddr: 0x1AC8C, symSize: 0xEC }
  - { offsetInCU: 0x1B5C7, offset: 0x1E7663, size: 0x8, addend: 0x0, symName: __ZN4grpc14SslCredentialsERKNS_21SslCredentialsOptionsE, symObjAddr: 0x264, symBinAddr: 0x1ADF8, symSize: 0xE4 }
  - { offsetInCU: 0x1B8B0, offset: 0x1E794C, size: 0x8, addend: 0x0, symName: __ZN4grpc30GoogleComputeEngineCredentialsEv, symObjAddr: 0xF20, symBinAddr: 0x1BAB4, symSize: 0x74 }
  - { offsetInCU: 0x1BA1D, offset: 0x1E7AB9, size: 0x8, addend: 0x0, symName: __ZN4grpc34ServiceAccountJWTAccessCredentialsERKNSt3__112basic_stringIcNS0_11char_traitsIcEENS0_9allocatorIcEEEEl, symObjAddr: 0xF94, symBinAddr: 0x1BB28, symSize: 0x108 }
  - { offsetInCU: 0x1BCA7, offset: 0x1E7D43, size: 0x8, addend: 0x0, symName: __ZN4grpc29GoogleRefreshTokenCredentialsERKNSt3__112basic_stringIcNS0_11char_traitsIcEENS0_9allocatorIcEEEE, symObjAddr: 0x109C, symBinAddr: 0x1BC30, symSize: 0x88 }
  - { offsetInCU: 0x1BE98, offset: 0x1E7F34, size: 0x8, addend: 0x0, symName: __ZN4grpc22AccessTokenCredentialsERKNSt3__112basic_stringIcNS0_11char_traitsIcEENS0_9allocatorIcEEEE, symObjAddr: 0x1124, symBinAddr: 0x1BCB8, symSize: 0x88 }
  - { offsetInCU: 0x1C089, offset: 0x1E8125, size: 0x8, addend: 0x0, symName: __ZN4grpc20GoogleIAMCredentialsERKNSt3__112basic_stringIcNS0_11char_traitsIcEENS0_9allocatorIcEEEES8_, symObjAddr: 0x11AC, symBinAddr: 0x1BD40, symSize: 0xA4 }
  - { offsetInCU: 0x1C2FE, offset: 0x1E839A, size: 0x8, addend: 0x0, symName: __ZN4grpc27CompositeChannelCredentialsERKNSt3__110shared_ptrINS_18ChannelCredentialsEEERKNS1_INS_15CallCredentialsEEE, symObjAddr: 0x1250, symBinAddr: 0x1BDE4, symSize: 0x5C }
  - { offsetInCU: 0x1C3F2, offset: 0x1E848E, size: 0x8, addend: 0x0, symName: __ZN4grpc24CompositeCallCredentialsERKNSt3__110shared_ptrINS_15CallCredentialsEEES5_, symObjAddr: 0x12AC, symBinAddr: 0x1BE40, symSize: 0x40 }
  - { offsetInCU: 0x1C4DD, offset: 0x1E8579, size: 0x8, addend: 0x0, symName: __ZN4grpc29MetadataCredentialsFromPluginENSt3__110unique_ptrINS_25MetadataCredentialsPluginENS0_14default_deleteIS2_EEEE, symObjAddr: 0x1788, symBinAddr: 0x1C31C, symSize: 0x78 }
  - { offsetInCU: 0x1DDFF, offset: 0x1E9E9B, size: 0x8, addend: 0x0, symName: __ZN4grpc12_GLOBAL__N_132MetadataCredentialsPluginWrapper11GetMetadataEPv26grpc_auth_metadata_contextPFvS2_PK13grpc_metadatam16grpc_status_codePKcES2_PS4_PmPS7_PS9_, symObjAddr: 0x146C, symBinAddr: 0x1C000, symSize: 0x1AC }
  - { offsetInCU: 0x1E6FF, offset: 0x1EA79B, size: 0x8, addend: 0x0, symName: __ZN4grpc12_GLOBAL__N_132MetadataCredentialsPluginWrapper7DestroyEPv, symObjAddr: 0x16A4, symBinAddr: 0x1C238, symSize: 0xE4 }
  - { offsetInCU: 0x21B38, offset: 0x1EDBD4, size: 0x8, addend: 0x0, symName: __ZN4absl12lts_2024011616variant_internal18VisitIndicesSwitchILm6EE3RunINS1_17PerformVisitationIZNK9grpc_core12experimental4Json4typeEvE12ValueFunctorJRKNS0_7variantIJNS0_9monostateEbNS8_11NumberValueENSt3__112basic_stringIcNSD_11char_traitsIcEENSD_9allocatorIcEEEENSD_3mapISJ_S8_NSD_4lessISJ_EENSH_INSD_4pairIKSJ_S8_EEEEEENSD_6vectorIS8_NSH_IS8_EEEEEEEEEEEENS1_22VisitIndicesResultImplIT_JmEE4typeEOS10_m, symObjAddr: 0x1B18, symBinAddr: 0x1C440, symSize: 0x64 }
  - { offsetInCU: 0x21C05, offset: 0x1EDCA1, size: 0x8, addend: 0x0, symName: __ZN4absl12lts_2024011617internal_statusor12StatusOrDataIN9grpc_core12experimental4JsonEED2Ev, symObjAddr: 0x1B7C, symBinAddr: 0x1C4A4, symSize: 0x44 }
  - { offsetInCU: 0x21E7E, offset: 0x1EDF1A, size: 0x8, addend: 0x0, symName: __ZN4absl12lts_2024011616strings_internal13JoinAlgorithmINSt3__111__wrap_iterIPKNS3_12basic_stringIcNS3_11char_traitsIcEENS3_9allocatorIcEEEEEEvEESA_T_SE_NS0_11string_viewENS1_11NoFormatterE, symObjAddr: 0x3C0C, symBinAddr: 0x1D044, symSize: 0x168 }
  - { offsetInCU: 0x220B0, offset: 0x1EE14C, size: 0x8, addend: 0x0, symName: __ZN4absl12lts_2024011617internal_statusor12StatusOrDataIN9grpc_core12experimental4JsonEED2Ev, symObjAddr: 0x1B7C, symBinAddr: 0x1C4A4, symSize: 0x44 }
  - { offsetInCU: 0x225F7, offset: 0x1EE693, size: 0x8, addend: 0x0, symName: __ZN4absl12lts_2024011617internal_statusor12StatusOrDataIN9grpc_core5SliceEED2Ev, symObjAddr: 0x1D44, symBinAddr: 0x1C66C, symSize: 0x44 }
  - { offsetInCU: 0x2320E, offset: 0x1EF2AA, size: 0x8, addend: 0x0, symName: __ZN4grpc12_GLOBAL__N_132MetadataCredentialsPluginWrapper12InvokePluginE26grpc_auth_metadata_contextPFvPvPK13grpc_metadatam16grpc_status_codePKcES3_PS4_PmPS7_PS9_, symObjAddr: 0x1EF4, symBinAddr: 0x1C81C, symSize: 0x57C }
  - { offsetInCU: 0x24A2C, offset: 0x1F0AC8, size: 0x8, addend: 0x0, symName: __ZN4grpc12_GLOBAL__N_132MetadataCredentialsPluginWrapper11GetMetadataEPv26grpc_auth_metadata_contextPFvS2_PK13grpc_metadatam16grpc_status_codePKcES2_PS4_PmPS7_PS9_.cold.1, symObjAddr: 0x3F94, symBinAddr: 0x31EC4, symSize: 0x28 }
  - { offsetInCU: 0x24A44, offset: 0x1F0AE0, size: 0x8, addend: 0x0, symName: __ZN4grpc12_GLOBAL__N_132MetadataCredentialsPluginWrapper11DebugStringEPv, symObjAddr: 0x1618, symBinAddr: 0x1C1AC, symSize: 0x8C }
  - { offsetInCU: 0x24DB0, offset: 0x1F0E4C, size: 0x8, addend: 0x0, symName: __ZN4grpc12_GLOBAL__N_132MetadataCredentialsPluginWrapper11DebugStringEPv.cold.1, symObjAddr: 0x3FBC, symBinAddr: 0x31EEC, symSize: 0x28 }
  - { offsetInCU: 0x2518C, offset: 0x1F1228, size: 0x8, addend: 0x0, symName: __ZNSt3__120__shared_ptr_emplaceIN4grpc12_GLOBAL__N_125WrappedChannelCredentialsENS_9allocatorIS3_EEED1Ev, symObjAddr: 0x183C, symBinAddr: 0x1C394, symSize: 0x10 }
  - { offsetInCU: 0x251AF, offset: 0x1F124B, size: 0x8, addend: 0x0, symName: __ZNSt3__120__shared_ptr_emplaceIN4grpc12_GLOBAL__N_125WrappedChannelCredentialsENS_9allocatorIS3_EEED1Ev, symObjAddr: 0x183C, symBinAddr: 0x1C394, symSize: 0x10 }
  - { offsetInCU: 0x251E6, offset: 0x1F1282, size: 0x8, addend: 0x0, symName: __ZNSt3__120__shared_ptr_emplaceIN4grpc12_GLOBAL__N_125WrappedChannelCredentialsENS_9allocatorIS3_EEED0Ev, symObjAddr: 0x184C, symBinAddr: 0x1C3A4, symSize: 0x20 }
  - { offsetInCU: 0x2529A, offset: 0x1F1336, size: 0x8, addend: 0x0, symName: __ZNSt3__120__shared_ptr_emplaceIN4grpc12_GLOBAL__N_125WrappedChannelCredentialsENS_9allocatorIS3_EEE16__on_zero_sharedEv, symObjAddr: 0x186C, symBinAddr: 0x1C3C4, symSize: 0x8 }
  - { offsetInCU: 0x252C4, offset: 0x1F1360, size: 0x8, addend: 0x0, symName: __ZNSt3__120__shared_ptr_emplaceIN4grpc12_GLOBAL__N_125WrappedChannelCredentialsENS_9allocatorIS3_EEE16__on_zero_sharedEv, symObjAddr: 0x186C, symBinAddr: 0x1C3C4, symSize: 0x8 }
  - { offsetInCU: 0x25317, offset: 0x1F13B3, size: 0x8, addend: 0x0, symName: __ZNSt3__120__shared_ptr_emplaceIN4grpc12_GLOBAL__N_125WrappedChannelCredentialsENS_9allocatorIS3_EEE21__on_zero_shared_weakEv, symObjAddr: 0x1874, symBinAddr: 0x1C3CC, symSize: 0x4 }
  - { offsetInCU: 0x2534C, offset: 0x1F13E8, size: 0x8, addend: 0x0, symName: __ZNSt3__120__shared_ptr_emplaceIN4grpc12_GLOBAL__N_125WrappedChannelCredentialsENS_9allocatorIS3_EEE21__on_zero_shared_weakEv, symObjAddr: 0x1874, symBinAddr: 0x1C3CC, symSize: 0x4 }
  - { offsetInCU: 0x2536E, offset: 0x1F140A, size: 0x8, addend: 0x0, symName: __ZNSt3__120__shared_ptr_emplaceIN4grpc12_GLOBAL__N_125WrappedChannelCredentialsENS_9allocatorIS3_EEE21__on_zero_shared_weakEv, symObjAddr: 0x1874, symBinAddr: 0x1C3CC, symSize: 0x4 }
  - { offsetInCU: 0x25390, offset: 0x1F142C, size: 0x8, addend: 0x0, symName: __ZNSt3__120__shared_ptr_emplaceIN4grpc12_GLOBAL__N_125WrappedChannelCredentialsENS_9allocatorIS3_EEE21__on_zero_shared_weakEv, symObjAddr: 0x1874, symBinAddr: 0x1C3CC, symSize: 0x4 }
  - { offsetInCU: 0x253BC, offset: 0x1F1458, size: 0x8, addend: 0x0, symName: __ZNSt3__120__shared_ptr_emplaceIN4grpc12_GLOBAL__N_125WrappedChannelCredentialsENS_9allocatorIS3_EEE21__on_zero_shared_weakEv, symObjAddr: 0x1874, symBinAddr: 0x1C3CC, symSize: 0x4 }
  - { offsetInCU: 0x253E5, offset: 0x1F1481, size: 0x8, addend: 0x0, symName: __ZNSt3__120__shared_ptr_emplaceIN4grpc12_GLOBAL__N_125WrappedChannelCredentialsENS_9allocatorIS3_EEE21__on_zero_shared_weakEv, symObjAddr: 0x1874, symBinAddr: 0x1C3CC, symSize: 0x4 }
  - { offsetInCU: 0x25411, offset: 0x1F14AD, size: 0x8, addend: 0x0, symName: __ZN4grpc12_GLOBAL__N_125WrappedChannelCredentialsD1Ev, symObjAddr: 0x1878, symBinAddr: 0x1C3D0, symSize: 0x4 }
  - { offsetInCU: 0x25434, offset: 0x1F14D0, size: 0x8, addend: 0x0, symName: __ZN4grpc12_GLOBAL__N_125WrappedChannelCredentialsD1Ev, symObjAddr: 0x1878, symBinAddr: 0x1C3D0, symSize: 0x4 }
  - { offsetInCU: 0x2544D, offset: 0x1F14E9, size: 0x8, addend: 0x0, symName: __ZN4grpc12_GLOBAL__N_125WrappedChannelCredentialsD0Ev, symObjAddr: 0x187C, symBinAddr: 0x1C3D4, symSize: 0x14 }
  - { offsetInCU: 0x254CD, offset: 0x1F1569, size: 0x8, addend: 0x0, symName: __ZNSt3__120__shared_ptr_emplaceIN4grpc12_GLOBAL__N_122WrappedCallCredentialsENS_9allocatorIS3_EEED1Ev, symObjAddr: 0x19BC, symBinAddr: 0x1C3E8, symSize: 0x10 }
  - { offsetInCU: 0x254F0, offset: 0x1F158C, size: 0x8, addend: 0x0, symName: __ZNSt3__120__shared_ptr_emplaceIN4grpc12_GLOBAL__N_122WrappedCallCredentialsENS_9allocatorIS3_EEED1Ev, symObjAddr: 0x19BC, symBinAddr: 0x1C3E8, symSize: 0x10 }
  - { offsetInCU: 0x25527, offset: 0x1F15C3, size: 0x8, addend: 0x0, symName: __ZNSt3__120__shared_ptr_emplaceIN4grpc12_GLOBAL__N_122WrappedCallCredentialsENS_9allocatorIS3_EEED0Ev, symObjAddr: 0x19CC, symBinAddr: 0x1C3F8, symSize: 0x20 }
  - { offsetInCU: 0x2558D, offset: 0x1F1629, size: 0x8, addend: 0x0, symName: __ZNSt3__120__shared_ptr_emplaceIN4grpc12_GLOBAL__N_122WrappedCallCredentialsENS_9allocatorIS3_EEE16__on_zero_sharedEv, symObjAddr: 0x19EC, symBinAddr: 0x1C418, symSize: 0xC }
  - { offsetInCU: 0x255C0, offset: 0x1F165C, size: 0x8, addend: 0x0, symName: __ZNSt3__120__shared_ptr_emplaceIN4grpc12_GLOBAL__N_122WrappedCallCredentialsENS_9allocatorIS3_EEE21__on_zero_shared_weakEv, symObjAddr: 0x19F8, symBinAddr: 0x1C424, symSize: 0x4 }
  - { offsetInCU: 0x255F5, offset: 0x1F1691, size: 0x8, addend: 0x0, symName: __ZNSt3__120__shared_ptr_emplaceIN4grpc12_GLOBAL__N_122WrappedCallCredentialsENS_9allocatorIS3_EEE21__on_zero_shared_weakEv, symObjAddr: 0x19F8, symBinAddr: 0x1C424, symSize: 0x4 }
  - { offsetInCU: 0x25617, offset: 0x1F16B3, size: 0x8, addend: 0x0, symName: __ZNSt3__120__shared_ptr_emplaceIN4grpc12_GLOBAL__N_122WrappedCallCredentialsENS_9allocatorIS3_EEE21__on_zero_shared_weakEv, symObjAddr: 0x19F8, symBinAddr: 0x1C424, symSize: 0x4 }
  - { offsetInCU: 0x25639, offset: 0x1F16D5, size: 0x8, addend: 0x0, symName: __ZNSt3__120__shared_ptr_emplaceIN4grpc12_GLOBAL__N_122WrappedCallCredentialsENS_9allocatorIS3_EEE21__on_zero_shared_weakEv, symObjAddr: 0x19F8, symBinAddr: 0x1C424, symSize: 0x4 }
  - { offsetInCU: 0x25665, offset: 0x1F1701, size: 0x8, addend: 0x0, symName: __ZNSt3__120__shared_ptr_emplaceIN4grpc12_GLOBAL__N_122WrappedCallCredentialsENS_9allocatorIS3_EEE21__on_zero_shared_weakEv, symObjAddr: 0x19F8, symBinAddr: 0x1C424, symSize: 0x4 }
  - { offsetInCU: 0x2568E, offset: 0x1F172A, size: 0x8, addend: 0x0, symName: __ZNSt3__120__shared_ptr_emplaceIN4grpc12_GLOBAL__N_122WrappedCallCredentialsENS_9allocatorIS3_EEE21__on_zero_shared_weakEv, symObjAddr: 0x19F8, symBinAddr: 0x1C424, symSize: 0x4 }
  - { offsetInCU: 0x256D6, offset: 0x1F1772, size: 0x8, addend: 0x0, symName: __ZN4grpc12_GLOBAL__N_122WrappedCallCredentialsD1Ev, symObjAddr: 0x19FC, symBinAddr: 0x1C428, symSize: 0x4 }
  - { offsetInCU: 0x256F9, offset: 0x1F1795, size: 0x8, addend: 0x0, symName: __ZN4grpc12_GLOBAL__N_122WrappedCallCredentialsD1Ev, symObjAddr: 0x19FC, symBinAddr: 0x1C428, symSize: 0x4 }
  - { offsetInCU: 0x2572E, offset: 0x1F17CA, size: 0x8, addend: 0x0, symName: __ZN4grpc12_GLOBAL__N_122WrappedCallCredentialsD0Ev, symObjAddr: 0x1A00, symBinAddr: 0x1C42C, symSize: 0x14 }
  - { offsetInCU: 0x25A32, offset: 0x1F1ACE, size: 0x8, addend: 0x0, symName: __ZN4absl12lts_2024011616variant_internal18VisitIndicesSwitchILm6EE3RunINS1_17PerformVisitationIZNK9grpc_core12experimental4Json4typeEvE12ValueFunctorJRKNS0_7variantIJNS0_9monostateEbNS8_11NumberValueENSt3__112basic_stringIcNSD_11char_traitsIcEENSD_9allocatorIcEEEENSD_3mapISJ_S8_NSD_4lessISJ_EENSH_INSD_4pairIKSJ_S8_EEEEEENSD_6vectorIS8_NSH_IS8_EEEEEEEEEEEENS1_22VisitIndicesResultImplIT_JmEE4typeEOS10_m.cold.1, symObjAddr: 0x3FE4, symBinAddr: 0x31F14, symSize: 0x28 }
  - { offsetInCU: 0x25BAD, offset: 0x1F1C49, size: 0x8, addend: 0x0, symName: __ZN4absl12lts_2024011616variant_internal36VariantStateBaseDestructorNontrivialIJNS0_9monostateEbN9grpc_core12experimental4Json11NumberValueENSt3__112basic_stringIcNS8_11char_traitsIcEENS8_9allocatorIcEEEENS8_3mapISE_S6_NS8_4lessISE_EENSC_INS8_4pairIKSE_S6_EEEEEENS8_6vectorIS6_NSC_IS6_EEEEEED2Ev, symObjAddr: 0x1BC0, symBinAddr: 0x1C4E8, symSize: 0x3C }
  - { offsetInCU: 0x25C37, offset: 0x1F1CD3, size: 0x8, addend: 0x0, symName: __ZN4absl12lts_2024011616variant_internal18VisitIndicesSwitchILm6EE3RunINS1_36VariantStateBaseDestructorNontrivialIJNS0_9monostateEbN9grpc_core12experimental4Json11NumberValueENSt3__112basic_stringIcNSB_11char_traitsIcEENSB_9allocatorIcEEEENSB_3mapISH_S9_NSB_4lessISH_EENSF_INSB_4pairIKSH_S9_EEEEEENSB_6vectorIS9_NSF_IS9_EEEEEE9DestroyerEEENS1_22VisitIndicesResultImplIT_JmEE4typeEOSW_m, symObjAddr: 0x1BFC, symBinAddr: 0x1C524, symSize: 0x80 }
  - { offsetInCU: 0x25ED3, offset: 0x1F1F6F, size: 0x8, addend: 0x0, symName: __ZNSt3__16__treeINS_12__value_typeINS_12basic_stringIcNS_11char_traitsIcEENS_9allocatorIcEEEEN9grpc_core12experimental4JsonEEENS_19__map_value_compareIS7_SB_NS_4lessIS7_EELb1EEENS5_ISB_EEE7destroyEPNS_11__tree_nodeISB_PvEE, symObjAddr: 0x1C7C, symBinAddr: 0x1C5A4, symSize: 0x58 }
  - { offsetInCU: 0x2613F, offset: 0x1F21DB, size: 0x8, addend: 0x0, symName: __ZNSt3__16__treeINS_12__value_typeINS_12basic_stringIcNS_11char_traitsIcEENS_9allocatorIcEEEEN9grpc_core12experimental4JsonEEENS_19__map_value_compareIS7_SB_NS_4lessIS7_EELb1EEENS5_ISB_EEE7destroyEPNS_11__tree_nodeISB_PvEE, symObjAddr: 0x1C7C, symBinAddr: 0x1C5A4, symSize: 0x58 }
  - { offsetInCU: 0x264FC, offset: 0x1F2598, size: 0x8, addend: 0x0, symName: __ZNSt3__16vectorIN9grpc_core12experimental4JsonENS_9allocatorIS3_EEE16__destroy_vectorclB8ue170006Ev, symObjAddr: 0x1CD4, symBinAddr: 0x1C5FC, symSize: 0x70 }
  - { offsetInCU: 0x26755, offset: 0x1F27F1, size: 0x8, addend: 0x0, symName: __ZN4absl12lts_2024011616variant_internal18VisitIndicesSwitchILm6EE3RunINS1_36VariantStateBaseDestructorNontrivialIJNS0_9monostateEbN9grpc_core12experimental4Json11NumberValueENSt3__112basic_stringIcNSB_11char_traitsIcEENSB_9allocatorIcEEEENSB_3mapISH_S9_NSB_4lessISH_EENSF_INSB_4pairIKSH_S9_EEEEEENSB_6vectorIS9_NSF_IS9_EEEEEE9DestroyerEEENS1_22VisitIndicesResultImplIT_JmEE4typeEOSW_m.cold.1, symObjAddr: 0x400C, symBinAddr: 0x31F3C, symSize: 0x28 }
  - { offsetInCU: 0x26966, offset: 0x1F2A02, size: 0x8, addend: 0x0, symName: __ZN9grpc_core5SliceD2Ev, symObjAddr: 0x1D88, symBinAddr: 0x1C6B0, symSize: 0x40 }
  - { offsetInCU: 0x269C5, offset: 0x1F2A61, size: 0x8, addend: 0x0, symName: __ZN19grpc_slice_refcount5UnrefEN9grpc_core13DebugLocationE, symObjAddr: 0x1DC8, symBinAddr: 0x1C6F0, symSize: 0x88 }
  - { offsetInCU: 0x26BCF, offset: 0x1F2C6B, size: 0x8, addend: 0x0, symName: __ZN4grpc12_GLOBAL__N_132MetadataCredentialsPluginWrapperD1Ev, symObjAddr: 0x1E50, symBinAddr: 0x1C778, symSize: 0x50 }
  - { offsetInCU: 0x26D7B, offset: 0x1F2E17, size: 0x8, addend: 0x0, symName: __ZN4grpc12_GLOBAL__N_132MetadataCredentialsPluginWrapperD0Ev, symObjAddr: 0x1EA0, symBinAddr: 0x1C7C8, symSize: 0x54 }
  - { offsetInCU: 0x27A3E, offset: 0x1F3ADA, size: 0x8, addend: 0x0, symName: __ZNKSt3__16vectorI13grpc_metadataNS_9allocatorIS1_EEE20__throw_length_errorB8ue170006Ev, symObjAddr: 0x2BDC, symBinAddr: 0x1CF44, symSize: 0x14 }
  - { offsetInCU: 0x27A68, offset: 0x1F3B04, size: 0x8, addend: 0x0, symName: __ZNSt3__119__allocate_at_leastB8ue170006INS_9allocatorI13grpc_metadataEEEENS_19__allocation_resultINS_16allocator_traitsIT_E7pointerEEERS6_m, symObjAddr: 0x2BF0, symBinAddr: 0x1CF58, symSize: 0x44 }
  - { offsetInCU: 0x27BEA, offset: 0x1F3C86, size: 0x8, addend: 0x0, symName: __ZNSt3__110__function6__funcIZN4grpc12_GLOBAL__N_132MetadataCredentialsPluginWrapper11GetMetadataEPv26grpc_auth_metadata_contextPFvS5_PK13grpc_metadatam16grpc_status_codePKcES5_PS7_PmPSA_PSC_EUlvE_NS_9allocatorISJ_EEFvvEED1Ev, symObjAddr: 0x2470, symBinAddr: 0x1CD98, symSize: 0x4 }
  - { offsetInCU: 0x27C16, offset: 0x1F3CB2, size: 0x8, addend: 0x0, symName: __ZNSt3__110__function6__funcIZN4grpc12_GLOBAL__N_132MetadataCredentialsPluginWrapper11GetMetadataEPv26grpc_auth_metadata_contextPFvS5_PK13grpc_metadatam16grpc_status_codePKcES5_PS7_PmPSA_PSC_EUlvE_NS_9allocatorISJ_EEFvvEED0Ev, symObjAddr: 0x2474, symBinAddr: 0x1CD9C, symSize: 0x4 }
  - { offsetInCU: 0x27DF4, offset: 0x1F3E90, size: 0x8, addend: 0x0, symName: __ZNKSt3__110__function6__funcIZN4grpc12_GLOBAL__N_132MetadataCredentialsPluginWrapper11GetMetadataEPv26grpc_auth_metadata_contextPFvS5_PK13grpc_metadatam16grpc_status_codePKcES5_PS7_PmPSA_PSC_EUlvE_NS_9allocatorISJ_EEFvvEE7__cloneEv, symObjAddr: 0x2478, symBinAddr: 0x1CDA0, symSize: 0x50 }
  - { offsetInCU: 0x28118, offset: 0x1F41B4, size: 0x8, addend: 0x0, symName: __ZNKSt3__110__function6__funcIZN4grpc12_GLOBAL__N_132MetadataCredentialsPluginWrapper11GetMetadataEPv26grpc_auth_metadata_contextPFvS5_PK13grpc_metadatam16grpc_status_codePKcES5_PS7_PmPSA_PSC_EUlvE_NS_9allocatorISJ_EEFvvEE7__cloneEPNS0_6__baseISM_EE, symObjAddr: 0x24C8, symBinAddr: 0x1CDF0, symSize: 0x30 }
  - { offsetInCU: 0x28151, offset: 0x1F41ED, size: 0x8, addend: 0x0, symName: __ZNKSt3__110__function6__funcIZN4grpc12_GLOBAL__N_132MetadataCredentialsPluginWrapper11GetMetadataEPv26grpc_auth_metadata_contextPFvS5_PK13grpc_metadatam16grpc_status_codePKcES5_PS7_PmPSA_PSC_EUlvE_NS_9allocatorISJ_EEFvvEE7__cloneEPNS0_6__baseISM_EE, symObjAddr: 0x24C8, symBinAddr: 0x1CDF0, symSize: 0x30 }
  - { offsetInCU: 0x2817F, offset: 0x1F421B, size: 0x8, addend: 0x0, symName: __ZNKSt3__110__function6__funcIZN4grpc12_GLOBAL__N_132MetadataCredentialsPluginWrapper11GetMetadataEPv26grpc_auth_metadata_contextPFvS5_PK13grpc_metadatam16grpc_status_codePKcES5_PS7_PmPSA_PSC_EUlvE_NS_9allocatorISJ_EEFvvEE7__cloneEPNS0_6__baseISM_EE, symObjAddr: 0x24C8, symBinAddr: 0x1CDF0, symSize: 0x30 }
  - { offsetInCU: 0x28294, offset: 0x1F4330, size: 0x8, addend: 0x0, symName: __ZNSt3__110__function6__funcIZN4grpc12_GLOBAL__N_132MetadataCredentialsPluginWrapper11GetMetadataEPv26grpc_auth_metadata_contextPFvS5_PK13grpc_metadatam16grpc_status_codePKcES5_PS7_PmPSA_PSC_EUlvE_NS_9allocatorISJ_EEFvvEE7destroyEv, symObjAddr: 0x24F8, symBinAddr: 0x1CE20, symSize: 0x4 }
  - { offsetInCU: 0x282E5, offset: 0x1F4381, size: 0x8, addend: 0x0, symName: __ZNSt3__110__function6__funcIZN4grpc12_GLOBAL__N_132MetadataCredentialsPluginWrapper11GetMetadataEPv26grpc_auth_metadata_contextPFvS5_PK13grpc_metadatam16grpc_status_codePKcES5_PS7_PmPSA_PSC_EUlvE_NS_9allocatorISJ_EEFvvEE18destroy_deallocateEv, symObjAddr: 0x24FC, symBinAddr: 0x1CE24, symSize: 0x4 }
  - { offsetInCU: 0x2831C, offset: 0x1F43B8, size: 0x8, addend: 0x0, symName: __ZNSt3__110__function6__funcIZN4grpc12_GLOBAL__N_132MetadataCredentialsPluginWrapper11GetMetadataEPv26grpc_auth_metadata_contextPFvS5_PK13grpc_metadatam16grpc_status_codePKcES5_PS7_PmPSA_PSC_EUlvE_NS_9allocatorISJ_EEFvvEE18destroy_deallocateEv, symObjAddr: 0x24FC, symBinAddr: 0x1CE24, symSize: 0x4 }
  - { offsetInCU: 0x2833E, offset: 0x1F43DA, size: 0x8, addend: 0x0, symName: __ZNSt3__110__function6__funcIZN4grpc12_GLOBAL__N_132MetadataCredentialsPluginWrapper11GetMetadataEPv26grpc_auth_metadata_contextPFvS5_PK13grpc_metadatam16grpc_status_codePKcES5_PS7_PmPSA_PSC_EUlvE_NS_9allocatorISJ_EEFvvEE18destroy_deallocateEv, symObjAddr: 0x24FC, symBinAddr: 0x1CE24, symSize: 0x4 }
  - { offsetInCU: 0x28369, offset: 0x1F4405, size: 0x8, addend: 0x0, symName: __ZNSt3__110__function6__funcIZN4grpc12_GLOBAL__N_132MetadataCredentialsPluginWrapper11GetMetadataEPv26grpc_auth_metadata_contextPFvS5_PK13grpc_metadatam16grpc_status_codePKcES5_PS7_PmPSA_PSC_EUlvE_NS_9allocatorISJ_EEFvvEE18destroy_deallocateEv, symObjAddr: 0x24FC, symBinAddr: 0x1CE24, symSize: 0x4 }
  - { offsetInCU: 0x28391, offset: 0x1F442D, size: 0x8, addend: 0x0, symName: __ZNSt3__110__function6__funcIZN4grpc12_GLOBAL__N_132MetadataCredentialsPluginWrapper11GetMetadataEPv26grpc_auth_metadata_contextPFvS5_PK13grpc_metadatam16grpc_status_codePKcES5_PS7_PmPSA_PSC_EUlvE_NS_9allocatorISJ_EEFvvEE18destroy_deallocateEv, symObjAddr: 0x24FC, symBinAddr: 0x1CE24, symSize: 0x4 }
  - { offsetInCU: 0x28412, offset: 0x1F44AE, size: 0x8, addend: 0x0, symName: __ZNSt3__110__function6__funcIZN4grpc12_GLOBAL__N_132MetadataCredentialsPluginWrapper11GetMetadataEPv26grpc_auth_metadata_contextPFvS5_PK13grpc_metadatam16grpc_status_codePKcES5_PS7_PmPSA_PSC_EUlvE_NS_9allocatorISJ_EEFvvEEclEv, symObjAddr: 0x2500, symBinAddr: 0x1CE28, symSize: 0x54 }
  - { offsetInCU: 0x2850B, offset: 0x1F45A7, size: 0x8, addend: 0x0, symName: __ZNKSt3__110__function6__funcIZN4grpc12_GLOBAL__N_132MetadataCredentialsPluginWrapper11GetMetadataEPv26grpc_auth_metadata_contextPFvS5_PK13grpc_metadatam16grpc_status_codePKcES5_PS7_PmPSA_PSC_EUlvE_NS_9allocatorISJ_EEFvvEE6targetERKSt9type_info, symObjAddr: 0x2554, symBinAddr: 0x1CE7C, symSize: 0x3C }
  - { offsetInCU: 0x285A7, offset: 0x1F4643, size: 0x8, addend: 0x0, symName: __ZNKSt3__110__function6__funcIZN4grpc12_GLOBAL__N_132MetadataCredentialsPluginWrapper11GetMetadataEPv26grpc_auth_metadata_contextPFvS5_PK13grpc_metadatam16grpc_status_codePKcES5_PS7_PmPSA_PSC_EUlvE_NS_9allocatorISJ_EEFvvEE11target_typeEv, symObjAddr: 0x2590, symBinAddr: 0x1CEB8, symSize: 0xC }
  - { offsetInCU: 0x28BF2, offset: 0x1F4C8E, size: 0x8, addend: 0x0, symName: __ZNKSt3__16vectorI13grpc_metadataNS_9allocatorIS1_EEE20__throw_length_errorB8ue170006Ev, symObjAddr: 0x2BDC, symBinAddr: 0x1CF44, symSize: 0x14 }
  - { offsetInCU: 0x29E88, offset: 0x1F5F24, size: 0x8, addend: 0x0, symName: __ZN4absl12lts_2024011616strings_internal25ResizeUninitializedTraitsINSt3__112basic_stringIcNS3_11char_traitsIcEENS3_9allocatorIcEEEEvE6ResizeEPS9_m, symObjAddr: 0x3D74, symBinAddr: 0x1D1AC, symSize: 0xE4 }
  - { offsetInCU: 0x2A5A5, offset: 0x1F6641, size: 0x8, addend: 0x0, symName: __ZNSt3__120__shared_ptr_emplaceIN4grpc28CompositeCallCredentialsImplENS_9allocatorIS2_EEEC2B8ue170006IJRKNS_10shared_ptrINS1_15CallCredentialsEEESB_EEES4_DpOT_, symObjAddr: 0x3EB8, symBinAddr: 0x1D2F0, symSize: 0x7C }
  - { offsetInCU: 0x2A7A6, offset: 0x1F6842, size: 0x8, addend: 0x0, symName: __ZNSt3__120__shared_ptr_emplaceIN4grpc28CompositeCallCredentialsImplENS_9allocatorIS2_EEED1Ev, symObjAddr: 0x3F34, symBinAddr: 0x1D36C, symSize: 0x14 }
  - { offsetInCU: 0x2A7C9, offset: 0x1F6865, size: 0x8, addend: 0x0, symName: __ZNSt3__120__shared_ptr_emplaceIN4grpc28CompositeCallCredentialsImplENS_9allocatorIS2_EEED1Ev, symObjAddr: 0x3F34, symBinAddr: 0x1D36C, symSize: 0x14 }
  - { offsetInCU: 0x2A800, offset: 0x1F689C, size: 0x8, addend: 0x0, symName: __ZNSt3__120__shared_ptr_emplaceIN4grpc28CompositeCallCredentialsImplENS_9allocatorIS2_EEED0Ev, symObjAddr: 0x3F48, symBinAddr: 0x1D380, symSize: 0x24 }
  - { offsetInCU: 0x2A866, offset: 0x1F6902, size: 0x8, addend: 0x0, symName: __ZNSt3__120__shared_ptr_emplaceIN4grpc28CompositeCallCredentialsImplENS_9allocatorIS2_EEE16__on_zero_sharedEv, symObjAddr: 0x3F6C, symBinAddr: 0x1D3A4, symSize: 0xC }
  - { offsetInCU: 0x2A899, offset: 0x1F6935, size: 0x8, addend: 0x0, symName: __ZNSt3__120__shared_ptr_emplaceIN4grpc28CompositeCallCredentialsImplENS_9allocatorIS2_EEE21__on_zero_shared_weakEv, symObjAddr: 0x3F78, symBinAddr: 0x1D3B0, symSize: 0x4 }
  - { offsetInCU: 0x2A8CE, offset: 0x1F696A, size: 0x8, addend: 0x0, symName: __ZNSt3__120__shared_ptr_emplaceIN4grpc28CompositeCallCredentialsImplENS_9allocatorIS2_EEE21__on_zero_shared_weakEv, symObjAddr: 0x3F78, symBinAddr: 0x1D3B0, symSize: 0x4 }
  - { offsetInCU: 0x2A8F0, offset: 0x1F698C, size: 0x8, addend: 0x0, symName: __ZNSt3__120__shared_ptr_emplaceIN4grpc28CompositeCallCredentialsImplENS_9allocatorIS2_EEE21__on_zero_shared_weakEv, symObjAddr: 0x3F78, symBinAddr: 0x1D3B0, symSize: 0x4 }
  - { offsetInCU: 0x2A912, offset: 0x1F69AE, size: 0x8, addend: 0x0, symName: __ZNSt3__120__shared_ptr_emplaceIN4grpc28CompositeCallCredentialsImplENS_9allocatorIS2_EEE21__on_zero_shared_weakEv, symObjAddr: 0x3F78, symBinAddr: 0x1D3B0, symSize: 0x4 }
  - { offsetInCU: 0x2A93E, offset: 0x1F69DA, size: 0x8, addend: 0x0, symName: __ZNSt3__120__shared_ptr_emplaceIN4grpc28CompositeCallCredentialsImplENS_9allocatorIS2_EEE21__on_zero_shared_weakEv, symObjAddr: 0x3F78, symBinAddr: 0x1D3B0, symSize: 0x4 }
  - { offsetInCU: 0x2A967, offset: 0x1F6A03, size: 0x8, addend: 0x0, symName: __ZNSt3__120__shared_ptr_emplaceIN4grpc28CompositeCallCredentialsImplENS_9allocatorIS2_EEE21__on_zero_shared_weakEv, symObjAddr: 0x3F78, symBinAddr: 0x1D3B0, symSize: 0x4 }
  - { offsetInCU: 0x2A9B0, offset: 0x1F6A4C, size: 0x8, addend: 0x0, symName: __ZN4grpc28CompositeCallCredentialsImplD1Ev, symObjAddr: 0x3F7C, symBinAddr: 0x1D3B4, symSize: 0x4 }
  - { offsetInCU: 0x2A9D3, offset: 0x1F6A6F, size: 0x8, addend: 0x0, symName: __ZN4grpc28CompositeCallCredentialsImplD1Ev, symObjAddr: 0x3F7C, symBinAddr: 0x1D3B4, symSize: 0x4 }
  - { offsetInCU: 0x2AA0A, offset: 0x1F6AA6, size: 0x8, addend: 0x0, symName: __ZN4grpc28CompositeCallCredentialsImplD0Ev, symObjAddr: 0x3F80, symBinAddr: 0x1D3B8, symSize: 0x14 }
  - { offsetInCU: 0xBDFD, offset: 0x202DFD, size: 0x8, addend: 0x0, symName: __ZNKSt3__16vectorI26grpc_ssl_pem_key_cert_pairNS_9allocatorIS1_EEE20__throw_length_errorB8ue170006Ev, symObjAddr: 0x1F98, symBinAddr: 0x1E418, symSize: 0x14 }
  - { offsetInCU: 0xC505, offset: 0x203505, size: 0x8, addend: 0x0, symName: __ZNSt3__119__allocate_at_leastB8ue170006INS_9allocatorI26grpc_ssl_pem_key_cert_pairEEEENS_19__allocation_resultINS_16allocator_traitsIT_E7pointerEEERS6_m, symObjAddr: 0x1FAC, symBinAddr: 0x1E42C, symSize: 0x34 }
  - { offsetInCU: 0xC5A6, offset: 0x2035A6, size: 0x8, addend: 0x0, symName: __ZNSt3__110shared_ptrIN4grpc17ServerCredentialsEEC2B8ue170006INS1_23SecureServerCredentialsEvEEPT_, symObjAddr: 0x1FE0, symBinAddr: 0x1E460, symSize: 0x70 }
  - { offsetInCU: 0x10226, offset: 0x207226, size: 0x8, addend: 0x0, symName: __ZN4grpc12experimental21AltsServerCredentialsERKNS0_28AltsServerCredentialsOptionsE, symObjAddr: 0xC48, symBinAddr: 0x1E008, symSize: 0x7C }
  - { offsetInCU: 0x103C3, offset: 0x2073C3, size: 0x8, addend: 0x0, symName: __ZN4grpc12experimental22LocalServerCredentialsE23grpc_local_connect_type, symObjAddr: 0xCC4, symBinAddr: 0x1E084, symSize: 0x74 }
  - { offsetInCU: 0x1052C, offset: 0x20752C, size: 0x8, addend: 0x0, symName: __ZN4grpc12experimental20TlsServerCredentialsERKNS0_27TlsServerCredentialsOptionsE, symObjAddr: 0xD38, symBinAddr: 0x1E0F8, symSize: 0x88 }
  - { offsetInCU: 0x10A49, offset: 0x207A49, size: 0x8, addend: 0x0, symName: __ZN4grpc20SslServerCredentialsERKNS_27SslServerCredentialsOptionsE, symObjAddr: 0xA34, symBinAddr: 0x1DDF4, symSize: 0x214 }
  - { offsetInCU: 0x12085, offset: 0x209085, size: 0x8, addend: 0x0, symName: __ZN4grpc33AuthMetadataProcessorAsyncWrapper7ProcessEPvP17grpc_auth_contextPK13grpc_metadatamPFvS1_S6_mS6_m16grpc_status_codePKcES1_, symObjAddr: 0x48, symBinAddr: 0x1D448, symSize: 0x1CC }
  - { offsetInCU: 0x14AD0, offset: 0x20BAD0, size: 0x8, addend: 0x0, symName: __ZN4grpc33AuthMetadataProcessorAsyncWrapper7DestroyEPv, symObjAddr: 0x0, symBinAddr: 0x1D400, symSize: 0x48 }
  - { offsetInCU: 0x14BFF, offset: 0x20BBFF, size: 0x8, addend: 0x0, symName: __ZNSt3__110shared_ptrIN4grpc21AuthMetadataProcessorEED2B8ue170006Ev, symObjAddr: 0xE24, symBinAddr: 0x1E1E4, symSize: 0x58 }
  - { offsetInCU: 0x1514F, offset: 0x20C14F, size: 0x8, addend: 0x0, symName: __ZN4grpc33AuthMetadataProcessorAsyncWrapper15InvokeProcessorEP17grpc_auth_contextPK13grpc_metadatamPFvPvS5_mS5_m16grpc_status_codePKcES6_, symObjAddr: 0x214, symBinAddr: 0x1D614, symSize: 0x71C }
  - { offsetInCU: 0x18DFC, offset: 0x20FDFC, size: 0x8, addend: 0x0, symName: __ZN4grpc23SecureServerCredentialsC2EP23grpc_server_credentials, symObjAddr: 0x970, symBinAddr: 0x1DD30, symSize: 0x24 }
  - { offsetInCU: 0x18EE7, offset: 0x20FEE7, size: 0x8, addend: 0x0, symName: __ZN4grpc23SecureServerCredentialsC1EP23grpc_server_credentials, symObjAddr: 0x994, symBinAddr: 0x1DD54, symSize: 0x24 }
  - { offsetInCU: 0x1900B, offset: 0x21000B, size: 0x8, addend: 0x0, symName: __ZN4grpc23SecureServerCredentials24SetAuthMetadataProcessorERKNSt3__110shared_ptrINS_21AuthMetadataProcessorEEE, symObjAddr: 0x9B8, symBinAddr: 0x1DD78, symSize: 0x7C }
  - { offsetInCU: 0x190BF, offset: 0x2100BF, size: 0x8, addend: 0x0, symName: __ZN4grpc33AuthMetadataProcessorAsyncWrapperC2ERKNSt3__110shared_ptrINS_21AuthMetadataProcessorEEE, symObjAddr: 0x18F0, symBinAddr: 0x1E23C, symSize: 0xB8 }
  - { offsetInCU: 0x19972, offset: 0x210972, size: 0x8, addend: 0x0, symName: __ZNSt3__110shared_ptrIN4grpc17ServerCredentialsEEC2B8ue170006INS1_23SecureServerCredentialsEvEEPT_, symObjAddr: 0x1FE0, symBinAddr: 0x1E460, symSize: 0x70 }
  - { offsetInCU: 0x19AC7, offset: 0x210AC7, size: 0x8, addend: 0x0, symName: __ZNKSt3__16vectorI26grpc_ssl_pem_key_cert_pairNS_9allocatorIS1_EEE20__throw_length_errorB8ue170006Ev, symObjAddr: 0x1F98, symBinAddr: 0x1E418, symSize: 0x14 }
  - { offsetInCU: 0x19AF1, offset: 0x210AF1, size: 0x8, addend: 0x0, symName: __ZNSt3__119__allocate_at_leastB8ue170006INS_9allocatorI26grpc_ssl_pem_key_cert_pairEEEENS_19__allocation_resultINS_16allocator_traitsIT_E7pointerEEERS6_m, symObjAddr: 0x1FAC, symBinAddr: 0x1E42C, symSize: 0x34 }
  - { offsetInCU: 0x19C4C, offset: 0x210C4C, size: 0x8, addend: 0x0, symName: __ZN4grpc23SecureServerCredentialsD1Ev, symObjAddr: 0xDC0, symBinAddr: 0x1E180, symSize: 0x30 }
  - { offsetInCU: 0x19D06, offset: 0x210D06, size: 0x8, addend: 0x0, symName: __ZNKSt3__114default_deleteIN4grpc33AuthMetadataProcessorAsyncWrapperEEclB8ue170006EPS2_, symObjAddr: 0x19A8, symBinAddr: 0x1E2F4, symSize: 0x48 }
  - { offsetInCU: 0x19E51, offset: 0x210E51, size: 0x8, addend: 0x0, symName: __ZN4grpc23SecureServerCredentialsD0Ev, symObjAddr: 0xDF0, symBinAddr: 0x1E1B0, symSize: 0x34 }
  - { offsetInCU: 0x1B1FF, offset: 0x2121FF, size: 0x8, addend: 0x0, symName: '__ZNSt3__110__function6__funcIZN4grpc33AuthMetadataProcessorAsyncWrapper7ProcessEPvP17grpc_auth_contextPK13grpc_metadatamPFvS4_S9_mS9_m16grpc_status_codePKcES4_E3$_0NS_9allocatorISF_EEFvvEED1Ev', symObjAddr: 0x19F0, symBinAddr: 0x1E33C, symSize: 0x4 }
  - { offsetInCU: 0x1B22B, offset: 0x21222B, size: 0x8, addend: 0x0, symName: '__ZNSt3__110__function6__funcIZN4grpc33AuthMetadataProcessorAsyncWrapper7ProcessEPvP17grpc_auth_contextPK13grpc_metadatamPFvS4_S9_mS9_m16grpc_status_codePKcES4_E3$_0NS_9allocatorISF_EEFvvEED0Ev', symObjAddr: 0x19F4, symBinAddr: 0x1E340, symSize: 0x4 }
  - { offsetInCU: 0x1B409, offset: 0x212409, size: 0x8, addend: 0x0, symName: '__ZNKSt3__110__function6__funcIZN4grpc33AuthMetadataProcessorAsyncWrapper7ProcessEPvP17grpc_auth_contextPK13grpc_metadatamPFvS4_S9_mS9_m16grpc_status_codePKcES4_E3$_0NS_9allocatorISF_EEFvvEE7__cloneEv', symObjAddr: 0x19F8, symBinAddr: 0x1E344, symSize: 0x48 }
  - { offsetInCU: 0x1B72B, offset: 0x21272B, size: 0x8, addend: 0x0, symName: '__ZNKSt3__110__function6__funcIZN4grpc33AuthMetadataProcessorAsyncWrapper7ProcessEPvP17grpc_auth_contextPK13grpc_metadatamPFvS4_S9_mS9_m16grpc_status_codePKcES4_E3$_0NS_9allocatorISF_EEFvvEE7__cloneEPNS0_6__baseISI_EE', symObjAddr: 0x1A40, symBinAddr: 0x1E38C, symSize: 0x28 }
  - { offsetInCU: 0x1B763, offset: 0x212763, size: 0x8, addend: 0x0, symName: '__ZNKSt3__110__function6__funcIZN4grpc33AuthMetadataProcessorAsyncWrapper7ProcessEPvP17grpc_auth_contextPK13grpc_metadatamPFvS4_S9_mS9_m16grpc_status_codePKcES4_E3$_0NS_9allocatorISF_EEFvvEE7__cloneEPNS0_6__baseISI_EE', symObjAddr: 0x1A40, symBinAddr: 0x1E38C, symSize: 0x28 }
  - { offsetInCU: 0x1B791, offset: 0x212791, size: 0x8, addend: 0x0, symName: '__ZNKSt3__110__function6__funcIZN4grpc33AuthMetadataProcessorAsyncWrapper7ProcessEPvP17grpc_auth_contextPK13grpc_metadatamPFvS4_S9_mS9_m16grpc_status_codePKcES4_E3$_0NS_9allocatorISF_EEFvvEE7__cloneEPNS0_6__baseISI_EE', symObjAddr: 0x1A40, symBinAddr: 0x1E38C, symSize: 0x28 }
  - { offsetInCU: 0x1B8A7, offset: 0x2128A7, size: 0x8, addend: 0x0, symName: '__ZNSt3__110__function6__funcIZN4grpc33AuthMetadataProcessorAsyncWrapper7ProcessEPvP17grpc_auth_contextPK13grpc_metadatamPFvS4_S9_mS9_m16grpc_status_codePKcES4_E3$_0NS_9allocatorISF_EEFvvEE7destroyEv', symObjAddr: 0x1A68, symBinAddr: 0x1E3B4, symSize: 0x4 }
  - { offsetInCU: 0x1B8F8, offset: 0x2128F8, size: 0x8, addend: 0x0, symName: '__ZNSt3__110__function6__funcIZN4grpc33AuthMetadataProcessorAsyncWrapper7ProcessEPvP17grpc_auth_contextPK13grpc_metadatamPFvS4_S9_mS9_m16grpc_status_codePKcES4_E3$_0NS_9allocatorISF_EEFvvEE18destroy_deallocateEv', symObjAddr: 0x1A6C, symBinAddr: 0x1E3B8, symSize: 0x4 }
  - { offsetInCU: 0x1B92E, offset: 0x21292E, size: 0x8, addend: 0x0, symName: '__ZNSt3__110__function6__funcIZN4grpc33AuthMetadataProcessorAsyncWrapper7ProcessEPvP17grpc_auth_contextPK13grpc_metadatamPFvS4_S9_mS9_m16grpc_status_codePKcES4_E3$_0NS_9allocatorISF_EEFvvEE18destroy_deallocateEv', symObjAddr: 0x1A6C, symBinAddr: 0x1E3B8, symSize: 0x4 }
  - { offsetInCU: 0x1B950, offset: 0x212950, size: 0x8, addend: 0x0, symName: '__ZNSt3__110__function6__funcIZN4grpc33AuthMetadataProcessorAsyncWrapper7ProcessEPvP17grpc_auth_contextPK13grpc_metadatamPFvS4_S9_mS9_m16grpc_status_codePKcES4_E3$_0NS_9allocatorISF_EEFvvEE18destroy_deallocateEv', symObjAddr: 0x1A6C, symBinAddr: 0x1E3B8, symSize: 0x4 }
  - { offsetInCU: 0x1B97C, offset: 0x21297C, size: 0x8, addend: 0x0, symName: '__ZNSt3__110__function6__funcIZN4grpc33AuthMetadataProcessorAsyncWrapper7ProcessEPvP17grpc_auth_contextPK13grpc_metadatamPFvS4_S9_mS9_m16grpc_status_codePKcES4_E3$_0NS_9allocatorISF_EEFvvEE18destroy_deallocateEv', symObjAddr: 0x1A6C, symBinAddr: 0x1E3B8, symSize: 0x4 }
  - { offsetInCU: 0x1B9A3, offset: 0x2129A3, size: 0x8, addend: 0x0, symName: '__ZNSt3__110__function6__funcIZN4grpc33AuthMetadataProcessorAsyncWrapper7ProcessEPvP17grpc_auth_contextPK13grpc_metadatamPFvS4_S9_mS9_m16grpc_status_codePKcES4_E3$_0NS_9allocatorISF_EEFvvEE18destroy_deallocateEv', symObjAddr: 0x1A6C, symBinAddr: 0x1E3B8, symSize: 0x4 }
  - { offsetInCU: 0x1BA21, offset: 0x212A21, size: 0x8, addend: 0x0, symName: '__ZNSt3__110__function6__funcIZN4grpc33AuthMetadataProcessorAsyncWrapper7ProcessEPvP17grpc_auth_contextPK13grpc_metadatamPFvS4_S9_mS9_m16grpc_status_codePKcES4_E3$_0NS_9allocatorISF_EEFvvEEclEv', symObjAddr: 0x1A70, symBinAddr: 0x1E3BC, symSize: 0x14 }
  - { offsetInCU: 0x1BA4C, offset: 0x212A4C, size: 0x8, addend: 0x0, symName: '__ZNSt3__110__function6__funcIZN4grpc33AuthMetadataProcessorAsyncWrapper7ProcessEPvP17grpc_auth_contextPK13grpc_metadatamPFvS4_S9_mS9_m16grpc_status_codePKcES4_E3$_0NS_9allocatorISF_EEFvvEEclEv', symObjAddr: 0x1A70, symBinAddr: 0x1E3BC, symSize: 0x14 }
  - { offsetInCU: 0x1BA6A, offset: 0x212A6A, size: 0x8, addend: 0x0, symName: '__ZNSt3__110__function6__funcIZN4grpc33AuthMetadataProcessorAsyncWrapper7ProcessEPvP17grpc_auth_contextPK13grpc_metadatamPFvS4_S9_mS9_m16grpc_status_codePKcES4_E3$_0NS_9allocatorISF_EEFvvEEclEv', symObjAddr: 0x1A70, symBinAddr: 0x1E3BC, symSize: 0x14 }
  - { offsetInCU: 0x1BA87, offset: 0x212A87, size: 0x8, addend: 0x0, symName: '__ZNSt3__110__function6__funcIZN4grpc33AuthMetadataProcessorAsyncWrapper7ProcessEPvP17grpc_auth_contextPK13grpc_metadatamPFvS4_S9_mS9_m16grpc_status_codePKcES4_E3$_0NS_9allocatorISF_EEFvvEEclEv', symObjAddr: 0x1A70, symBinAddr: 0x1E3BC, symSize: 0x14 }
  - { offsetInCU: 0x1BAA5, offset: 0x212AA5, size: 0x8, addend: 0x0, symName: '__ZNSt3__110__function6__funcIZN4grpc33AuthMetadataProcessorAsyncWrapper7ProcessEPvP17grpc_auth_contextPK13grpc_metadatamPFvS4_S9_mS9_m16grpc_status_codePKcES4_E3$_0NS_9allocatorISF_EEFvvEEclEv', symObjAddr: 0x1A70, symBinAddr: 0x1E3BC, symSize: 0x14 }
  - { offsetInCU: 0x1BAD3, offset: 0x212AD3, size: 0x8, addend: 0x0, symName: '__ZNKSt3__110__function6__funcIZN4grpc33AuthMetadataProcessorAsyncWrapper7ProcessEPvP17grpc_auth_contextPK13grpc_metadatamPFvS4_S9_mS9_m16grpc_status_codePKcES4_E3$_0NS_9allocatorISF_EEFvvEE6targetERKSt9type_info', symObjAddr: 0x1A84, symBinAddr: 0x1E3D0, symSize: 0x3C }
  - { offsetInCU: 0x1BB6F, offset: 0x212B6F, size: 0x8, addend: 0x0, symName: '__ZNKSt3__110__function6__funcIZN4grpc33AuthMetadataProcessorAsyncWrapper7ProcessEPvP17grpc_auth_contextPK13grpc_metadatamPFvS4_S9_mS9_m16grpc_status_codePKcES4_E3$_0NS_9allocatorISF_EEFvvEE11target_typeEv', symObjAddr: 0x1AC0, symBinAddr: 0x1E40C, symSize: 0xC }
  - { offsetInCU: 0x1C57F, offset: 0x21357F, size: 0x8, addend: 0x0, symName: __ZNKSt3__114default_deleteIN4grpc23SecureServerCredentialsEEclB8ue170006EPS2_, symObjAddr: 0x20B0, symBinAddr: 0x1E530, symSize: 0x40 }
  - { offsetInCU: 0x1C684, offset: 0x213684, size: 0x8, addend: 0x0, symName: __ZNSt3__120__shared_ptr_pointerIPN4grpc23SecureServerCredentialsENS_10shared_ptrINS1_17ServerCredentialsEE27__shared_ptr_default_deleteIS5_S2_EENS_9allocatorIS2_EEED1Ev, symObjAddr: 0x2050, symBinAddr: 0x1E4D0, symSize: 0x4 }
  - { offsetInCU: 0x1C6A6, offset: 0x2136A6, size: 0x8, addend: 0x0, symName: __ZNSt3__120__shared_ptr_pointerIPN4grpc23SecureServerCredentialsENS_10shared_ptrINS1_17ServerCredentialsEE27__shared_ptr_default_deleteIS5_S2_EENS_9allocatorIS2_EEED1Ev, symObjAddr: 0x2050, symBinAddr: 0x1E4D0, symSize: 0x4 }
  - { offsetInCU: 0x1C6DC, offset: 0x2136DC, size: 0x8, addend: 0x0, symName: __ZNSt3__120__shared_ptr_pointerIPN4grpc23SecureServerCredentialsENS_10shared_ptrINS1_17ServerCredentialsEE27__shared_ptr_default_deleteIS5_S2_EENS_9allocatorIS2_EEED0Ev, symObjAddr: 0x2054, symBinAddr: 0x1E4D4, symSize: 0x14 }
  - { offsetInCU: 0x1C73F, offset: 0x21373F, size: 0x8, addend: 0x0, symName: __ZNSt3__120__shared_ptr_pointerIPN4grpc23SecureServerCredentialsENS_10shared_ptrINS1_17ServerCredentialsEE27__shared_ptr_default_deleteIS5_S2_EENS_9allocatorIS2_EEE16__on_zero_sharedEv, symObjAddr: 0x2068, symBinAddr: 0x1E4E8, symSize: 0x8 }
  - { offsetInCU: 0x1C776, offset: 0x213776, size: 0x8, addend: 0x0, symName: __ZNKSt3__120__shared_ptr_pointerIPN4grpc23SecureServerCredentialsENS_10shared_ptrINS1_17ServerCredentialsEE27__shared_ptr_default_deleteIS5_S2_EENS_9allocatorIS2_EEE13__get_deleterERKSt9type_info, symObjAddr: 0x2070, symBinAddr: 0x1E4F0, symSize: 0x3C }
  - { offsetInCU: 0x1C81C, offset: 0x21381C, size: 0x8, addend: 0x0, symName: __ZNSt3__120__shared_ptr_pointerIPN4grpc23SecureServerCredentialsENS_10shared_ptrINS1_17ServerCredentialsEE27__shared_ptr_default_deleteIS5_S2_EENS_9allocatorIS2_EEE21__on_zero_shared_weakEv, symObjAddr: 0x20AC, symBinAddr: 0x1E52C, symSize: 0x4 }
  - { offsetInCU: 0x1C852, offset: 0x213852, size: 0x8, addend: 0x0, symName: __ZNSt3__120__shared_ptr_pointerIPN4grpc23SecureServerCredentialsENS_10shared_ptrINS1_17ServerCredentialsEE27__shared_ptr_default_deleteIS5_S2_EENS_9allocatorIS2_EEE21__on_zero_shared_weakEv, symObjAddr: 0x20AC, symBinAddr: 0x1E52C, symSize: 0x4 }
  - { offsetInCU: 0x1C874, offset: 0x213874, size: 0x8, addend: 0x0, symName: __ZNSt3__120__shared_ptr_pointerIPN4grpc23SecureServerCredentialsENS_10shared_ptrINS1_17ServerCredentialsEE27__shared_ptr_default_deleteIS5_S2_EENS_9allocatorIS2_EEE21__on_zero_shared_weakEv, symObjAddr: 0x20AC, symBinAddr: 0x1E52C, symSize: 0x4 }
  - { offsetInCU: 0x1C89F, offset: 0x21389F, size: 0x8, addend: 0x0, symName: __ZNSt3__120__shared_ptr_pointerIPN4grpc23SecureServerCredentialsENS_10shared_ptrINS1_17ServerCredentialsEE27__shared_ptr_default_deleteIS5_S2_EENS_9allocatorIS2_EEE21__on_zero_shared_weakEv, symObjAddr: 0x20AC, symBinAddr: 0x1E52C, symSize: 0x4 }
  - { offsetInCU: 0x1C8C5, offset: 0x2138C5, size: 0x8, addend: 0x0, symName: __ZNSt3__120__shared_ptr_pointerIPN4grpc23SecureServerCredentialsENS_10shared_ptrINS1_17ServerCredentialsEE27__shared_ptr_default_deleteIS5_S2_EENS_9allocatorIS2_EEE21__on_zero_shared_weakEv, symObjAddr: 0x20AC, symBinAddr: 0x1E52C, symSize: 0x4 }
  - { offsetInCU: 0x43733, offset: 0x257339, size: 0x8, addend: 0x0, symName: __ZNSt3__119__allocate_at_leastB8ue170006INS_9allocatorINS_10unique_ptrIN4grpc19ServerBuilderPluginENS_14default_deleteIS4_EEEEEEEENS_19__allocation_resultINS_16allocator_traitsIT_E7pointerEEERSB_m, symObjAddr: 0x38C8, symBinAddr: 0x20FD4, symSize: 0x34 }
  - { offsetInCU: 0x437DA, offset: 0x2573E0, size: 0x8, addend: 0x0, symName: __ZNSt3__114__split_bufferINS_10unique_ptrIN4grpc19ServerBuilderPluginENS_14default_deleteIS3_EEEERNS_9allocatorIS6_EEED2Ev, symObjAddr: 0x38FC, symBinAddr: 0x21008, symSize: 0x60 }
  - { offsetInCU: 0x43BB2, offset: 0x2577B8, size: 0x8, addend: 0x0, symName: __ZNSt3__119__allocate_at_leastB8ue170006INS_9allocatorIPN4grpc21ServerCompletionQueueEEEEENS_19__allocation_resultINS_16allocator_traitsIT_E7pointerEEERS8_m, symObjAddr: 0x3970, symBinAddr: 0x2107C, symSize: 0x34 }
  - { offsetInCU: 0x43C59, offset: 0x25785F, size: 0x8, addend: 0x0, symName: __ZNSt3__16vectorINS_10unique_ptrIN4grpc13ServerBuilder12NamedServiceENS_14default_deleteIS4_EEEENS_9allocatorIS7_EEE26__swap_out_circular_bufferERNS_14__split_bufferIS7_RS9_EE, symObjAddr: 0x39A4, symBinAddr: 0x210B0, symSize: 0x74 }
  - { offsetInCU: 0x43C9E, offset: 0x2578A4, size: 0x8, addend: 0x0, symName: __ZNSt3__119__allocate_at_leastB8ue170006INS_9allocatorINS_10unique_ptrIN4grpc13ServerBuilder12NamedServiceENS_14default_deleteIS5_EEEEEEEENS_19__allocation_resultINS_16allocator_traitsIT_E7pointerEEERSC_m, symObjAddr: 0x3A2C, symBinAddr: 0x21138, symSize: 0x34 }
  - { offsetInCU: 0x43D45, offset: 0x25794B, size: 0x8, addend: 0x0, symName: __ZNSt3__142__uninitialized_allocator_move_if_noexceptB8ue170006INS_9allocatorINS_10unique_ptrIN4grpc13ServerBuilder12NamedServiceENS_14default_deleteIS5_EEEEEENS_16reverse_iteratorIPS8_EESC_SC_EET2_RT_T0_T1_SD_, symObjAddr: 0x3A60, symBinAddr: 0x2116C, symSize: 0x8C }
  - { offsetInCU: 0x43EE1, offset: 0x257AE7, size: 0x8, addend: 0x0, symName: __ZNSt3__115allocate_sharedB8ue170006IN4grpc8internal30ExternalConnectionAcceptorImplENS_9allocatorIS3_EEJRNS_12basic_stringIcNS_11char_traitsIcEENS4_IcEEEERNS1_13ServerBuilder17experimental_type22ExternalConnectionTypeERNS_10shared_ptrINS1_17ServerCredentialsEEEEvEENSG_IT_EERKT0_DpOT1_, symObjAddr: 0x3BEC, symBinAddr: 0x212F8, symSize: 0x78 }
  - { offsetInCU: 0x441E4, offset: 0x257DEA, size: 0x8, addend: 0x0, symName: __ZNSt3__119__allocate_at_leastB8ue170006INS_9allocatorINS_10shared_ptrIN4grpc8internal30ExternalConnectionAcceptorImplEEEEEEENS_19__allocation_resultINS_16allocator_traitsIT_E7pointerEEERSA_m, symObjAddr: 0x3ECC, symBinAddr: 0x21580, symSize: 0x34 }
  - { offsetInCU: 0x4428B, offset: 0x257E91, size: 0x8, addend: 0x0, symName: __ZNSt3__114__split_bufferINS_10shared_ptrIN4grpc8internal30ExternalConnectionAcceptorImplEEERNS_9allocatorIS5_EEED2Ev, symObjAddr: 0x3F00, symBinAddr: 0x215B4, symSize: 0x4C }
  - { offsetInCU: 0x4443F, offset: 0x258045, size: 0x8, addend: 0x0, symName: __ZNSt3__119__allocate_at_leastB8ue170006INS_9allocatorINS_10unique_ptrIN4grpc19ServerBuilderOptionENS_14default_deleteIS4_EEEEEEEENS_19__allocation_resultINS_16allocator_traitsIT_E7pointerEEERSB_m, symObjAddr: 0x3F60, symBinAddr: 0x21614, symSize: 0x34 }
  - { offsetInCU: 0x444E6, offset: 0x2580EC, size: 0x8, addend: 0x0, symName: __ZNSt3__114__split_bufferINS_10unique_ptrIN4grpc19ServerBuilderOptionENS_14default_deleteIS3_EEEERNS_9allocatorIS6_EEED2Ev, symObjAddr: 0x3F94, symBinAddr: 0x21648, symSize: 0x60 }
  - { offsetInCU: 0x44594, offset: 0x25819A, size: 0x8, addend: 0x0, symName: __ZNSt3__115allocate_sharedB8ue170006IN9grpc_core12experimental19PassiveListenerImplENS_9allocatorIS3_EEJEvEENS_10shared_ptrIT_EERKT0_DpOT1_, symObjAddr: 0x3FF4, symBinAddr: 0x216A8, symSize: 0x48 }
  - { offsetInCU: 0x44D5D, offset: 0x258963, size: 0x8, addend: 0x0, symName: __ZNSt3__119__allocate_at_leastB8ue170006INS_9allocatorINS_10unique_ptrIN4grpc21ServerCompletionQueueENS_14default_deleteIS4_EEEEEEEENS_19__allocation_resultINS_16allocator_traitsIT_E7pointerEEERSB_m, symObjAddr: 0x4ECC, symBinAddr: 0x222E0, symSize: 0x34 }
  - { offsetInCU: 0x44E04, offset: 0x258A0A, size: 0x8, addend: 0x0, symName: __ZNSt3__114__split_bufferINS_10unique_ptrIN4grpc21ServerCompletionQueueENS_14default_deleteIS3_EEEERNS_9allocatorIS6_EEED2Ev, symObjAddr: 0x4F00, symBinAddr: 0x22314, symSize: 0x60 }
  - { offsetInCU: 0x45145, offset: 0x258D4B, size: 0x8, addend: 0x0, symName: __ZNSt3__119__allocate_at_leastB8ue170006INS_9allocatorIPFNS_10unique_ptrIN4grpc19ServerBuilderPluginENS_14default_deleteIS4_EEEEvEEEEENS_19__allocation_resultINS_16allocator_traitsIT_E7pointerEEERSD_m, symObjAddr: 0x4F74, symBinAddr: 0x22388, symSize: 0x34 }
  - { offsetInCU: 0x451EC, offset: 0x258DF2, size: 0x8, addend: 0x0, symName: __ZN4grpc13ServerBuilder17experimental_type25EnableCallMetricRecordingEPNS_12experimental20ServerMetricRecorderE.cold.1, symObjAddr: 0x4FA8, symBinAddr: 0x31F64, symSize: 0x4C }
  - { offsetInCU: 0x459D9, offset: 0x2595DF, size: 0x8, addend: 0x0, symName: __ZNSt3__142__uninitialized_allocator_move_if_noexceptB8ue170006INS_9allocatorINS_10unique_ptrIN4grpc13ServerBuilder12NamedServiceENS_14default_deleteIS5_EEEEEENS_16reverse_iteratorIPS8_EESC_SC_EET2_RT_T0_T1_SD_, symObjAddr: 0x3A60, symBinAddr: 0x2116C, symSize: 0x8C }
  - { offsetInCU: 0x46390, offset: 0x259F96, size: 0x8, addend: 0x0, symName: __ZNSt3__119__allocate_at_leastB8ue170006INS_9allocatorIN4grpc13ServerBuilder24UnstartedPassiveListenerEEEEENS_19__allocation_resultINS_16allocator_traitsIT_E7pointerEEERS8_m, symObjAddr: 0x455C, symBinAddr: 0x219F8, symSize: 0x34 }
  - { offsetInCU: 0x46437, offset: 0x25A03D, size: 0x8, addend: 0x0, symName: __ZNSt3__142__uninitialized_allocator_move_if_noexceptB8ue170006INS_9allocatorIN4grpc13ServerBuilder24UnstartedPassiveListenerEEENS_16reverse_iteratorIPS4_EES8_S8_EET2_RT_T0_T1_S9_, symObjAddr: 0x4590, symBinAddr: 0x21A2C, symSize: 0xA8 }
  - { offsetInCU: 0x4649B, offset: 0x25A0A1, size: 0x8, addend: 0x0, symName: __ZNSt3__142__uninitialized_allocator_move_if_noexceptB8ue170006INS_9allocatorIN4grpc13ServerBuilder24UnstartedPassiveListenerEEENS_16reverse_iteratorIPS4_EES8_S8_EET2_RT_T0_T1_S9_, symObjAddr: 0x4590, symBinAddr: 0x21A2C, symSize: 0xA8 }
  - { offsetInCU: 0x4673F, offset: 0x25A345, size: 0x8, addend: 0x0, symName: __ZNSt3__119__allocator_destroyB8ue170006INS_9allocatorIN4grpc13ServerBuilder24UnstartedPassiveListenerEEENS_16reverse_iteratorINS6_IPS4_EEEES9_EEvRT_T0_T1_, symObjAddr: 0x46E0, symBinAddr: 0x21B7C, symSize: 0x64 }
  - { offsetInCU: 0x469BC, offset: 0x25A5C2, size: 0x8, addend: 0x0, symName: __ZNSt3__119__allocate_at_leastB8ue170006INS_9allocatorIN4grpc13ServerBuilder4PortEEEEENS_19__allocation_resultINS_16allocator_traitsIT_E7pointerEEERS8_m, symObjAddr: 0x4B88, symBinAddr: 0x21F9C, symSize: 0x44 }
  - { offsetInCU: 0x46A63, offset: 0x25A669, size: 0x8, addend: 0x0, symName: __ZNSt3__142__uninitialized_allocator_move_if_noexceptB8ue170006INS_9allocatorIN4grpc13ServerBuilder4PortEEENS_16reverse_iteratorIPS4_EES8_S8_EET2_RT_T0_T1_S9_, symObjAddr: 0x4BCC, symBinAddr: 0x21FE0, symSize: 0xBC }
  - { offsetInCU: 0x46AC7, offset: 0x25A6CD, size: 0x8, addend: 0x0, symName: __ZNSt3__142__uninitialized_allocator_move_if_noexceptB8ue170006INS_9allocatorIN4grpc13ServerBuilder4PortEEENS_16reverse_iteratorIPS4_EES8_S8_EET2_RT_T0_T1_S9_, symObjAddr: 0x4BCC, symBinAddr: 0x21FE0, symSize: 0xBC }
  - { offsetInCU: 0x47508, offset: 0x25B10E, size: 0x8, addend: 0x0, symName: __ZN4grpcL21once_init_plugin_listE, symObjAddr: 0x5C80, symBinAddr: 0x490D0, symSize: 0x0 }
  - { offsetInCU: 0x47522, offset: 0x25B128, size: 0x8, addend: 0x0, symName: __ZN4grpcL21g_plugin_factory_listE, symObjAddr: 0x2C3048, symBinAddr: 0x491E8, symSize: 0x0 }
  - { offsetInCU: 0x4AAD8, offset: 0x25E6DE, size: 0x8, addend: 0x0, symName: __ZN4grpcL19do_plugin_list_initEv, symObjAddr: 0x2E0, symBinAddr: 0x1E884, symSize: 0x28 }
  - { offsetInCU: 0x57925, offset: 0x26B52B, size: 0x8, addend: 0x0, symName: __ZN4grpc13ServerBuilder13BuildAndStartEv, symObjAddr: 0x1694, symBinAddr: 0x1FC2C, symSize: 0xB90 }
  - { offsetInCU: 0x5A319, offset: 0x26DF1F, size: 0x8, addend: 0x0, symName: __ZNSt3__16vectorINS_10unique_ptrIN4grpc13ServerBuilder12NamedServiceENS_14default_deleteIS4_EEEENS_9allocatorIS7_EEE26__swap_out_circular_bufferERNS_14__split_bufferIS7_RS9_EE, symObjAddr: 0x39A4, symBinAddr: 0x210B0, symSize: 0x74 }
  - { offsetInCU: 0x5A516, offset: 0x26E11C, size: 0x8, addend: 0x0, symName: __ZNSt3__110shared_ptrIN4grpc8internal30ExternalConnectionAcceptorImplEE18__enable_weak_thisB8ue170006IS3_S3_vEEvPKNS_23enable_shared_from_thisIT_EEPT0_, symObjAddr: 0x3DB0, symBinAddr: 0x214BC, symSize: 0xB0 }
  - { offsetInCU: 0x5A94C, offset: 0x26E552, size: 0x8, addend: 0x0, symName: __ZNSt3__16vectorIN4grpc13ServerBuilder24UnstartedPassiveListenerENS_9allocatorIS3_EEE26__swap_out_circular_bufferERNS_14__split_bufferIS3_RS5_EE, symObjAddr: 0x44D4, symBinAddr: 0x21970, symSize: 0x74 }
  - { offsetInCU: 0x5AB78, offset: 0x26E77E, size: 0x8, addend: 0x0, symName: __ZNSt3__16vectorIN4grpc13ServerBuilder4PortENS_9allocatorIS3_EEE26__swap_out_circular_bufferERNS_14__split_bufferIS3_RS5_EE, symObjAddr: 0x4B00, symBinAddr: 0x21F14, symSize: 0x74 }
  - { offsetInCU: 0x5DA00, offset: 0x271606, size: 0x8, addend: 0x0, symName: __ZN4grpc13ServerBuilderC2Ev, symObjAddr: 0x0, symBinAddr: 0x1E5A4, symSize: 0x2E0 }
  - { offsetInCU: 0x5E964, offset: 0x27256A, size: 0x8, addend: 0x0, symName: __ZNSt3__114__split_bufferINS_10unique_ptrIN4grpc19ServerBuilderPluginENS_14default_deleteIS3_EEEERNS_9allocatorIS6_EEED2Ev, symObjAddr: 0x38FC, symBinAddr: 0x21008, symSize: 0x60 }
  - { offsetInCU: 0x5EB4C, offset: 0x272752, size: 0x8, addend: 0x0, symName: __ZNKSt3__16vectorINS_10unique_ptrIN4grpc19ServerBuilderPluginENS_14default_deleteIS3_EEEENS_9allocatorIS6_EEE20__throw_length_errorB8ue170006Ev, symObjAddr: 0x38B4, symBinAddr: 0x20FC0, symSize: 0x14 }
  - { offsetInCU: 0x5EB76, offset: 0x27277C, size: 0x8, addend: 0x0, symName: __ZNSt3__119__allocate_at_leastB8ue170006INS_9allocatorINS_10unique_ptrIN4grpc19ServerBuilderPluginENS_14default_deleteIS4_EEEEEEEENS_19__allocation_resultINS_16allocator_traitsIT_E7pointerEEERSB_m, symObjAddr: 0x38C8, symBinAddr: 0x20FD4, symSize: 0x34 }
  - { offsetInCU: 0x5EB81, offset: 0x272787, size: 0x8, addend: 0x0, symName: __ZNSt3__110shared_ptrIN4grpc12experimental36AuthorizationPolicyProviderInterfaceEED2B8ue170006Ev, symObjAddr: 0x385C, symBinAddr: 0x20F68, symSize: 0x58 }
  - { offsetInCU: 0x5EC0C, offset: 0x272812, size: 0x8, addend: 0x0, symName: __ZNSt3__16vectorINS_10shared_ptrIN4grpc8internal30ExternalConnectionAcceptorImplEEENS_9allocatorIS5_EEE16__destroy_vectorclB8ue170006Ev, symObjAddr: 0x37EC, symBinAddr: 0x20EF8, symSize: 0x70 }
  - { offsetInCU: 0x5ED9C, offset: 0x2729A2, size: 0x8, addend: 0x0, symName: __ZNSt3__16vectorINS_10unique_ptrIN4grpc12experimental33ServerInterceptorFactoryInterfaceENS_14default_deleteIS4_EEEENS_9allocatorIS7_EEE16__destroy_vectorclB8ue170006Ev, symObjAddr: 0x3770, symBinAddr: 0x20E7C, symSize: 0x7C }
  - { offsetInCU: 0x5EFA2, offset: 0x272BA8, size: 0x8, addend: 0x0, symName: __ZNSt3__16vectorINS_10unique_ptrIN4grpc19ServerBuilderPluginENS_14default_deleteIS3_EEEENS_9allocatorIS6_EEE16__destroy_vectorclB8ue170006Ev, symObjAddr: 0x36F4, symBinAddr: 0x20E00, symSize: 0x7C }
  - { offsetInCU: 0x5F1FC, offset: 0x272E02, size: 0x8, addend: 0x0, symName: __ZNSt3__16vectorIN4grpc13ServerBuilder24UnstartedPassiveListenerENS_9allocatorIS3_EEE16__destroy_vectorclB8ue170006Ev, symObjAddr: 0x3658, symBinAddr: 0x20D64, symSize: 0x40 }
  - { offsetInCU: 0x5F300, offset: 0x272F06, size: 0x8, addend: 0x0, symName: __ZNSt3__16vectorIN4grpc13ServerBuilder4PortENS_9allocatorIS3_EEE16__destroy_vectorclB8ue170006Ev, symObjAddr: 0x3598, symBinAddr: 0x20CA4, symSize: 0x84 }
  - { offsetInCU: 0x5F45B, offset: 0x273061, size: 0x8, addend: 0x0, symName: __ZNSt3__16vectorINS_10unique_ptrIN4grpc13ServerBuilder12NamedServiceENS_14default_deleteIS4_EEEENS_9allocatorIS7_EEE16__destroy_vectorclB8ue170006Ev, symObjAddr: 0x3484, symBinAddr: 0x20B90, symSize: 0x40 }
  - { offsetInCU: 0x5F55F, offset: 0x273165, size: 0x8, addend: 0x0, symName: __ZNSt3__16vectorINS_10unique_ptrIN4grpc19ServerBuilderOptionENS_14default_deleteIS3_EEEENS_9allocatorIS6_EEE16__destroy_vectorclB8ue170006Ev, symObjAddr: 0x3408, symBinAddr: 0x20B14, symSize: 0x7C }
  - { offsetInCU: 0x5F799, offset: 0x27339F, size: 0x8, addend: 0x0, symName: __ZN4grpc13ServerBuilderC1Ev, symObjAddr: 0x308, symBinAddr: 0x1E8AC, symSize: 0x4 }
  - { offsetInCU: 0x5F7C7, offset: 0x2733CD, size: 0x8, addend: 0x0, symName: __ZN4grpc13ServerBuilderC1Ev, symObjAddr: 0x308, symBinAddr: 0x1E8AC, symSize: 0x4 }
  - { offsetInCU: 0x5F7DB, offset: 0x2733E1, size: 0x8, addend: 0x0, symName: __ZN4grpc13ServerBuilderD2Ev, symObjAddr: 0x30C, symBinAddr: 0x1E8B0, symSize: 0xEC }
  - { offsetInCU: 0x5FEAB, offset: 0x273AB1, size: 0x8, addend: 0x0, symName: __ZN4grpc13ServerBuilderD1Ev, symObjAddr: 0x404, symBinAddr: 0x1E99C, symSize: 0x4 }
  - { offsetInCU: 0x5FECE, offset: 0x273AD4, size: 0x8, addend: 0x0, symName: __ZN4grpc13ServerBuilderD1Ev, symObjAddr: 0x404, symBinAddr: 0x1E99C, symSize: 0x4 }
  - { offsetInCU: 0x5FEFE, offset: 0x273B04, size: 0x8, addend: 0x0, symName: __ZN4grpc13ServerBuilderD0Ev, symObjAddr: 0x408, symBinAddr: 0x1E9A0, symSize: 0x14 }
  - { offsetInCU: 0x60440, offset: 0x274046, size: 0x8, addend: 0x0, symName: __ZN4grpc13ServerBuilder18AddCompletionQueueEb, symObjAddr: 0x41C, symBinAddr: 0x1E9B4, symSize: 0x144 }
  - { offsetInCU: 0x60B3E, offset: 0x274744, size: 0x8, addend: 0x0, symName: __ZNKSt3__16vectorIPN4grpc21ServerCompletionQueueENS_9allocatorIS3_EEE20__throw_length_errorB8ue170006Ev, symObjAddr: 0x395C, symBinAddr: 0x21068, symSize: 0x14 }
  - { offsetInCU: 0x60B68, offset: 0x27476E, size: 0x8, addend: 0x0, symName: __ZNSt3__119__allocate_at_leastB8ue170006INS_9allocatorIPN4grpc21ServerCompletionQueueEEEEENS_19__allocation_resultINS_16allocator_traitsIT_E7pointerEEERS8_m, symObjAddr: 0x3970, symBinAddr: 0x2107C, symSize: 0x34 }
  - { offsetInCU: 0x61135, offset: 0x274D3B, size: 0x8, addend: 0x0, symName: __ZN4grpc13ServerBuilder15RegisterServiceEPNS_7ServiceE, symObjAddr: 0x560, symBinAddr: 0x1EAF8, symSize: 0xFC }
  - { offsetInCU: 0x61682, offset: 0x275288, size: 0x8, addend: 0x0, symName: __ZNSt3__114__split_bufferINS_10unique_ptrIN4grpc13ServerBuilder12NamedServiceENS_14default_deleteIS4_EEEERNS_9allocatorIS7_EEED2Ev, symObjAddr: 0x3B68, symBinAddr: 0x21274, symSize: 0x34 }
  - { offsetInCU: 0x61795, offset: 0x27539B, size: 0x8, addend: 0x0, symName: __ZNKSt3__16vectorINS_10unique_ptrIN4grpc13ServerBuilder12NamedServiceENS_14default_deleteIS4_EEEENS_9allocatorIS7_EEE20__throw_length_errorB8ue170006Ev, symObjAddr: 0x3A18, symBinAddr: 0x21124, symSize: 0x14 }
  - { offsetInCU: 0x617BF, offset: 0x2753C5, size: 0x8, addend: 0x0, symName: __ZNSt3__119__allocate_at_leastB8ue170006INS_9allocatorINS_10unique_ptrIN4grpc13ServerBuilder12NamedServiceENS_14default_deleteIS5_EEEEEEEENS_19__allocation_resultINS_16allocator_traitsIT_E7pointerEEERSC_m, symObjAddr: 0x3A2C, symBinAddr: 0x21138, symSize: 0x34 }
  - { offsetInCU: 0x617FC, offset: 0x275402, size: 0x8, addend: 0x0, symName: __ZN4grpc13ServerBuilder15RegisterServiceERKNSt3__112basic_stringIcNS1_11char_traitsIcEENS1_9allocatorIcEEEEPNS_7ServiceE, symObjAddr: 0x65C, symBinAddr: 0x1EBF4, symSize: 0x118 }
  - { offsetInCU: 0x61CCC, offset: 0x2758D2, size: 0x8, addend: 0x0, symName: __ZN4grpc13ServerBuilder12NamedServiceC2ERKNSt3__112basic_stringIcNS2_11char_traitsIcEENS2_9allocatorIcEEEEPNS_7ServiceE, symObjAddr: 0x2718, symBinAddr: 0x20A98, symSize: 0x7C }
  - { offsetInCU: 0x61E84, offset: 0x275A8A, size: 0x8, addend: 0x0, symName: __ZN4grpc13ServerBuilder27RegisterAsyncGenericServiceEPNS_19AsyncGenericServiceE, symObjAddr: 0x774, symBinAddr: 0x1ED0C, symSize: 0x94 }
  - { offsetInCU: 0x61F0D, offset: 0x275B13, size: 0x8, addend: 0x0, symName: __ZN4absl12lts_2024011612log_internal10LogMessagelsIPN4grpc19AsyncGenericServiceELi0EEERS2_RKT_, symObjAddr: 0x808, symBinAddr: 0x1EDA0, symSize: 0x68 }
  - { offsetInCU: 0x61FA3, offset: 0x275BA9, size: 0x8, addend: 0x0, symName: __ZN4grpc13ServerBuilder30RegisterCallbackGenericServiceEPNS_22CallbackGenericServiceE, symObjAddr: 0x870, symBinAddr: 0x1EE08, symSize: 0x94 }
  - { offsetInCU: 0x62020, offset: 0x275C26, size: 0x8, addend: 0x0, symName: __ZN4absl12lts_2024011612log_internal10LogMessagelsIPN4grpc22CallbackGenericServiceELi0EEERS2_RKT_, symObjAddr: 0x904, symBinAddr: 0x1EE9C, symSize: 0x68 }
  - { offsetInCU: 0x620DF, offset: 0x275CE5, size: 0x8, addend: 0x0, symName: __ZN4grpc13ServerBuilder19SetContextAllocatorENSt3__110unique_ptrINS_16ContextAllocatorENS1_14default_deleteIS3_EEEE, symObjAddr: 0x96C, symBinAddr: 0x1EF04, symSize: 0x40 }
  - { offsetInCU: 0x6271E, offset: 0x276324, size: 0x8, addend: 0x0, symName: __ZN4grpc13ServerBuilder17experimental_type29AddExternalConnectionAcceptorENS1_22ExternalConnectionTypeENSt3__110shared_ptrINS_17ServerCredentialsEEE, symObjAddr: 0x9AC, symBinAddr: 0x1EF44, symSize: 0x238 }
  - { offsetInCU: 0x632D7, offset: 0x276EDD, size: 0x8, addend: 0x0, symName: __ZNSt3__114__split_bufferINS_10shared_ptrIN4grpc8internal30ExternalConnectionAcceptorImplEEERNS_9allocatorIS5_EEED2Ev, symObjAddr: 0x3F00, symBinAddr: 0x215B4, symSize: 0x4C }
  - { offsetInCU: 0x6347D, offset: 0x277083, size: 0x8, addend: 0x0, symName: __ZNKSt3__16vectorINS_10shared_ptrIN4grpc8internal30ExternalConnectionAcceptorImplEEENS_9allocatorIS5_EEE20__throw_length_errorB8ue170006Ev, symObjAddr: 0x3EB8, symBinAddr: 0x2156C, symSize: 0x14 }
  - { offsetInCU: 0x634A7, offset: 0x2770AD, size: 0x8, addend: 0x0, symName: __ZNSt3__119__allocate_at_leastB8ue170006INS_9allocatorINS_10shared_ptrIN4grpc8internal30ExternalConnectionAcceptorImplEEEEEEENS_19__allocation_resultINS_16allocator_traitsIT_E7pointerEEERSA_m, symObjAddr: 0x3ECC, symBinAddr: 0x21580, symSize: 0x34 }
  - { offsetInCU: 0x63506, offset: 0x27710C, size: 0x8, addend: 0x0, symName: __ZN4grpc13ServerBuilder17experimental_type30SetAuthorizationPolicyProviderENSt3__110shared_ptrINS_12experimental36AuthorizationPolicyProviderInterfaceEEE, symObjAddr: 0xBE4, symBinAddr: 0x1F17C, symSize: 0xC }
  - { offsetInCU: 0x63555, offset: 0x27715B, size: 0x8, addend: 0x0, symName: __ZNSt3__110shared_ptrIN4grpc12experimental36AuthorizationPolicyProviderInterfaceEEaSB8ue170006EOS4_, symObjAddr: 0xBF0, symBinAddr: 0x1F188, symSize: 0x64 }
  - { offsetInCU: 0x63764, offset: 0x27736A, size: 0x8, addend: 0x0, symName: __ZN4grpc13ServerBuilder17experimental_type25EnableCallMetricRecordingEPNS_12experimental20ServerMetricRecorderE, symObjAddr: 0xC54, symBinAddr: 0x1F1EC, symSize: 0xA8 }
  - { offsetInCU: 0x63A95, offset: 0x27769B, size: 0x8, addend: 0x0, symName: __ZN4grpc13ServerBuilder18AddChannelArgumentIiEERS0_RKNSt3__112basic_stringIcNS3_11char_traitsIcEENS3_9allocatorIcEEEERKT_, symObjAddr: 0xCFC, symBinAddr: 0x1F294, symSize: 0x84 }
  - { offsetInCU: 0x63C5C, offset: 0x277862, size: 0x8, addend: 0x0, symName: __ZN4grpc13ServerBuilder17experimental_type25EnableCallMetricRecordingEPNS_12experimental20ServerMetricRecorderE.cold.1, symObjAddr: 0x4FA8, symBinAddr: 0x31F64, symSize: 0x4C }
  - { offsetInCU: 0x63D95, offset: 0x27799B, size: 0x8, addend: 0x0, symName: __ZN4grpc13ServerBuilder9SetOptionENSt3__110unique_ptrINS_19ServerBuilderOptionENS1_14default_deleteIS3_EEEE, symObjAddr: 0xD80, symBinAddr: 0x1F318, symSize: 0x120 }
  - { offsetInCU: 0x643A3, offset: 0x277FA9, size: 0x8, addend: 0x0, symName: __ZN4grpc13ServerBuilder19SetSyncServerOptionENS0_16SyncServerOptionEi, symObjAddr: 0xEA0, symBinAddr: 0x1F438, symSize: 0x44 }
  - { offsetInCU: 0x64855, offset: 0x27845B, size: 0x8, addend: 0x0, symName: __ZNSt3__114__split_bufferINS_10unique_ptrIN4grpc19ServerBuilderOptionENS_14default_deleteIS3_EEEERNS_9allocatorIS6_EEED2Ev, symObjAddr: 0x3F94, symBinAddr: 0x21648, symSize: 0x60 }
  - { offsetInCU: 0x64A3D, offset: 0x278643, size: 0x8, addend: 0x0, symName: __ZNKSt3__16vectorINS_10unique_ptrIN4grpc19ServerBuilderOptionENS_14default_deleteIS3_EEEENS_9allocatorIS6_EEE20__throw_length_errorB8ue170006Ev, symObjAddr: 0x3F4C, symBinAddr: 0x21600, symSize: 0x14 }
  - { offsetInCU: 0x64A67, offset: 0x27866D, size: 0x8, addend: 0x0, symName: __ZNSt3__119__allocate_at_leastB8ue170006INS_9allocatorINS_10unique_ptrIN4grpc19ServerBuilderOptionENS_14default_deleteIS4_EEEEEEEENS_19__allocation_resultINS_16allocator_traitsIT_E7pointerEEERSB_m, symObjAddr: 0x3F60, symBinAddr: 0x21614, symSize: 0x34 }
  - { offsetInCU: 0x64A72, offset: 0x278678, size: 0x8, addend: 0x0, symName: __ZN4grpc13ServerBuilder19SetSyncServerOptionENS0_16SyncServerOptionEi, symObjAddr: 0xEA0, symBinAddr: 0x1F438, symSize: 0x44 }
  - { offsetInCU: 0x64AB5, offset: 0x2786BB, size: 0x8, addend: 0x0, symName: __ZN4grpc13ServerBuilder36SetCompressionAlgorithmSupportStatusE26grpc_compression_algorithmb, symObjAddr: 0xEE4, symBinAddr: 0x1F47C, symSize: 0x28 }
  - { offsetInCU: 0x64B3B, offset: 0x278741, size: 0x8, addend: 0x0, symName: __ZN4grpc13ServerBuilder26SetDefaultCompressionLevelE22grpc_compression_level, symObjAddr: 0xF0C, symBinAddr: 0x1F4A4, symSize: 0x10 }
  - { offsetInCU: 0x64B70, offset: 0x278776, size: 0x8, addend: 0x0, symName: __ZN4grpc13ServerBuilder30SetDefaultCompressionAlgorithmE26grpc_compression_algorithm, symObjAddr: 0xF1C, symBinAddr: 0x1F4B4, symSize: 0x10 }
  - { offsetInCU: 0x64BC0, offset: 0x2787C6, size: 0x8, addend: 0x0, symName: __ZN4grpc13ServerBuilder16SetResourceQuotaERKNS_13ResourceQuotaE, symObjAddr: 0xF2C, symBinAddr: 0x1F4C4, symSize: 0x3C }
  - { offsetInCU: 0x6511E, offset: 0x278D24, size: 0x8, addend: 0x0, symName: __ZN4grpc13ServerBuilder17experimental_type18AddPassiveListenerENSt3__110shared_ptrINS_17ServerCredentialsEEERNS2_10unique_ptrIN9grpc_core12experimental15PassiveListenerENS2_14default_deleteIS9_EEEE, symObjAddr: 0xF68, symBinAddr: 0x1F500, symSize: 0x134 }
  - { offsetInCU: 0x65623, offset: 0x279229, size: 0x8, addend: 0x0, symName: __ZNSt3__16vectorIN4grpc13ServerBuilder24UnstartedPassiveListenerENS_9allocatorIS3_EEE24__emplace_back_slow_pathIJRNS_10shared_ptrIN9grpc_core12experimental19PassiveListenerImplEEENS8_INS1_17ServerCredentialsEEEEEEvDpOT_, symObjAddr: 0x43D0, symBinAddr: 0x2186C, symSize: 0x104 }
  - { offsetInCU: 0x65A61, offset: 0x279667, size: 0x8, addend: 0x0, symName: __ZNSt3__110shared_ptrIN9grpc_core12experimental19PassiveListenerImplEED2B8ue170006Ev, symObjAddr: 0x4378, symBinAddr: 0x21814, symSize: 0x58 }
  - { offsetInCU: 0x65FA7, offset: 0x279BAD, size: 0x8, addend: 0x0, symName: __ZN4grpc13ServerBuilder16AddListeningPortERKNSt3__112basic_stringIcNS1_11char_traitsIcEENS1_9allocatorIcEEEENS1_10shared_ptrINS_17ServerCredentialsEEEPi, symObjAddr: 0x109C, symBinAddr: 0x1F634, symSize: 0x2EC }
  - { offsetInCU: 0x67089, offset: 0x27AC8F, size: 0x8, addend: 0x0, symName: __ZNSt3__16vectorIN4grpc13ServerBuilder4PortENS_9allocatorIS3_EEE21__push_back_slow_pathIRKS3_EEvOT_, symObjAddr: 0x4990, symBinAddr: 0x21DA4, symSize: 0x100 }
  - { offsetInCU: 0x67370, offset: 0x27AF76, size: 0x8, addend: 0x0, symName: __ZN4grpc13ServerBuilder4PortD1Ev, symObjAddr: 0x1388, symBinAddr: 0x1F920, symSize: 0x38 }
  - { offsetInCU: 0x675CF, offset: 0x27B1D5, size: 0x8, addend: 0x0, symName: __ZN4grpc13ServerBuilder16BuildChannelArgsEv, symObjAddr: 0x13C0, symBinAddr: 0x1F958, symSize: 0x2D4 }
  - { offsetInCU: 0x6948F, offset: 0x27D095, size: 0x8, addend: 0x0, symName: __ZNSt3__114__split_bufferINS_10unique_ptrIN4grpc21ServerCompletionQueueENS_14default_deleteIS3_EEEERNS_9allocatorIS6_EEED2Ev, symObjAddr: 0x4F00, symBinAddr: 0x22314, symSize: 0x60 }
  - { offsetInCU: 0x6968F, offset: 0x27D295, size: 0x8, addend: 0x0, symName: __ZN4grpc15CompletionQueue14RegisterServerEPKNS_6ServerE, symObjAddr: 0x2224, symBinAddr: 0x207BC, symSize: 0x80 }
  - { offsetInCU: 0x6996A, offset: 0x27D570, size: 0x8, addend: 0x0, symName: __ZNKSt3__16vectorINS_10unique_ptrIN4grpc21ServerCompletionQueueENS_14default_deleteIS3_EEEENS_9allocatorIS6_EEE20__throw_length_errorB8ue170006Ev, symObjAddr: 0x4EB8, symBinAddr: 0x222CC, symSize: 0x14 }
  - { offsetInCU: 0x69994, offset: 0x27D59A, size: 0x8, addend: 0x0, symName: __ZNSt3__119__allocate_at_leastB8ue170006INS_9allocatorINS_10unique_ptrIN4grpc21ServerCompletionQueueENS_14default_deleteIS4_EEEEEEEENS_19__allocation_resultINS_16allocator_traitsIT_E7pointerEEERSB_m, symObjAddr: 0x4ECC, symBinAddr: 0x222E0, symSize: 0x34 }
  - { offsetInCU: 0x699D2, offset: 0x27D5D8, size: 0x8, addend: 0x0, symName: __ZNSt3__110shared_ptrINS_6vectorINS_10unique_ptrIN4grpc21ServerCompletionQueueENS_14default_deleteIS4_EEEENS_9allocatorIS7_EEEEED2B8ue170006Ev, symObjAddr: 0x4E60, symBinAddr: 0x22274, symSize: 0x58 }
  - { offsetInCU: 0x6A032, offset: 0x27DC38, size: 0x8, addend: 0x0, symName: __ZN4grpc13ServerBuilder24InternalAddPluginFactoryEPFNSt3__110unique_ptrINS_19ServerBuilderPluginENS1_14default_deleteIS3_EEEEvE, symObjAddr: 0x22D4, symBinAddr: 0x2083C, symSize: 0xF4 }
  - { offsetInCU: 0x6A454, offset: 0x27E05A, size: 0x8, addend: 0x0, symName: __ZN4grpc13ServerBuilder16EnableWorkaroundE20grpc_workaround_list, symObjAddr: 0x23C8, symBinAddr: 0x20930, symSize: 0xE8 }
  - { offsetInCU: 0x6A467, offset: 0x27E06D, size: 0x8, addend: 0x0, symName: __ZNKSt3__16vectorIPFNS_10unique_ptrIN4grpc19ServerBuilderPluginENS_14default_deleteIS3_EEEEvENS_9allocatorIS8_EEE20__throw_length_errorB8ue170006Ev, symObjAddr: 0x4F60, symBinAddr: 0x22374, symSize: 0x14 }
  - { offsetInCU: 0x6A491, offset: 0x27E097, size: 0x8, addend: 0x0, symName: __ZNSt3__119__allocate_at_leastB8ue170006INS_9allocatorIPFNS_10unique_ptrIN4grpc19ServerBuilderPluginENS_14default_deleteIS4_EEEEvEEEEENS_19__allocation_resultINS_16allocator_traitsIT_E7pointerEEERSD_m, symObjAddr: 0x4F74, symBinAddr: 0x22388, symSize: 0x34 }
  - { offsetInCU: 0x6A504, offset: 0x27E10A, size: 0x8, addend: 0x0, symName: __ZN4grpc13ServerBuilder16EnableWorkaroundE20grpc_workaround_list, symObjAddr: 0x23C8, symBinAddr: 0x20930, symSize: 0xE8 }
  - { offsetInCU: 0x6A871, offset: 0x27E477, size: 0x8, addend: 0x0, symName: __ZN4absl12lts_2024011612log_internal10LogMessagelsI20grpc_workaround_listLi0EEERS2_RKT_, symObjAddr: 0x24B0, symBinAddr: 0x20A18, symSize: 0x68 }
  - { offsetInCU: 0x6ACDF, offset: 0x27E8E5, size: 0x8, addend: 0x0, symName: __ZN4grpc21ServerCompletionQueueD1Ev, symObjAddr: 0x25E0, symBinAddr: 0x20A80, symSize: 0x4 }
  - { offsetInCU: 0x6AD02, offset: 0x27E908, size: 0x8, addend: 0x0, symName: __ZN4grpc21ServerCompletionQueueD1Ev, symObjAddr: 0x25E0, symBinAddr: 0x20A80, symSize: 0x4 }
  - { offsetInCU: 0x6AD1F, offset: 0x27E925, size: 0x8, addend: 0x0, symName: __ZN4grpc21ServerCompletionQueueD1Ev, symObjAddr: 0x25E0, symBinAddr: 0x20A80, symSize: 0x4 }
  - { offsetInCU: 0x6AE06, offset: 0x27EA0C, size: 0x8, addend: 0x0, symName: __ZN4grpc21ServerCompletionQueueD0Ev, symObjAddr: 0x25E4, symBinAddr: 0x20A84, symSize: 0x14 }
  - { offsetInCU: 0x6B7E0, offset: 0x27F3E6, size: 0x8, addend: 0x0, symName: __ZNSt3__16vectorINS_10unique_ptrIN4grpc13ServerBuilder12NamedServiceENS_14default_deleteIS4_EEEENS_9allocatorIS7_EEE22__base_destruct_at_endB8ue170006EPS7_, symObjAddr: 0x34C4, symBinAddr: 0x20BD0, symSize: 0x60 }
  - { offsetInCU: 0x6B9AC, offset: 0x27F5B2, size: 0x8, addend: 0x0, symName: __ZNKSt3__114default_deleteIN4grpc13ServerBuilder12NamedServiceEEclB8ue170006EPS3_, symObjAddr: 0x3524, symBinAddr: 0x20C30, symSize: 0x3C }
  - { offsetInCU: 0x6BB36, offset: 0x27F73C, size: 0x8, addend: 0x0, symName: __ZNKSt3__114default_deleteINS_12basic_stringIcNS_11char_traitsIcEENS_9allocatorIcEEEEEclB8ue170006EPS6_, symObjAddr: 0x3560, symBinAddr: 0x20C6C, symSize: 0x38 }
  - { offsetInCU: 0x6BD50, offset: 0x27F956, size: 0x8, addend: 0x0, symName: __ZNSt3__19allocatorIN4grpc13ServerBuilder4PortEE7destroyB8ue170006EPS3_, symObjAddr: 0x361C, symBinAddr: 0x20D28, symSize: 0x3C }
  - { offsetInCU: 0x6BF50, offset: 0x27FB56, size: 0x8, addend: 0x0, symName: __ZNSt3__16vectorIN4grpc13ServerBuilder24UnstartedPassiveListenerENS_9allocatorIS3_EEE22__base_destruct_at_endB8ue170006EPS3_, symObjAddr: 0x3698, symBinAddr: 0x20DA4, symSize: 0x5C }
  - { offsetInCU: 0x6C767, offset: 0x28036D, size: 0x8, addend: 0x0, symName: __ZNSt3__128__exception_guard_exceptionsINS_29_AllocatorDestroyRangeReverseINS_9allocatorINS_10unique_ptrIN4grpc13ServerBuilder12NamedServiceENS_14default_deleteIS6_EEEEEENS_16reverse_iteratorIPS9_EEEEED2B8ue170006Ev, symObjAddr: 0x3AEC, symBinAddr: 0x211F8, symSize: 0x34 }
  - { offsetInCU: 0x6C7A8, offset: 0x2803AE, size: 0x8, addend: 0x0, symName: __ZNKSt3__129_AllocatorDestroyRangeReverseINS_9allocatorINS_10unique_ptrIN4grpc13ServerBuilder12NamedServiceENS_14default_deleteIS5_EEEEEENS_16reverse_iteratorIPS8_EEEclB8ue170006Ev, symObjAddr: 0x3B20, symBinAddr: 0x2122C, symSize: 0x48 }
  - { offsetInCU: 0x6C913, offset: 0x280519, size: 0x8, addend: 0x0, symName: __ZNSt3__114__split_bufferINS_10unique_ptrIN4grpc13ServerBuilder12NamedServiceENS_14default_deleteIS4_EEEERNS_9allocatorIS7_EEE17__destruct_at_endB8ue170006EPS7_, symObjAddr: 0x3B9C, symBinAddr: 0x212A8, symSize: 0x50 }
  - { offsetInCU: 0x6CCB9, offset: 0x2808BF, size: 0x8, addend: 0x0, symName: __ZNSt3__120__shared_ptr_emplaceIN4grpc8internal30ExternalConnectionAcceptorImplENS_9allocatorIS3_EEEC2B8ue170006IJRNS_12basic_stringIcNS_11char_traitsIcEENS4_IcEEEERNS1_13ServerBuilder17experimental_type22ExternalConnectionTypeERNS_10shared_ptrINS1_17ServerCredentialsEEEEEES5_DpOT_, symObjAddr: 0x3C64, symBinAddr: 0x21370, symSize: 0xBC }
  - { offsetInCU: 0x6CF24, offset: 0x280B2A, size: 0x8, addend: 0x0, symName: __ZNSt3__120__shared_ptr_emplaceIN4grpc8internal30ExternalConnectionAcceptorImplENS_9allocatorIS3_EEED1Ev, symObjAddr: 0x3D20, symBinAddr: 0x2142C, symSize: 0x14 }
  - { offsetInCU: 0x6CF47, offset: 0x280B4D, size: 0x8, addend: 0x0, symName: __ZNSt3__120__shared_ptr_emplaceIN4grpc8internal30ExternalConnectionAcceptorImplENS_9allocatorIS3_EEED1Ev, symObjAddr: 0x3D20, symBinAddr: 0x2142C, symSize: 0x14 }
  - { offsetInCU: 0x6CF7E, offset: 0x280B84, size: 0x8, addend: 0x0, symName: __ZNSt3__120__shared_ptr_emplaceIN4grpc8internal30ExternalConnectionAcceptorImplENS_9allocatorIS3_EEED0Ev, symObjAddr: 0x3D34, symBinAddr: 0x21440, symSize: 0x24 }
  - { offsetInCU: 0x6D0AC, offset: 0x280CB2, size: 0x8, addend: 0x0, symName: __ZNSt3__120__shared_ptr_emplaceIN4grpc8internal30ExternalConnectionAcceptorImplENS_9allocatorIS3_EEE16__on_zero_sharedEv, symObjAddr: 0x3D58, symBinAddr: 0x21464, symSize: 0x54 }
  - { offsetInCU: 0x6D2FB, offset: 0x280F01, size: 0x8, addend: 0x0, symName: __ZNSt3__120__shared_ptr_emplaceIN4grpc8internal30ExternalConnectionAcceptorImplENS_9allocatorIS3_EEE21__on_zero_shared_weakEv, symObjAddr: 0x3DAC, symBinAddr: 0x214B8, symSize: 0x4 }
  - { offsetInCU: 0x6D330, offset: 0x280F36, size: 0x8, addend: 0x0, symName: __ZNSt3__120__shared_ptr_emplaceIN4grpc8internal30ExternalConnectionAcceptorImplENS_9allocatorIS3_EEE21__on_zero_shared_weakEv, symObjAddr: 0x3DAC, symBinAddr: 0x214B8, symSize: 0x4 }
  - { offsetInCU: 0x6D352, offset: 0x280F58, size: 0x8, addend: 0x0, symName: __ZNSt3__120__shared_ptr_emplaceIN4grpc8internal30ExternalConnectionAcceptorImplENS_9allocatorIS3_EEE21__on_zero_shared_weakEv, symObjAddr: 0x3DAC, symBinAddr: 0x214B8, symSize: 0x4 }
  - { offsetInCU: 0x6D374, offset: 0x280F7A, size: 0x8, addend: 0x0, symName: __ZNSt3__120__shared_ptr_emplaceIN4grpc8internal30ExternalConnectionAcceptorImplENS_9allocatorIS3_EEE21__on_zero_shared_weakEv, symObjAddr: 0x3DAC, symBinAddr: 0x214B8, symSize: 0x4 }
  - { offsetInCU: 0x6D3A1, offset: 0x280FA7, size: 0x8, addend: 0x0, symName: __ZNSt3__120__shared_ptr_emplaceIN4grpc8internal30ExternalConnectionAcceptorImplENS_9allocatorIS3_EEE21__on_zero_shared_weakEv, symObjAddr: 0x3DAC, symBinAddr: 0x214B8, symSize: 0x4 }
  - { offsetInCU: 0x6D3CB, offset: 0x280FD1, size: 0x8, addend: 0x0, symName: __ZNSt3__120__shared_ptr_emplaceIN4grpc8internal30ExternalConnectionAcceptorImplENS_9allocatorIS3_EEE21__on_zero_shared_weakEv, symObjAddr: 0x3DAC, symBinAddr: 0x214B8, symSize: 0x4 }
  - { offsetInCU: 0x6D8CA, offset: 0x2814D0, size: 0x8, addend: 0x0, symName: __ZNSt3__120__shared_ptr_emplaceIN9grpc_core12experimental19PassiveListenerImplENS_9allocatorIS3_EEEC2B8ue170006IJEEES5_DpOT_, symObjAddr: 0x403C, symBinAddr: 0x216F0, symSize: 0x6C }
  - { offsetInCU: 0x6DAB0, offset: 0x2816B6, size: 0x8, addend: 0x0, symName: __ZNSt3__120__shared_ptr_emplaceIN9grpc_core12experimental19PassiveListenerImplENS_9allocatorIS3_EEED1Ev, symObjAddr: 0x40A8, symBinAddr: 0x2175C, symSize: 0x14 }
  - { offsetInCU: 0x6DAD3, offset: 0x2816D9, size: 0x8, addend: 0x0, symName: __ZNSt3__120__shared_ptr_emplaceIN9grpc_core12experimental19PassiveListenerImplENS_9allocatorIS3_EEED1Ev, symObjAddr: 0x40A8, symBinAddr: 0x2175C, symSize: 0x14 }
  - { offsetInCU: 0x6DB0A, offset: 0x281710, size: 0x8, addend: 0x0, symName: __ZNSt3__120__shared_ptr_emplaceIN9grpc_core12experimental19PassiveListenerImplENS_9allocatorIS3_EEED0Ev, symObjAddr: 0x40BC, symBinAddr: 0x21770, symSize: 0x24 }
  - { offsetInCU: 0x6DBC2, offset: 0x2817C8, size: 0x8, addend: 0x0, symName: __ZNSt3__120__shared_ptr_emplaceIN9grpc_core12experimental19PassiveListenerImplENS_9allocatorIS3_EEE16__on_zero_sharedEv, symObjAddr: 0x40E0, symBinAddr: 0x21794, symSize: 0x30 }
  - { offsetInCU: 0x6DC85, offset: 0x28188B, size: 0x8, addend: 0x0, symName: __ZN9grpc_core13RefCountedPtrINS_6ServerEED2Ev, symObjAddr: 0x4114, symBinAddr: 0x217C8, symSize: 0x4C }
  - { offsetInCU: 0x6DD16, offset: 0x28191C, size: 0x8, addend: 0x0, symName: __ZNSt3__120__shared_ptr_emplaceIN9grpc_core12experimental19PassiveListenerImplENS_9allocatorIS3_EEE21__on_zero_shared_weakEv, symObjAddr: 0x4110, symBinAddr: 0x217C4, symSize: 0x4 }
  - { offsetInCU: 0x6DD4B, offset: 0x281951, size: 0x8, addend: 0x0, symName: __ZNSt3__120__shared_ptr_emplaceIN9grpc_core12experimental19PassiveListenerImplENS_9allocatorIS3_EEE21__on_zero_shared_weakEv, symObjAddr: 0x4110, symBinAddr: 0x217C4, symSize: 0x4 }
  - { offsetInCU: 0x6DD6D, offset: 0x281973, size: 0x8, addend: 0x0, symName: __ZNSt3__120__shared_ptr_emplaceIN9grpc_core12experimental19PassiveListenerImplENS_9allocatorIS3_EEE21__on_zero_shared_weakEv, symObjAddr: 0x4110, symBinAddr: 0x217C4, symSize: 0x4 }
  - { offsetInCU: 0x6DD8F, offset: 0x281995, size: 0x8, addend: 0x0, symName: __ZNSt3__120__shared_ptr_emplaceIN9grpc_core12experimental19PassiveListenerImplENS_9allocatorIS3_EEE21__on_zero_shared_weakEv, symObjAddr: 0x4110, symBinAddr: 0x217C4, symSize: 0x4 }
  - { offsetInCU: 0x6DDBB, offset: 0x2819C1, size: 0x8, addend: 0x0, symName: __ZNSt3__120__shared_ptr_emplaceIN9grpc_core12experimental19PassiveListenerImplENS_9allocatorIS3_EEE21__on_zero_shared_weakEv, symObjAddr: 0x4110, symBinAddr: 0x217C4, symSize: 0x4 }
  - { offsetInCU: 0x6DDE4, offset: 0x2819EA, size: 0x8, addend: 0x0, symName: __ZNSt3__120__shared_ptr_emplaceIN9grpc_core12experimental19PassiveListenerImplENS_9allocatorIS3_EEE21__on_zero_shared_weakEv, symObjAddr: 0x4110, symBinAddr: 0x217C4, symSize: 0x4 }
  - { offsetInCU: 0x6E3ED, offset: 0x281FF3, size: 0x8, addend: 0x0, symName: __ZNSt3__114__split_bufferIN4grpc13ServerBuilder24UnstartedPassiveListenerERNS_9allocatorIS3_EEED2Ev, symObjAddr: 0x4744, symBinAddr: 0x21BE0, symSize: 0x34 }
  - { offsetInCU: 0x6E500, offset: 0x282106, size: 0x8, addend: 0x0, symName: __ZNKSt3__16vectorIN4grpc13ServerBuilder24UnstartedPassiveListenerENS_9allocatorIS3_EEE20__throw_length_errorB8ue170006Ev, symObjAddr: 0x4548, symBinAddr: 0x219E4, symSize: 0x14 }
  - { offsetInCU: 0x6E52A, offset: 0x282130, size: 0x8, addend: 0x0, symName: __ZNSt3__119__allocate_at_leastB8ue170006INS_9allocatorIN4grpc13ServerBuilder24UnstartedPassiveListenerEEEEENS_19__allocation_resultINS_16allocator_traitsIT_E7pointerEEERS8_m, symObjAddr: 0x455C, symBinAddr: 0x219F8, symSize: 0x34 }
  - { offsetInCU: 0x6E688, offset: 0x28228E, size: 0x8, addend: 0x0, symName: __ZNSt3__128__exception_guard_exceptionsINS_29_AllocatorDestroyRangeReverseINS_9allocatorIN4grpc13ServerBuilder24UnstartedPassiveListenerEEENS_16reverse_iteratorIPS5_EEEEED2B8ue170006Ev, symObjAddr: 0x4638, symBinAddr: 0x21AD4, symSize: 0x34 }
  - { offsetInCU: 0x6E6C9, offset: 0x2822CF, size: 0x8, addend: 0x0, symName: __ZNKSt3__129_AllocatorDestroyRangeReverseINS_9allocatorIN4grpc13ServerBuilder24UnstartedPassiveListenerEEENS_16reverse_iteratorIPS4_EEEclB8ue170006Ev, symObjAddr: 0x466C, symBinAddr: 0x21B08, symSize: 0x74 }
  - { offsetInCU: 0x6E84F, offset: 0x282455, size: 0x8, addend: 0x0, symName: __ZNSt3__114__split_bufferIN4grpc13ServerBuilder24UnstartedPassiveListenerERNS_9allocatorIS3_EEE17__destruct_at_endB8ue170006EPS3_, symObjAddr: 0x4778, symBinAddr: 0x21C14, symSize: 0x5C }
  - { offsetInCU: 0x6E9C4, offset: 0x2825CA, size: 0x8, addend: 0x0, symName: __ZN4grpc12_GLOBAL__N_120PassiveListenerOwnerD1Ev, symObjAddr: 0x47D4, symBinAddr: 0x21C70, symSize: 0x28 }
  - { offsetInCU: 0x6EA2C, offset: 0x282632, size: 0x8, addend: 0x0, symName: __ZNSt3__110shared_ptrIN9grpc_core12experimental15PassiveListenerEED2B8ue170006Ev, symObjAddr: 0x48B0, symBinAddr: 0x21D4C, symSize: 0x58 }
  - { offsetInCU: 0x6EADC, offset: 0x2826E2, size: 0x8, addend: 0x0, symName: __ZN4grpc12_GLOBAL__N_120PassiveListenerOwnerD0Ev, symObjAddr: 0x47FC, symBinAddr: 0x21C98, symSize: 0x28 }
  - { offsetInCU: 0x6ED41, offset: 0x282947, size: 0x8, addend: 0x0, symName: __ZN4grpc12_GLOBAL__N_120PassiveListenerOwner23AcceptConnectedEndpointENSt3__110unique_ptrIN17grpc_event_engine12experimental11EventEngine8EndpointENS2_14default_deleteIS7_EEEE, symObjAddr: 0x4824, symBinAddr: 0x21CC0, symSize: 0x7C }
  - { offsetInCU: 0x6EFB8, offset: 0x282BBE, size: 0x8, addend: 0x0, symName: __ZN4grpc12_GLOBAL__N_120PassiveListenerOwner17AcceptConnectedFdEi, symObjAddr: 0x48A0, symBinAddr: 0x21D3C, symSize: 0x10 }
  - { offsetInCU: 0x6EFF0, offset: 0x282BF6, size: 0x8, addend: 0x0, symName: __ZN4grpc12_GLOBAL__N_120PassiveListenerOwner17AcceptConnectedFdEi, symObjAddr: 0x48A0, symBinAddr: 0x21D3C, symSize: 0x10 }
  - { offsetInCU: 0x6F265, offset: 0x282E6B, size: 0x8, addend: 0x0, symName: __ZNSt3__19allocatorIN4grpc13ServerBuilder4PortEE9constructB8ue170006IS3_JRKS3_EEEvPT_DpOT0_, symObjAddr: 0x4A90, symBinAddr: 0x21EA4, symSize: 0x70 }
  - { offsetInCU: 0x6F421, offset: 0x283027, size: 0x8, addend: 0x0, symName: __ZNSt3__114__split_bufferIN4grpc13ServerBuilder4PortERNS_9allocatorIS3_EEED2Ev, symObjAddr: 0x4D0C, symBinAddr: 0x22120, symSize: 0x30 }
  - { offsetInCU: 0x6F517, offset: 0x28311D, size: 0x8, addend: 0x0, symName: __ZNKSt3__16vectorIN4grpc13ServerBuilder4PortENS_9allocatorIS3_EEE20__throw_length_errorB8ue170006Ev, symObjAddr: 0x4B74, symBinAddr: 0x21F88, symSize: 0x14 }
  - { offsetInCU: 0x6F541, offset: 0x283147, size: 0x8, addend: 0x0, symName: __ZNSt3__119__allocate_at_leastB8ue170006INS_9allocatorIN4grpc13ServerBuilder4PortEEEEENS_19__allocation_resultINS_16allocator_traitsIT_E7pointerEEERS8_m, symObjAddr: 0x4B88, symBinAddr: 0x21F9C, symSize: 0x44 }
  - { offsetInCU: 0x6F728, offset: 0x28332E, size: 0x8, addend: 0x0, symName: __ZNSt3__128__exception_guard_exceptionsINS_29_AllocatorDestroyRangeReverseINS_9allocatorIN4grpc13ServerBuilder4PortEEENS_16reverse_iteratorIPS5_EEEEED2B8ue170006Ev, symObjAddr: 0x4C88, symBinAddr: 0x2209C, symSize: 0x34 }
  - { offsetInCU: 0x6F769, offset: 0x28336F, size: 0x8, addend: 0x0, symName: __ZNKSt3__129_AllocatorDestroyRangeReverseINS_9allocatorIN4grpc13ServerBuilder4PortEEENS_16reverse_iteratorIPS4_EEEclB8ue170006Ev, symObjAddr: 0x4CBC, symBinAddr: 0x220D0, symSize: 0x50 }
  - { offsetInCU: 0x6F84A, offset: 0x283450, size: 0x8, addend: 0x0, symName: __ZNSt3__114__split_bufferIN4grpc13ServerBuilder4PortERNS_9allocatorIS3_EEE5clearB8ue170006Ev, symObjAddr: 0x4D3C, symBinAddr: 0x22150, symSize: 0x44 }
  - { offsetInCU: 0x6F9F1, offset: 0x2835F7, size: 0x8, addend: 0x0, symName: __ZNSt3__120__shared_ptr_emplaceINS_6vectorINS_10unique_ptrIN4grpc21ServerCompletionQueueENS_14default_deleteIS4_EEEENS_9allocatorIS7_EEEENS8_ISA_EEED1Ev, symObjAddr: 0x4D80, symBinAddr: 0x22194, symSize: 0x14 }
  - { offsetInCU: 0x6FA14, offset: 0x28361A, size: 0x8, addend: 0x0, symName: __ZNSt3__120__shared_ptr_emplaceINS_6vectorINS_10unique_ptrIN4grpc21ServerCompletionQueueENS_14default_deleteIS4_EEEENS_9allocatorIS7_EEEENS8_ISA_EEED1Ev, symObjAddr: 0x4D80, symBinAddr: 0x22194, symSize: 0x14 }
  - { offsetInCU: 0x6FA4B, offset: 0x283651, size: 0x8, addend: 0x0, symName: __ZNSt3__120__shared_ptr_emplaceINS_6vectorINS_10unique_ptrIN4grpc21ServerCompletionQueueENS_14default_deleteIS4_EEEENS_9allocatorIS7_EEEENS8_ISA_EEED0Ev, symObjAddr: 0x4D94, symBinAddr: 0x221A8, symSize: 0x24 }
  - { offsetInCU: 0x6FB4C, offset: 0x283752, size: 0x8, addend: 0x0, symName: __ZNSt3__120__shared_ptr_emplaceINS_6vectorINS_10unique_ptrIN4grpc21ServerCompletionQueueENS_14default_deleteIS4_EEEENS_9allocatorIS7_EEEENS8_ISA_EEE16__on_zero_sharedEv, symObjAddr: 0x4DB8, symBinAddr: 0x221CC, symSize: 0x28 }
  - { offsetInCU: 0x6FC2C, offset: 0x283832, size: 0x8, addend: 0x0, symName: __ZNSt3__16vectorINS_10unique_ptrIN4grpc21ServerCompletionQueueENS_14default_deleteIS3_EEEENS_9allocatorIS6_EEE16__destroy_vectorclB8ue170006Ev, symObjAddr: 0x4DE4, symBinAddr: 0x221F8, symSize: 0x7C }
  - { offsetInCU: 0x6FE8A, offset: 0x283A90, size: 0x8, addend: 0x0, symName: __ZNSt3__120__shared_ptr_emplaceINS_6vectorINS_10unique_ptrIN4grpc21ServerCompletionQueueENS_14default_deleteIS4_EEEENS_9allocatorIS7_EEEENS8_ISA_EEE21__on_zero_shared_weakEv, symObjAddr: 0x4DE0, symBinAddr: 0x221F4, symSize: 0x4 }
  - { offsetInCU: 0x6FEBF, offset: 0x283AC5, size: 0x8, addend: 0x0, symName: __ZNSt3__120__shared_ptr_emplaceINS_6vectorINS_10unique_ptrIN4grpc21ServerCompletionQueueENS_14default_deleteIS4_EEEENS_9allocatorIS7_EEEENS8_ISA_EEE21__on_zero_shared_weakEv, symObjAddr: 0x4DE0, symBinAddr: 0x221F4, symSize: 0x4 }
  - { offsetInCU: 0x6FEE1, offset: 0x283AE7, size: 0x8, addend: 0x0, symName: __ZNSt3__120__shared_ptr_emplaceINS_6vectorINS_10unique_ptrIN4grpc21ServerCompletionQueueENS_14default_deleteIS4_EEEENS_9allocatorIS7_EEEENS8_ISA_EEE21__on_zero_shared_weakEv, symObjAddr: 0x4DE0, symBinAddr: 0x221F4, symSize: 0x4 }
  - { offsetInCU: 0x6FF03, offset: 0x283B09, size: 0x8, addend: 0x0, symName: __ZNSt3__120__shared_ptr_emplaceINS_6vectorINS_10unique_ptrIN4grpc21ServerCompletionQueueENS_14default_deleteIS4_EEEENS_9allocatorIS7_EEEENS8_ISA_EEE21__on_zero_shared_weakEv, symObjAddr: 0x4DE0, symBinAddr: 0x221F4, symSize: 0x4 }
  - { offsetInCU: 0x6FF2F, offset: 0x283B35, size: 0x8, addend: 0x0, symName: __ZNSt3__120__shared_ptr_emplaceINS_6vectorINS_10unique_ptrIN4grpc21ServerCompletionQueueENS_14default_deleteIS4_EEEENS_9allocatorIS7_EEEENS8_ISA_EEE21__on_zero_shared_weakEv, symObjAddr: 0x4DE0, symBinAddr: 0x221F4, symSize: 0x4 }
  - { offsetInCU: 0x6FF58, offset: 0x283B5E, size: 0x8, addend: 0x0, symName: __ZNSt3__120__shared_ptr_emplaceINS_6vectorINS_10unique_ptrIN4grpc21ServerCompletionQueueENS_14default_deleteIS4_EEEENS_9allocatorIS7_EEEENS8_ISA_EEE21__on_zero_shared_weakEv, symObjAddr: 0x4DE0, symBinAddr: 0x221F4, symSize: 0x4 }
  - { offsetInCU: 0x484, offset: 0x28428C, size: 0x8, addend: 0x0, symName: '__ZN4absl12lts_2024011622internal_any_invocable12LocalInvokerILb0EvRZN4grpc8internal18ServerCallbackCall14ScheduleOnDoneEbE3$_0JEEET0_PNS1_15TypeErasedStateEDpNS1_18ForwardedParameterIT2_E4typeE', symObjAddr: 0x180, symBinAddr: 0x22564, symSize: 0x10 }
  - { offsetInCU: 0x56D, offset: 0x284375, size: 0x8, addend: 0x0, symName: '__ZN4absl12lts_2024011622internal_any_invocable12LocalInvokerILb0EvRZN4grpc8internal18ServerCallbackCall12CallOnCancelEPNS4_13ServerReactorEE3$_1JEEET0_PNS1_15TypeErasedStateEDpNS1_18ForwardedParameterIT2_E4typeE', symObjAddr: 0x19C, symBinAddr: 0x22574, symSize: 0x2C }
  - { offsetInCU: 0x2AEC, offset: 0x2868F4, size: 0x8, addend: 0x0, symName: __ZN4grpc8internal18ServerCallbackCall14ScheduleOnDoneEb, symObjAddr: 0x0, symBinAddr: 0x223F0, symSize: 0xA0 }
  - { offsetInCU: 0x2D5B, offset: 0x286B63, size: 0x8, addend: 0x0, symName: __ZN4grpc8internal18ServerCallbackCall12CallOnCancelEPNS0_13ServerReactorE, symObjAddr: 0xA0, symBinAddr: 0x22490, symSize: 0xD4 }
  - { offsetInCU: 0x46, offset: 0x289339, size: 0x8, addend: 0x0, symName: __ZN4grpc12_GLOBAL__N_111g_callbacksE, symObjAddr: 0x40E6C0, symBinAddr: 0x491F0, symSize: 0x0 }
  - { offsetInCU: 0x60, offset: 0x289353, size: 0x8, addend: 0x0, symName: __ZN4grpc12_GLOBAL__N_121g_once_init_callbacksE, symObjAddr: 0x12C78, symBinAddr: 0x49110, symSize: 0x0 }
  - { offsetInCU: 0x148, offset: 0x28943B, size: 0x8, addend: 0x0, symName: __ZN4grpc12_GLOBAL__N_119InitGlobalCallbacksEv, symObjAddr: 0x12CC, symBinAddr: 0x23828, symSize: 0xB4 }
  - { offsetInCU: 0x3AAF, offset: 0x28CDA2, size: 0x8, addend: 0x0, symName: __ZN4grpc8internal21CatchingReactorGetterINS_17ServerBidiReactorINS_10ByteBufferES3_EERNSt3__18functionIFPS4_PNS_21CallbackServerContextEEEEJS9_EEEPT_OT0_DpOT1_, symObjAddr: 0x6F48, symBinAddr: 0x277B8, symSize: 0x50 }
  - { offsetInCU: 0x620D, offset: 0x28F500, size: 0x8, addend: 0x0, symName: __ZN4grpcL31kHealthCheckServiceInterfaceArgE, symObjAddr: 0x12CF8, symBinAddr: 0x37438, symSize: 0x0 }
  - { offsetInCU: 0x38E92, offset: 0x2C2185, size: 0x8, addend: 0x0, symName: __ZNSt3__119__allocate_at_leastB8ue170006INS_9allocatorINS_10unique_ptrIN4grpc6Server24SyncRequestThreadManagerENS_14default_deleteIS5_EEEEEEEENS_19__allocation_resultINS_16allocator_traitsIT_E7pointerEEERSC_m, symObjAddr: 0xC4B4, symBinAddr: 0x2A65C, symSize: 0x34 }
  - { offsetInCU: 0x38F38, offset: 0x2C222B, size: 0x8, addend: 0x0, symName: __ZNSt3__114__split_bufferINS_10unique_ptrIN4grpc6Server24SyncRequestThreadManagerENS_14default_deleteIS4_EEEERNS_9allocatorIS7_EEED2Ev, symObjAddr: 0xC4E8, symBinAddr: 0x2A690, symSize: 0x60 }
  - { offsetInCU: 0x3A898, offset: 0x2C3B8B, size: 0x8, addend: 0x0, symName: __ZNSt3__17getlineB8ue170006IcNS_11char_traitsIcEENS_9allocatorIcEEEERNS_13basic_istreamIT_T0_EES9_RNS_12basic_stringIS6_S7_T1_EES6_, symObjAddr: 0x2100, symBinAddr: 0x24584, symSize: 0x188 }
  - { offsetInCU: 0x3B65D, offset: 0x2C4950, size: 0x8, addend: 0x0, symName: __ZNSt3__119__allocate_at_leastB8ue170006INS_9allocatorIPN4grpc15CompletionQueueEEEEENS_19__allocation_resultINS_16allocator_traitsIT_E7pointerEEERS8_m, symObjAddr: 0xE3D4, symBinAddr: 0x2C2DC, symSize: 0x34 }
  - { offsetInCU: 0x3B703, offset: 0x2C49F6, size: 0x8, addend: 0x0, symName: __ZN4grpc22CallbackGenericServiceD1Ev, symObjAddr: 0xE408, symBinAddr: 0x2C310, symSize: 0x4 }
  - { offsetInCU: 0x3E598, offset: 0x2C788B, size: 0x8, addend: 0x0, symName: __ZNSt3__119__allocate_at_leastB8ue170006INS_9allocatorINS_12basic_stringIcNS_11char_traitsIcEENS1_IcEEEEEEEENS_19__allocation_resultINS_16allocator_traitsIT_E7pointerEEERSA_m, symObjAddr: 0xD3AC, symBinAddr: 0x2B554, symSize: 0x44 }
  - { offsetInCU: 0x3E63E, offset: 0x2C7931, size: 0x8, addend: 0x0, symName: __ZNSt3__142__uninitialized_allocator_move_if_noexceptB8ue170006INS_9allocatorINS_12basic_stringIcNS_11char_traitsIcEENS1_IcEEEEEENS_16reverse_iteratorIPS6_EESA_SA_EET2_RT_T0_T1_SB_, symObjAddr: 0xD3F0, symBinAddr: 0x2B598, symSize: 0x9C }
  - { offsetInCU: 0x3E6A3, offset: 0x2C7996, size: 0x8, addend: 0x0, symName: __ZNSt3__142__uninitialized_allocator_move_if_noexceptB8ue170006INS_9allocatorINS_12basic_stringIcNS_11char_traitsIcEENS1_IcEEEEEENS_16reverse_iteratorIPS6_EESA_SA_EET2_RT_T0_T1_SB_, symObjAddr: 0xD3F0, symBinAddr: 0x2B598, symSize: 0x9C }
  - { offsetInCU: 0x46A82, offset: 0x2CFD75, size: 0x8, addend: 0x0, symName: __ZN9grpc_core8DestructIN4grpc28GenericCallbackServerContextEEEvPT_, symObjAddr: 0xE080, symBinAddr: 0x2C228, symSize: 0x40 }
  - { offsetInCU: 0x4B52B, offset: 0x2D481E, size: 0x8, addend: 0x0, symName: __ZN4grpc6Server11SyncRequest3RunERKNSt3__110shared_ptrINS0_15GlobalCallbacksEEEb, symObjAddr: 0x5AC4, symBinAddr: 0x26398, symSize: 0x2BC }
  - { offsetInCU: 0x4BC4B, offset: 0x2D4F3E, size: 0x8, addend: 0x0, symName: __ZN4grpc6Server15RegisterServiceEPKNSt3__112basic_stringIcNS1_11char_traitsIcEENS1_9allocatorIcEEEEPNS_7ServiceE, symObjAddr: 0x195C, symBinAddr: 0x23E78, symSize: 0x4F0 }
  - { offsetInCU: 0x4CF76, offset: 0x2D6269, size: 0x8, addend: 0x0, symName: __ZN4grpc8internal9CallOpSetINS0_17CallOpRecvMessageINS_10ByteBufferEEENS0_8CallNoOpILi2EEENS5_ILi3EEENS5_ILi4EEENS5_ILi5EEENS5_ILi6EEEE32ContinueFillOpsAfterInterceptionEv, symObjAddr: 0x95C0, symBinAddr: 0x28374, symSize: 0x128 }
  - { offsetInCU: 0x4D12A, offset: 0x2D641D, size: 0x8, addend: 0x0, symName: __ZN4grpc6Server15CallbackRequestINS_21CallbackServerContextEE15CallbackCallTag3RunEb, symObjAddr: 0xC93C, symBinAddr: 0x2AAE4, symSize: 0x2F0 }
  - { offsetInCU: 0x4D7B4, offset: 0x2D6AA7, size: 0x8, addend: 0x0, symName: __ZN4grpc6Server15CallbackRequestINS_28GenericCallbackServerContextEE15CallbackCallTag3RunEb, symObjAddr: 0xD8A0, symBinAddr: 0x2BA48, symSize: 0x33C }
  - { offsetInCU: 0x4DED4, offset: 0x2D71C7, size: 0x8, addend: 0x0, symName: __ZN4grpc8internal9CallOpSetINS0_25CallOpSendInitialMetadataENS0_22CallOpServerSendStatusENS0_8CallNoOpILi3EEENS4_ILi4EEENS4_ILi5EEENS4_ILi6EEEE32ContinueFillOpsAfterInterceptionEv, symObjAddr: 0x391C, symBinAddr: 0x25D5C, symSize: 0x128 }
  - { offsetInCU: 0x4E718, offset: 0x2D7A0B, size: 0x8, addend: 0x0, symName: __ZN4grpc6Server24SyncRequestThreadManager13AddSyncMethodEPNS_8internal16RpcServiceMethodEPv, symObjAddr: 0x1F20, symBinAddr: 0x243A4, symSize: 0x104 }
  - { offsetInCU: 0x4EC4B, offset: 0x2D7F3E, size: 0x8, addend: 0x0, symName: __ZN4grpc22CallbackGenericService7HandlerEv, symObjAddr: 0x25A4, symBinAddr: 0x24A28, symSize: 0xB8 }
  - { offsetInCU: 0x4F128, offset: 0x2D841B, size: 0x8, addend: 0x0, symName: __ZN4grpc8internal19CallbackBidiHandlerINS_10ByteBufferES2_E30ServerCallbackReaderWriterImpl6FinishENS_6StatusE, symObjAddr: 0x7728, symBinAddr: 0x27D7C, symSize: 0x168 }
  - { offsetInCU: 0x4F687, offset: 0x2D897A, size: 0x8, addend: 0x0, symName: __ZN4grpc8internal19CallbackBidiHandlerINS_10ByteBufferES2_E30ServerCallbackReaderWriterImpl19SendInitialMetadataEv, symObjAddr: 0x7890, symBinAddr: 0x27EE4, symSize: 0x168 }
  - { offsetInCU: 0x4FC8E, offset: 0x2D8F81, size: 0x8, addend: 0x0, symName: __ZN4grpc8internal19CallbackBidiHandlerINS_10ByteBufferES2_E10RunHandlerERKNS0_13MethodHandler16HandlerParameterE, symObjAddr: 0x6C40, symBinAddr: 0x274B0, symSize: 0x274 }
  - { offsetInCU: 0x50A8B, offset: 0x2D9D7E, size: 0x8, addend: 0x0, symName: __ZN4grpc8internal19CallbackBidiHandlerINS_10ByteBufferES2_E30ServerCallbackReaderWriterImpl12SetupReactorEPNS_17ServerBidiReactorIS2_S2_EE, symObjAddr: 0x6F98, symBinAddr: 0x27808, symSize: 0x1DC }
  - { offsetInCU: 0x5171B, offset: 0x2DAA0E, size: 0x8, addend: 0x0, symName: __ZN4grpc6Server24SyncRequestThreadManager20AddUnknownSyncMethodEv, symObjAddr: 0x2C50, symBinAddr: 0x250D4, symSize: 0x1CC }
  - { offsetInCU: 0x52048, offset: 0x2DB33B, size: 0x8, addend: 0x0, symName: __ZN4grpc15ServerInterface16BaseAsyncRequest14FinalizeResultEPPvPb, symObjAddr: 0x174, symBinAddr: 0x22704, symSize: 0x248 }
  - { offsetInCU: 0x52B89, offset: 0x2DBE7C, size: 0x8, addend: 0x0, symName: __ZN4grpc6Server15CallbackRequestINS_21CallbackServerContextEE15CallbackCallTag28ContinueRunAfterInterceptionEv, symObjAddr: 0xCC2C, symBinAddr: 0x2ADD4, symSize: 0x20C }
  - { offsetInCU: 0x535CF, offset: 0x2DC8C2, size: 0x8, addend: 0x0, symName: __ZNSt3__16vectorINS_12basic_stringIcNS_11char_traitsIcEENS_9allocatorIcEEEENS4_IS6_EEE26__swap_out_circular_bufferERNS_14__split_bufferIS6_RS7_EE, symObjAddr: 0xD324, symBinAddr: 0x2B4CC, symSize: 0x74 }
  - { offsetInCU: 0x5370D, offset: 0x2DCA00, size: 0x8, addend: 0x0, symName: __ZN4grpc6Server30RegisterCallbackGenericServiceEPNS_22CallbackGenericServiceE, symObjAddr: 0x23E4, symBinAddr: 0x24868, symSize: 0x184 }
  - { offsetInCU: 0x53F6C, offset: 0x2DD25F, size: 0x8, addend: 0x0, symName: __ZN4grpc6Server15CallbackRequestINS_28GenericCallbackServerContextEE15CallbackCallTag28ContinueRunAfterInterceptionEv, symObjAddr: 0xDBDC, symBinAddr: 0x2BD84, symSize: 0x20C }
  - { offsetInCU: 0x56BAE, offset: 0x2DFEA1, size: 0x8, addend: 0x0, symName: __ZNSt3__110shared_ptrIN4grpc6Server15GlobalCallbacksEED1B8ue170006Ev, symObjAddr: 0x0, symBinAddr: 0x225A0, symSize: 0x4 }
  - { offsetInCU: 0x56BD1, offset: 0x2DFEC4, size: 0x8, addend: 0x0, symName: __ZNSt3__110shared_ptrIN4grpc6Server15GlobalCallbacksEED1B8ue170006Ev, symObjAddr: 0x0, symBinAddr: 0x225A0, symSize: 0x4 }
  - { offsetInCU: 0x56BE5, offset: 0x2DFED8, size: 0x8, addend: 0x0, symName: __ZNSt3__110shared_ptrIN4grpc6Server15GlobalCallbacksEED2B8ue170006Ev, symObjAddr: 0xC07C, symBinAddr: 0x2A3C0, symSize: 0x58 }
  - { offsetInCU: 0x56E32, offset: 0x2E0125, size: 0x8, addend: 0x0, symName: __ZN4grpc15ServerInterface16BaseAsyncRequestC2EPS0_PNS_13ServerContextEPNS_8internal29ServerAsyncStreamingInterfaceEPNS_15CompletionQueueEPNS_21ServerCompletionQueueEPvb, symObjAddr: 0x4, symBinAddr: 0x225A4, symSize: 0xE8 }
  - { offsetInCU: 0x57175, offset: 0x2E0468, size: 0x8, addend: 0x0, symName: __ZN4grpc15ServerInterface16BaseAsyncRequestC1EPS0_PNS_13ServerContextEPNS_8internal29ServerAsyncStreamingInterfaceEPNS_15CompletionQueueEPNS_21ServerCompletionQueueEPvb, symObjAddr: 0xF0, symBinAddr: 0x2268C, symSize: 0x4 }
  - { offsetInCU: 0x5720A, offset: 0x2E04FD, size: 0x8, addend: 0x0, symName: __ZN4grpc15ServerInterface16BaseAsyncRequestC1EPS0_PNS_13ServerContextEPNS_8internal29ServerAsyncStreamingInterfaceEPNS_15CompletionQueueEPNS_21ServerCompletionQueueEPvb, symObjAddr: 0xF0, symBinAddr: 0x2268C, symSize: 0x4 }
  - { offsetInCU: 0x5726C, offset: 0x2E055F, size: 0x8, addend: 0x0, symName: __ZN4grpc15ServerInterface16BaseAsyncRequestD2Ev, symObjAddr: 0xF4, symBinAddr: 0x22690, symSize: 0x5C }
  - { offsetInCU: 0x57303, offset: 0x2E05F6, size: 0x8, addend: 0x0, symName: __ZN4grpc15ServerInterface16BaseAsyncRequestD1Ev, symObjAddr: 0x15C, symBinAddr: 0x226EC, symSize: 0x4 }
  - { offsetInCU: 0x57326, offset: 0x2E0619, size: 0x8, addend: 0x0, symName: __ZN4grpc15ServerInterface16BaseAsyncRequestD1Ev, symObjAddr: 0x15C, symBinAddr: 0x226EC, symSize: 0x4 }
  - { offsetInCU: 0x57356, offset: 0x2E0649, size: 0x8, addend: 0x0, symName: __ZN4grpc15ServerInterface16BaseAsyncRequestD0Ev, symObjAddr: 0x160, symBinAddr: 0x226F0, symSize: 0x14 }
  - { offsetInCU: 0x57786, offset: 0x2E0A79, size: 0x8, addend: 0x0, symName: __ZN4grpc8internal27InterceptorBatchMethodsImpl15RunInterceptorsENSt3__18functionIFvvEEE, symObjAddr: 0x3BC, symBinAddr: 0x2294C, symSize: 0x88 }
  - { offsetInCU: 0x5795B, offset: 0x2E0C4E, size: 0x8, addend: 0x0, symName: __ZNSt3__110__function12__value_funcIFvvEEaSB8ue170006EOS3_, symObjAddr: 0x5318, symBinAddr: 0x25EE0, symSize: 0x90 }
  - { offsetInCU: 0x57A31, offset: 0x2E0D24, size: 0x8, addend: 0x0, symName: __ZN4grpc8internal27InterceptorBatchMethodsImpl15RunInterceptorsENSt3__18functionIFvvEEE.cold.2, symObjAddr: 0xEA9C, symBinAddr: 0x32004, symSize: 0x4C }
  - { offsetInCU: 0x57AC7, offset: 0x2E0DBA, size: 0x8, addend: 0x0, symName: __ZN4grpc8internal27InterceptorBatchMethodsImpl15RunInterceptorsENSt3__18functionIFvvEEE.cold.1, symObjAddr: 0xEA58, symBinAddr: 0x31FC0, symSize: 0x44 }
  - { offsetInCU: 0x57CB5, offset: 0x2E0FA8, size: 0x8, addend: 0x0, symName: __ZN4grpc15ServerInterface16BaseAsyncRequest39ContinueFinalizeResultAfterInterceptionEv, symObjAddr: 0x444, symBinAddr: 0x229D4, symSize: 0x168 }
  - { offsetInCU: 0x5823C, offset: 0x2E152F, size: 0x8, addend: 0x0, symName: __ZN4grpc15ServerInterface22RegisteredAsyncRequestC2EPS0_PNS_13ServerContextEPNS_8internal29ServerAsyncStreamingInterfaceEPNS_15CompletionQueueEPNS_21ServerCompletionQueueEPvPKcNS5_9RpcMethod7RpcTypeE, symObjAddr: 0x5E0, symBinAddr: 0x22B3C, symSize: 0x40 }
  - { offsetInCU: 0x58369, offset: 0x2E165C, size: 0x8, addend: 0x0, symName: __ZN4grpc15ServerInterface22RegisteredAsyncRequestC1EPS0_PNS_13ServerContextEPNS_8internal29ServerAsyncStreamingInterfaceEPNS_15CompletionQueueEPNS_21ServerCompletionQueueEPvPKcNS5_9RpcMethod7RpcTypeE, symObjAddr: 0x620, symBinAddr: 0x22B7C, symSize: 0x40 }
  - { offsetInCU: 0x584D7, offset: 0x2E17CA, size: 0x8, addend: 0x0, symName: __ZN4grpc15ServerInterface22RegisteredAsyncRequest12IssueRequestEPvPP16grpc_byte_bufferPNS_21ServerCompletionQueueE, symObjAddr: 0x660, symBinAddr: 0x22BBC, symSize: 0x80 }
  - { offsetInCU: 0x585BA, offset: 0x2E18AD, size: 0x8, addend: 0x0, symName: __ZN4grpc15ServerInterface19GenericAsyncRequestC2EPS0_PNS_20GenericServerContextEPNS_8internal29ServerAsyncStreamingInterfaceEPNS_15CompletionQueueEPNS_21ServerCompletionQueueEPvbb, symObjAddr: 0x6E0, symBinAddr: 0x22C3C, symSize: 0xD0 }
  - { offsetInCU: 0x58609, offset: 0x2E18FC, size: 0x8, addend: 0x0, symName: __ZN4grpc15ServerInterface22RegisteredAsyncRequest12IssueRequestEPvPP16grpc_byte_bufferPNS_21ServerCompletionQueueE.cold.1, symObjAddr: 0xEAE8, symBinAddr: 0x32050, symSize: 0x28 }
  - { offsetInCU: 0x58626, offset: 0x2E1919, size: 0x8, addend: 0x0, symName: __ZN4grpc15ServerInterface19GenericAsyncRequestC2EPS0_PNS_20GenericServerContextEPNS_8internal29ServerAsyncStreamingInterfaceEPNS_15CompletionQueueEPNS_21ServerCompletionQueueEPvbb, symObjAddr: 0x6E0, symBinAddr: 0x22C3C, symSize: 0xD0 }
  - { offsetInCU: 0x58764, offset: 0x2E1A57, size: 0x8, addend: 0x0, symName: __ZN4grpc15ServerInterface19GenericAsyncRequest12IssueRequestEv, symObjAddr: 0x7B0, symBinAddr: 0x22D0C, symSize: 0x64 }
  - { offsetInCU: 0x5881C, offset: 0x2E1B0F, size: 0x8, addend: 0x0, symName: __ZN4grpc15ServerInterface19GenericAsyncRequestC1EPS0_PNS_20GenericServerContextEPNS_8internal29ServerAsyncStreamingInterfaceEPNS_15CompletionQueueEPNS_21ServerCompletionQueueEPvbb, symObjAddr: 0x814, symBinAddr: 0x22D70, symSize: 0xC }
  - { offsetInCU: 0x58861, offset: 0x2E1B54, size: 0x8, addend: 0x0, symName: __ZN4grpc15ServerInterface19GenericAsyncRequest12IssueRequestEv.cold.1, symObjAddr: 0xEB10, symBinAddr: 0x32078, symSize: 0x28 }
  - { offsetInCU: 0x58879, offset: 0x2E1B6C, size: 0x8, addend: 0x0, symName: __ZN4grpc15ServerInterface19GenericAsyncRequestC1EPS0_PNS_20GenericServerContextEPNS_8internal29ServerAsyncStreamingInterfaceEPNS_15CompletionQueueEPNS_21ServerCompletionQueueEPvbb, symObjAddr: 0x814, symBinAddr: 0x22D70, symSize: 0xC }
  - { offsetInCU: 0x58AC7, offset: 0x2E1DBA, size: 0x8, addend: 0x0, symName: __ZN4grpc15ServerInterface19GenericAsyncRequest14FinalizeResultEPPvPb, symObjAddr: 0x820, symBinAddr: 0x22D7C, symSize: 0x234 }
  - { offsetInCU: 0x5918E, offset: 0x2E2481, size: 0x8, addend: 0x0, symName: __ZN4grpc12experimental13ServerRpcInfo20RegisterInterceptorsERKNSt3__16vectorINS2_10unique_ptrINS0_33ServerInterceptorFactoryInterfaceENS2_14default_deleteIS5_EEEENS2_9allocatorIS8_EEEE, symObjAddr: 0x5550, symBinAddr: 0x25F80, symSize: 0x17C }
  - { offsetInCU: 0x591AF, offset: 0x2E24A2, size: 0x8, addend: 0x0, symName: __ZN4grpc17ServerContextBase19set_server_rpc_infoEPKcNS_8internal9RpcMethod7RpcTypeERKNSt3__16vectorINS6_10unique_ptrINS_12experimental33ServerInterceptorFactoryInterfaceENS6_14default_deleteISA_EEEENS6_9allocatorISD_EEEE, symObjAddr: 0xA54, symBinAddr: 0x22FB0, symSize: 0x68 }
  - { offsetInCU: 0x595C0, offset: 0x2E28B3, size: 0x8, addend: 0x0, symName: __ZN4grpc12experimental13ServerRpcInfo20RegisterInterceptorsERKNSt3__16vectorINS2_10unique_ptrINS0_33ServerInterceptorFactoryInterfaceENS2_14default_deleteIS5_EEEENS2_9allocatorIS8_EEEE, symObjAddr: 0x5550, symBinAddr: 0x25F80, symSize: 0x17C }
  - { offsetInCU: 0x59CC9, offset: 0x2E2FBC, size: 0x8, addend: 0x0, symName: __ZN4grpc6Server15CallbackRequestINS_21CallbackServerContextEE14FinalizeResultEPPvPb, symObjAddr: 0xABC, symBinAddr: 0x23018, symSize: 0x8 }
  - { offsetInCU: 0x59CFE, offset: 0x2E2FF1, size: 0x8, addend: 0x0, symName: __ZN4grpc6Server15CallbackRequestINS_28GenericCallbackServerContextEE14FinalizeResultEPPvPb, symObjAddr: 0xAC4, symBinAddr: 0x23020, symSize: 0x14C }
  - { offsetInCU: 0x5A095, offset: 0x2E3388, size: 0x8, addend: 0x0, symName: __ZNK4grpc6Server15CallbackRequestINS_21CallbackServerContextEE11method_nameEv, symObjAddr: 0xC10, symBinAddr: 0x2316C, symSize: 0xC }
  - { offsetInCU: 0x5A0EA, offset: 0x2E33DD, size: 0x8, addend: 0x0, symName: __ZNK4grpc6Server15CallbackRequestINS_28GenericCallbackServerContextEE11method_nameEv, symObjAddr: 0xC1C, symBinAddr: 0x23178, symSize: 0x1C }
  - { offsetInCU: 0x5B8A4, offset: 0x2E4B97, size: 0x8, addend: 0x0, symName: __ZN4grpc6ServerC2EPNS_16ChannelArgumentsENSt3__110shared_ptrINS3_6vectorINS3_10unique_ptrINS_21ServerCompletionQueueENS3_14default_deleteIS7_EEEENS3_9allocatorISA_EEEEEEiiiNS5_INS4_INS_8internal30ExternalConnectionAcceptorImplEEENSB_ISH_EEEEP26grpc_server_config_fetcherP19grpc_resource_quotaNS5_INS6_INS_12experimental33ServerInterceptorFactoryInterfaceENS8_ISP_EEEENSB_ISR_EEEEPNSO_20ServerMetricRecorderE, symObjAddr: 0xC38, symBinAddr: 0x23194, symSize: 0x694 }
  - { offsetInCU: 0x5D411, offset: 0x2E6704, size: 0x8, addend: 0x0, symName: __ZNSt3__110shared_ptrIN4grpc6Server15GlobalCallbacksEEaSB8ue170006ERKS4_, symObjAddr: 0x1380, symBinAddr: 0x238DC, symSize: 0x78 }
  - { offsetInCU: 0x5D5EA, offset: 0x2E68DD, size: 0x8, addend: 0x0, symName: __ZNSt3__114__split_bufferINS_10unique_ptrIN4grpc6Server24SyncRequestThreadManagerENS_14default_deleteIS4_EEEERNS_9allocatorIS7_EEED2Ev, symObjAddr: 0xC4E8, symBinAddr: 0x2A690, symSize: 0x60 }
  - { offsetInCU: 0x5D80B, offset: 0x2E6AFE, size: 0x8, addend: 0x0, symName: __ZNKSt3__16vectorINS_10unique_ptrIN4grpc6Server24SyncRequestThreadManagerENS_14default_deleteIS4_EEEENS_9allocatorIS7_EEE20__throw_length_errorB8ue170006Ev, symObjAddr: 0xC4A0, symBinAddr: 0x2A648, symSize: 0x14 }
  - { offsetInCU: 0x5D834, offset: 0x2E6B27, size: 0x8, addend: 0x0, symName: __ZNSt3__119__allocate_at_leastB8ue170006INS_9allocatorINS_10unique_ptrIN4grpc6Server24SyncRequestThreadManagerENS_14default_deleteIS5_EEEEEEEENS_19__allocation_resultINS_16allocator_traitsIT_E7pointerEEERSC_m, symObjAddr: 0xC4B4, symBinAddr: 0x2A65C, symSize: 0x34 }
  - { offsetInCU: 0x5D840, offset: 0x2E6B33, size: 0x8, addend: 0x0, symName: __ZNSt3__110unique_ptrIN4grpc17ServerInitializerENS_14default_deleteIS2_EEE5resetB8ue170006EPS2_, symObjAddr: 0xC394, symBinAddr: 0x2A53C, symSize: 0x44 }
  - { offsetInCU: 0x5D978, offset: 0x2E6C6B, size: 0x8, addend: 0x0, symName: __ZNSt3__16vectorINS_12basic_stringIcNS_11char_traitsIcEENS_9allocatorIcEEEENS4_IS6_EEE16__destroy_vectorclB8ue170006Ev, symObjAddr: 0xBF6C, symBinAddr: 0x2A32C, symSize: 0x40 }
  - { offsetInCU: 0x5DA7D, offset: 0x2E6D70, size: 0x8, addend: 0x0, symName: __ZNSt3__16vectorINS_10unique_ptrIN4grpc6Server24SyncRequestThreadManagerENS_14default_deleteIS4_EEEENS_9allocatorIS7_EEE16__destroy_vectorclB8ue170006Ev, symObjAddr: 0xC318, symBinAddr: 0x2A4C0, symSize: 0x7C }
  - { offsetInCU: 0x5E336, offset: 0x2E7629, size: 0x8, addend: 0x0, symName: __ZN4grpc6ServerC1EPNS_16ChannelArgumentsENSt3__110shared_ptrINS3_6vectorINS3_10unique_ptrINS_21ServerCompletionQueueENS3_14default_deleteIS7_EEEENS3_9allocatorISA_EEEEEEiiiNS5_INS4_INS_8internal30ExternalConnectionAcceptorImplEEENSB_ISH_EEEEP26grpc_server_config_fetcherP19grpc_resource_quotaNS5_INS6_INS_12experimental33ServerInterceptorFactoryInterfaceENS8_ISP_EEEENSB_ISR_EEEEPNSO_20ServerMetricRecorderE, symObjAddr: 0x1438, symBinAddr: 0x23954, symSize: 0x14 }
  - { offsetInCU: 0x5E5AF, offset: 0x2E78A2, size: 0x8, addend: 0x0, symName: __ZN4grpc6ServerD2Ev, symObjAddr: 0x144C, symBinAddr: 0x23968, symSize: 0x238 }
  - { offsetInCU: 0x5F156, offset: 0x2E8449, size: 0x8, addend: 0x0, symName: __ZN4grpc8internal19ReleasableMutexLock7ReleaseEv, symObjAddr: 0x1684, symBinAddr: 0x23BA0, symSize: 0x34 }
  - { offsetInCU: 0x5F1A9, offset: 0x2E849C, size: 0x8, addend: 0x0, symName: __ZN4grpc6ServerD1Ev, symObjAddr: 0x16B8, symBinAddr: 0x23BD4, symSize: 0x4 }
  - { offsetInCU: 0x5F1E0, offset: 0x2E84D3, size: 0x8, addend: 0x0, symName: __ZN4grpc8internal19ReleasableMutexLockD2Ev, symObjAddr: 0x6504, symBinAddr: 0x26D74, symSize: 0x34 }
  - { offsetInCU: 0x5F268, offset: 0x2E855B, size: 0x8, addend: 0x0, symName: __ZN4grpc8internal19ReleasableMutexLock7ReleaseEv.cold.1, symObjAddr: 0xEB38, symBinAddr: 0x320A0, symSize: 0x28 }
  - { offsetInCU: 0x5F280, offset: 0x2E8573, size: 0x8, addend: 0x0, symName: __ZN4grpc6ServerD1Ev, symObjAddr: 0x16B8, symBinAddr: 0x23BD4, symSize: 0x4 }
  - { offsetInCU: 0x5F2A3, offset: 0x2E8596, size: 0x8, addend: 0x0, symName: __ZN4grpc6ServerD1Ev, symObjAddr: 0x16B8, symBinAddr: 0x23BD4, symSize: 0x4 }
  - { offsetInCU: 0x5F2D4, offset: 0x2E85C7, size: 0x8, addend: 0x0, symName: __ZThn8_N4grpc6ServerD1Ev, symObjAddr: 0x16BC, symBinAddr: 0x23BD8, symSize: 0x8 }
  - { offsetInCU: 0x5F316, offset: 0x2E8609, size: 0x8, addend: 0x0, symName: __ZN4grpc6ServerD0Ev, symObjAddr: 0x16C4, symBinAddr: 0x23BE0, symSize: 0x14 }
  - { offsetInCU: 0x5F387, offset: 0x2E867A, size: 0x8, addend: 0x0, symName: __ZThn8_N4grpc6ServerD0Ev, symObjAddr: 0x16D8, symBinAddr: 0x23BF4, symSize: 0x18 }
  - { offsetInCU: 0x5F3E6, offset: 0x2E86D9, size: 0x8, addend: 0x0, symName: __ZN4grpc6Server18SetGlobalCallbacksEPNS0_15GlobalCallbacksE, symObjAddr: 0x16F0, symBinAddr: 0x23C0C, symSize: 0x44 }
  - { offsetInCU: 0x5F460, offset: 0x2E8753, size: 0x8, addend: 0x0, symName: __ZNSt3__110shared_ptrIN4grpc6Server15GlobalCallbacksEE5resetB8ue170006IS3_vEEvPT_, symObjAddr: 0x1734, symBinAddr: 0x23C50, symSize: 0x70 }
  - { offsetInCU: 0x5F474, offset: 0x2E8767, size: 0x8, addend: 0x0, symName: __ZNSt3__110shared_ptrIN4grpc6Server15GlobalCallbacksEE5resetB8ue170006IS3_vEEvPT_, symObjAddr: 0x1734, symBinAddr: 0x23C50, symSize: 0x70 }
  - { offsetInCU: 0x5F5ED, offset: 0x2E88E0, size: 0x8, addend: 0x0, symName: __ZN4grpc6Server18SetGlobalCallbacksEPNS0_15GlobalCallbacksE.cold.2, symObjAddr: 0xEB84, symBinAddr: 0x320EC, symSize: 0x28 }
  - { offsetInCU: 0x5F605, offset: 0x2E88F8, size: 0x8, addend: 0x0, symName: __ZN4grpc6Server18SetGlobalCallbacksEPNS0_15GlobalCallbacksE.cold.1, symObjAddr: 0xEB60, symBinAddr: 0x320C8, symSize: 0x24 }
  - { offsetInCU: 0x5F64E, offset: 0x2E8941, size: 0x8, addend: 0x0, symName: __ZNSt3__110shared_ptrIN4grpc6Server15GlobalCallbacksEEC2B8ue170006IS3_vEEPT_, symObjAddr: 0xC548, symBinAddr: 0x2A6F0, symSize: 0x68 }
  - { offsetInCU: 0x5F79E, offset: 0x2E8A91, size: 0x8, addend: 0x0, symName: __ZN4grpc6Server8c_serverEv, symObjAddr: 0x17A4, symBinAddr: 0x23CC0, symSize: 0x8 }
  - { offsetInCU: 0x5F92E, offset: 0x2E8C21, size: 0x8, addend: 0x0, symName: __ZN4grpc6Server16InProcessChannelERKNS_16ChannelArgumentsE, symObjAddr: 0x17AC, symBinAddr: 0x23CC8, symSize: 0xC8 }
  - { offsetInCU: 0x60041, offset: 0x2E9334, size: 0x8, addend: 0x0, symName: __ZNSt3__16vectorINS_12basic_stringIcNS_11char_traitsIcEENS_9allocatorIcEEEENS4_IS6_EEE16__destroy_vectorclB8ue170006Ev, symObjAddr: 0xBF6C, symBinAddr: 0x2A32C, symSize: 0x40 }
  - { offsetInCU: 0x60211, offset: 0x2E9504, size: 0x8, addend: 0x0, symName: __ZN4grpc6Server17experimental_type32InProcessChannelWithInterceptorsERKNS_16ChannelArgumentsENSt3__16vectorINS5_10unique_ptrINS_12experimental33ClientInterceptorFactoryInterfaceENS5_14default_deleteIS9_EEEENS5_9allocatorISC_EEEE, symObjAddr: 0x1874, symBinAddr: 0x23D90, symSize: 0xE8 }
  - { offsetInCU: 0x6111B, offset: 0x2EA40E, size: 0x8, addend: 0x0, symName: __ZNSt3__118basic_stringstreamIcNS_11char_traitsIcEENS_9allocatorIcEEEC1B8ue170006ERKNS_12basic_stringIcS2_S4_EEj, symObjAddr: 0x2024, symBinAddr: 0x244A8, symSize: 0xDC }
  - { offsetInCU: 0x61220, offset: 0x2EA513, size: 0x8, addend: 0x0, symName: __ZNSt3__16vectorINS_12basic_stringIcNS_11char_traitsIcEENS_9allocatorIcEEEENS4_IS6_EEE21__push_back_slow_pathIRKS6_EEvOT_, symObjAddr: 0xD210, symBinAddr: 0x2B3B8, symSize: 0x114 }
  - { offsetInCU: 0x61791, offset: 0x2EAA84, size: 0x8, addend: 0x0, symName: __ZN4absl12lts_2024011612log_internal10LogMessagelsILi62EEERS2_RAT__Kc, symObjAddr: 0x1E4C, symBinAddr: 0x24368, symSize: 0x3C }
  - { offsetInCU: 0x61902, offset: 0x2EABF5, size: 0x8, addend: 0x0, symName: __ZNSt3__118basic_stringstreamIcNS_11char_traitsIcEENS_9allocatorIcEEED1Ev, symObjAddr: 0x2288, symBinAddr: 0x2470C, symSize: 0x94 }
  - { offsetInCU: 0x61F2E, offset: 0x2EB221, size: 0x8, addend: 0x0, symName: __ZNSt3__115basic_stringbufIcNS_11char_traitsIcEENS_9allocatorIcEEEC2B8ue170006ERKNS_12basic_stringIcS2_S4_EEj, symObjAddr: 0xD070, symBinAddr: 0x2B218, symSize: 0x90 }
  - { offsetInCU: 0x6226A, offset: 0x2EB55D, size: 0x8, addend: 0x0, symName: __ZN4grpc6Server27RegisterAsyncGenericServiceEPNS_19AsyncGenericServiceE, symObjAddr: 0x231C, symBinAddr: 0x247A0, symSize: 0x8C }
  - { offsetInCU: 0x6237A, offset: 0x2EB66D, size: 0x8, addend: 0x0, symName: __ZN4absl12lts_2024011612log_internal10LogMessagelsILi63EEERS2_RAT__Kc, symObjAddr: 0x23A8, symBinAddr: 0x2482C, symSize: 0x3C }
  - { offsetInCU: 0x627AC, offset: 0x2EBA9F, size: 0x8, addend: 0x0, symName: __ZN4absl12lts_2024011612log_internal10LogMessagelsILi65EEERS2_RAT__Kc, symObjAddr: 0x2568, symBinAddr: 0x249EC, symSize: 0x3C }
  - { offsetInCU: 0x62B4D, offset: 0x2EBE40, size: 0x8, addend: 0x0, symName: __ZNSt3__110__function12__value_funcIFPN4grpc17ServerBidiReactorINS2_10ByteBufferES4_EEPNS2_21CallbackServerContextEEEC2B8ue170006EOSA_, symObjAddr: 0x6EE4, symBinAddr: 0x27754, symSize: 0x64 }
  - { offsetInCU: 0x62B9C, offset: 0x2EBE8F, size: 0x8, addend: 0x0, symName: __ZN4grpc6Server16AddListeningPortERKNSt3__112basic_stringIcNS1_11char_traitsIcEENS1_9allocatorIcEEEEPNS_17ServerCredentialsE, symObjAddr: 0x265C, symBinAddr: 0x24AE0, symSize: 0x80 }
  - { offsetInCU: 0x62C56, offset: 0x2EBF49, size: 0x8, addend: 0x0, symName: __ZN4grpc6Server3RefEv, symObjAddr: 0x26DC, symBinAddr: 0x24B60, symSize: 0x18 }
  - { offsetInCU: 0x62C6A, offset: 0x2EBF5D, size: 0x8, addend: 0x0, symName: __ZN4grpc6Server16AddListeningPortERKNSt3__112basic_stringIcNS1_11char_traitsIcEENS1_9allocatorIcEEEEPNS_17ServerCredentialsE.cold.1, symObjAddr: 0xEBAC, symBinAddr: 0x32114, symSize: 0x24 }
  - { offsetInCU: 0x62CAE, offset: 0x2EBFA1, size: 0x8, addend: 0x0, symName: __ZN4grpc6Server3RefEv, symObjAddr: 0x26DC, symBinAddr: 0x24B60, symSize: 0x18 }
  - { offsetInCU: 0x62DE4, offset: 0x2EC0D7, size: 0x8, addend: 0x0, symName: __ZN4grpc6Server23UnrefWithPossibleNotifyEv, symObjAddr: 0x26F4, symBinAddr: 0x24B78, symSize: 0xB4 }
  - { offsetInCU: 0x62FF0, offset: 0x2EC2E3, size: 0x8, addend: 0x0, symName: __ZN4grpc6Server18UnrefAndWaitLockedEv, symObjAddr: 0x27A8, symBinAddr: 0x24C2C, symSize: 0x7C }
  - { offsetInCU: 0x637F5, offset: 0x2ECAE8, size: 0x8, addend: 0x0, symName: __ZN4grpc6Server5StartEPPNS_21ServerCompletionQueueEm, symObjAddr: 0x2824, symBinAddr: 0x24CA8, symSize: 0x42C }
  - { offsetInCU: 0x64AC1, offset: 0x2EDDB4, size: 0x8, addend: 0x0, symName: __ZNKSt3__114default_deleteIN4grpc25DefaultHealthCheckServiceEEclB8ue170006EPS2_, symObjAddr: 0xE0C0, symBinAddr: 0x2C268, symSize: 0x60 }
  - { offsetInCU: 0x64CC3, offset: 0x2EDFB6, size: 0x8, addend: 0x0, symName: __ZN4grpc6Server25UnimplementedAsyncRequestC2EPNS_15ServerInterfaceEPNS_21ServerCompletionQueueE, symObjAddr: 0xB094, symBinAddr: 0x29680, symSize: 0xF0 }
  - { offsetInCU: 0x64ED2, offset: 0x2EE1C5, size: 0x8, addend: 0x0, symName: __ZN4grpc6Server5StartEPPNS_21ServerCompletionQueueEm.cold.1, symObjAddr: 0xEBD0, symBinAddr: 0x32138, symSize: 0x24 }
  - { offsetInCU: 0x64EEA, offset: 0x2EE1DD, size: 0x8, addend: 0x0, symName: __ZNKSt3__16vectorIPN4grpc15CompletionQueueENS_9allocatorIS3_EEE20__throw_length_errorB8ue170006Ev, symObjAddr: 0xE3C0, symBinAddr: 0x2C2C8, symSize: 0x14 }
  - { offsetInCU: 0x64F13, offset: 0x2EE206, size: 0x8, addend: 0x0, symName: __ZNSt3__119__allocate_at_leastB8ue170006INS_9allocatorIPN4grpc15CompletionQueueEEEEENS_19__allocation_resultINS_16allocator_traitsIT_E7pointerEEERS8_m, symObjAddr: 0xE3D4, symBinAddr: 0x2C2DC, symSize: 0x34 }
  - { offsetInCU: 0x65591, offset: 0x2EE884, size: 0x8, addend: 0x0, symName: __ZN4grpc6Server16ShutdownInternalE12gpr_timespec, symObjAddr: 0x2E1C, symBinAddr: 0x252A0, symSize: 0x26C }
  - { offsetInCU: 0x65F60, offset: 0x2EF253, size: 0x8, addend: 0x0, symName: __ZN4grpc15CompletionQueue16UnregisterServerEPKNS_6ServerE, symObjAddr: 0x3088, symBinAddr: 0x2550C, symSize: 0x64 }
  - { offsetInCU: 0x66192, offset: 0x2EF485, size: 0x8, addend: 0x0, symName: __ZNSt3__14listIPKN4grpc6ServerENS_9allocatorIS4_EEE6removeERKS4_, symObjAddr: 0xBA98, symBinAddr: 0x2A084, symSize: 0xCC }
  - { offsetInCU: 0x66498, offset: 0x2EF78B, size: 0x8, addend: 0x0, symName: __ZN4grpc12_GLOBAL__N_111ShutdownTagD1Ev, symObjAddr: 0x30EC, symBinAddr: 0x25570, symSize: 0x4 }
  - { offsetInCU: 0x664C3, offset: 0x2EF7B6, size: 0x8, addend: 0x0, symName: __ZN4grpc6Server4WaitEv, symObjAddr: 0x30F4, symBinAddr: 0x25574, symSize: 0x88 }
  - { offsetInCU: 0x6666C, offset: 0x2EF95F, size: 0x8, addend: 0x0, symName: __ZN4grpc6Server16PerformOpsOnCallEPNS_8internal18CallOpSetInterfaceEPNS1_4CallE, symObjAddr: 0x317C, symBinAddr: 0x255FC, symSize: 0x14 }
  - { offsetInCU: 0x66800, offset: 0x2EFAF3, size: 0x8, addend: 0x0, symName: __ZN4grpc6Server25UnimplementedAsyncRequest14FinalizeResultEPPvPb, symObjAddr: 0x3190, symBinAddr: 0x25610, symSize: 0xC0 }
  - { offsetInCU: 0x66C55, offset: 0x2EFF48, size: 0x8, addend: 0x0, symName: __ZN4grpc6Server26UnimplementedAsyncResponseC2EPNS0_25UnimplementedAsyncRequestE, symObjAddr: 0x32A8, symBinAddr: 0x25728, symSize: 0x1DC }
  - { offsetInCU: 0x677FC, offset: 0x2F0AEF, size: 0x8, addend: 0x0, symName: __ZN4grpc23ServerAsyncReaderWriterINS_10ByteBufferES1_ED2Ev, symObjAddr: 0xB91C, symBinAddr: 0x29F08, symSize: 0x100 }
  - { offsetInCU: 0x67FD6, offset: 0x2F12C9, size: 0x8, addend: 0x0, symName: __ZN4grpc6Server26UnimplementedAsyncResponseC1EPNS0_25UnimplementedAsyncRequestE, symObjAddr: 0x3250, symBinAddr: 0x256D0, symSize: 0x4 }
  - { offsetInCU: 0x68000, offset: 0x2F12F3, size: 0x8, addend: 0x0, symName: __ZN4grpc6Server26UnimplementedAsyncResponseC1EPNS0_25UnimplementedAsyncRequestE, symObjAddr: 0x3250, symBinAddr: 0x256D0, symSize: 0x4 }
  - { offsetInCU: 0x6801C, offset: 0x2F130F, size: 0x8, addend: 0x0, symName: __ZN4grpc6Server25UnimplementedAsyncRequestD1Ev, symObjAddr: 0x3254, symBinAddr: 0x256D4, symSize: 0x54 }
  - { offsetInCU: 0x684B7, offset: 0x2F17AA, size: 0x8, addend: 0x0, symName: __ZN4grpc8internal18ErrorMethodHandlerILNS_10StatusCodeE12EE7FillOpsINS_6Server26UnimplementedAsyncResponseEEEvPNS_17ServerContextBaseERKNSt3__112basic_stringIcNS9_11char_traitsIcEENS9_9allocatorIcEEEEPT_, symObjAddr: 0x3484, symBinAddr: 0x25904, symSize: 0xE4 }
  - { offsetInCU: 0x68B34, offset: 0x2F1E27, size: 0x8, addend: 0x0, symName: __ZN4grpc8internal9CallOpSetINS0_25CallOpSendInitialMetadataENS0_22CallOpServerSendStatusENS0_8CallNoOpILi3EEENS4_ILi4EEENS4_ILi5EEENS4_ILi6EEEED2Ev, symObjAddr: 0x35A8, symBinAddr: 0x259E8, symSize: 0x54 }
  - { offsetInCU: 0x69130, offset: 0x2F2423, size: 0x8, addend: 0x0, symName: __ZN4grpc6Server11initializerEv, symObjAddr: 0x35FC, symBinAddr: 0x25A3C, symSize: 0x8 }
  - { offsetInCU: 0x6915C, offset: 0x2F244F, size: 0x8, addend: 0x0, symName: __ZN4grpc6Server11initializerEv, symObjAddr: 0x35FC, symBinAddr: 0x25A3C, symSize: 0x8 }
  - { offsetInCU: 0x691D0, offset: 0x2F24C3, size: 0x8, addend: 0x0, symName: __ZN4grpc6Server10CallbackCQEv, symObjAddr: 0x3604, symBinAddr: 0x25A44, symSize: 0xF0 }
  - { offsetInCU: 0x694B2, offset: 0x2F27A5, size: 0x8, addend: 0x0, symName: __ZN4grpc15ServerInterface19GenericAsyncRequestD1Ev, symObjAddr: 0x36F4, symBinAddr: 0x25B34, symSize: 0x4 }
  - { offsetInCU: 0x694D4, offset: 0x2F27C7, size: 0x8, addend: 0x0, symName: __ZN4grpc15ServerInterface19GenericAsyncRequestD1Ev, symObjAddr: 0x36F4, symBinAddr: 0x25B34, symSize: 0x4 }
  - { offsetInCU: 0x694F2, offset: 0x2F27E5, size: 0x8, addend: 0x0, symName: __ZN4grpc15ServerInterface19GenericAsyncRequestD1Ev, symObjAddr: 0x36F4, symBinAddr: 0x25B34, symSize: 0x4 }
  - { offsetInCU: 0x69523, offset: 0x2F2816, size: 0x8, addend: 0x0, symName: __ZN4grpc15ServerInterface19GenericAsyncRequestD0Ev, symObjAddr: 0x36F8, symBinAddr: 0x25B38, symSize: 0x14 }
  - { offsetInCU: 0x695A0, offset: 0x2F2893, size: 0x8, addend: 0x0, symName: __ZN4grpc6Server25UnimplementedAsyncRequestD0Ev, symObjAddr: 0x370C, symBinAddr: 0x25B4C, symSize: 0x54 }
  - { offsetInCU: 0x69938, offset: 0x2F2C2B, size: 0x8, addend: 0x0, symName: __ZNK4grpc6Server24max_receive_message_sizeEv, symObjAddr: 0x3760, symBinAddr: 0x25BA0, symSize: 0x8 }
  - { offsetInCU: 0x6995F, offset: 0x2F2C52, size: 0x8, addend: 0x0, symName: __ZN4grpc6Server6serverEv, symObjAddr: 0x3768, symBinAddr: 0x25BA8, symSize: 0x8 }
  - { offsetInCU: 0x69986, offset: 0x2F2C79, size: 0x8, addend: 0x0, symName: __ZN4grpc6Server20interceptor_creatorsEv, symObjAddr: 0x3770, symBinAddr: 0x25BB0, symSize: 0x8 }
  - { offsetInCU: 0x699AD, offset: 0x2F2CA0, size: 0x8, addend: 0x0, symName: __ZNK4grpc6Server29call_metric_recording_enabledEv, symObjAddr: 0x3778, symBinAddr: 0x25BB8, symSize: 0x8 }
  - { offsetInCU: 0x699D4, offset: 0x2F2CC7, size: 0x8, addend: 0x0, symName: __ZNK4grpc6Server22server_metric_recorderEv, symObjAddr: 0x3780, symBinAddr: 0x25BC0, symSize: 0x8 }
  - { offsetInCU: 0x69A17, offset: 0x2F2D0A, size: 0x8, addend: 0x0, symName: __ZN4grpc15ServerInterface22RegisteredAsyncRequestD1Ev, symObjAddr: 0x3788, symBinAddr: 0x25BC8, symSize: 0x4 }
  - { offsetInCU: 0x69A39, offset: 0x2F2D2C, size: 0x8, addend: 0x0, symName: __ZN4grpc15ServerInterface22RegisteredAsyncRequestD1Ev, symObjAddr: 0x3788, symBinAddr: 0x25BC8, symSize: 0x4 }
  - { offsetInCU: 0x69A56, offset: 0x2F2D49, size: 0x8, addend: 0x0, symName: __ZN4grpc15ServerInterface22RegisteredAsyncRequestD1Ev, symObjAddr: 0x3788, symBinAddr: 0x25BC8, symSize: 0x4 }
  - { offsetInCU: 0x69A86, offset: 0x2F2D79, size: 0x8, addend: 0x0, symName: __ZN4grpc15ServerInterface22RegisteredAsyncRequestD0Ev, symObjAddr: 0x378C, symBinAddr: 0x25BCC, symSize: 0x14 }
  - { offsetInCU: 0x69B00, offset: 0x2F2DF3, size: 0x8, addend: 0x0, symName: __ZN4grpc15ServerInterface22RegisteredAsyncRequest14FinalizeResultEPPvPb, symObjAddr: 0x37A0, symBinAddr: 0x25BE0, symSize: 0xB4 }
  - { offsetInCU: 0x69BAF, offset: 0x2F2EA2, size: 0x8, addend: 0x0, symName: __ZN4grpc6Server26UnimplementedAsyncResponseD1Ev, symObjAddr: 0x3854, symBinAddr: 0x25C94, symSize: 0x4 }
  - { offsetInCU: 0x69BD2, offset: 0x2F2EC5, size: 0x8, addend: 0x0, symName: __ZN4grpc6Server26UnimplementedAsyncResponseD1Ev, symObjAddr: 0x3854, symBinAddr: 0x25C94, symSize: 0x4 }
  - { offsetInCU: 0x69BE6, offset: 0x2F2ED9, size: 0x8, addend: 0x0, symName: __ZN4grpc6Server26UnimplementedAsyncResponseD2Ev, symObjAddr: 0xE904, symBinAddr: 0x2C80C, symSize: 0xA0 }
  - { offsetInCU: 0x6A26D, offset: 0x2F3560, size: 0x8, addend: 0x0, symName: __ZN4grpc6Server26UnimplementedAsyncResponseD0Ev, symObjAddr: 0x3858, symBinAddr: 0x25C98, symSize: 0x14 }
  - { offsetInCU: 0x6A2CA, offset: 0x2F35BD, size: 0x8, addend: 0x0, symName: __ZN4grpc6Server26UnimplementedAsyncResponse14FinalizeResultEPPvPb, symObjAddr: 0x386C, symBinAddr: 0x25CAC, symSize: 0x38 }
  - { offsetInCU: 0x6A36B, offset: 0x2F365E, size: 0x8, addend: 0x0, symName: __ZN4grpc8internal9CallOpSetINS0_25CallOpSendInitialMetadataENS0_22CallOpServerSendStatusENS0_8CallNoOpILi3EEENS4_ILi4EEENS4_ILi5EEENS4_ILi6EEEE14FinalizeResultEPPvPb, symObjAddr: 0xBCF4, symBinAddr: 0x2A21C, symSize: 0xDC }
  - { offsetInCU: 0x6A4F9, offset: 0x2F37EC, size: 0x8, addend: 0x0, symName: __ZN4grpc8internal9CallOpSetINS0_25CallOpSendInitialMetadataENS0_22CallOpServerSendStatusENS0_8CallNoOpILi3EEENS4_ILi4EEENS4_ILi5EEENS4_ILi6EEEE7FillOpsEPNS0_4CallE, symObjAddr: 0x38A4, symBinAddr: 0x25CE4, symSize: 0x60 }
  - { offsetInCU: 0x6A593, offset: 0x2F3886, size: 0x8, addend: 0x0, symName: __ZN4grpc8internal9CallOpSetINS0_25CallOpSendInitialMetadataENS0_22CallOpServerSendStatusENS0_8CallNoOpILi3EEENS4_ILi4EEENS4_ILi5EEENS4_ILi6EEEE15RunInterceptorsEv, symObjAddr: 0xE9A4, symBinAddr: 0x2C8AC, symSize: 0xB4 }
  - { offsetInCU: 0x6A5BC, offset: 0x2F38AF, size: 0x8, addend: 0x0, symName: __ZN4grpc8internal9CallOpSetINS0_25CallOpSendInitialMetadataENS0_22CallOpServerSendStatusENS0_8CallNoOpILi3EEENS4_ILi4EEENS4_ILi5EEENS4_ILi6EEEE15RunInterceptorsEv, symObjAddr: 0xE9A4, symBinAddr: 0x2C8AC, symSize: 0xB4 }
  - { offsetInCU: 0x6A7C5, offset: 0x2F3AB8, size: 0x8, addend: 0x0, symName: __ZN4grpc8internal9CallOpSetINS0_25CallOpSendInitialMetadataENS0_22CallOpServerSendStatusENS0_8CallNoOpILi3EEENS4_ILi4EEENS4_ILi5EEENS4_ILi6EEEE11core_cq_tagEv, symObjAddr: 0x3904, symBinAddr: 0x25D44, symSize: 0x8 }
  - { offsetInCU: 0x6A82A, offset: 0x2F3B1D, size: 0x8, addend: 0x0, symName: __ZN4grpc8internal9CallOpSetINS0_25CallOpSendInitialMetadataENS0_22CallOpServerSendStatusENS0_8CallNoOpILi3EEENS4_ILi4EEENS4_ILi5EEENS4_ILi6EEEE17SetHijackingStateEv, symObjAddr: 0x390C, symBinAddr: 0x25D4C, symSize: 0x10 }
  - { offsetInCU: 0x6AC44, offset: 0x2F3F37, size: 0x8, addend: 0x0, symName: __ZN4grpc8internal9CallOpSetINS0_25CallOpSendInitialMetadataENS0_22CallOpServerSendStatusENS0_8CallNoOpILi3EEENS4_ILi4EEENS4_ILi5EEENS4_ILi6EEEE32ContinueFillOpsAfterInterceptionEv.cold.1, symObjAddr: 0xEBF4, symBinAddr: 0x3215C, symSize: 0x28 }
  - { offsetInCU: 0x6AC5C, offset: 0x2F3F4F, size: 0x8, addend: 0x0, symName: __ZN4grpc8internal9CallOpSetINS0_25CallOpSendInitialMetadataENS0_22CallOpServerSendStatusENS0_8CallNoOpILi3EEENS4_ILi4EEENS4_ILi5EEENS4_ILi6EEEE39ContinueFinalizeResultAfterInterceptionEv, symObjAddr: 0x3A44, symBinAddr: 0x25E84, symSize: 0x5C }
  - { offsetInCU: 0x6ACF6, offset: 0x2F3FE9, size: 0x8, addend: 0x0, symName: __ZN4grpc8internal9CallOpSetINS0_25CallOpSendInitialMetadataENS0_22CallOpServerSendStatusENS0_8CallNoOpILi3EEENS4_ILi4EEENS4_ILi5EEENS4_ILi6EEEE39ContinueFinalizeResultAfterInterceptionEv.cold.1, symObjAddr: 0xEC1C, symBinAddr: 0x32184, symSize: 0x20 }
  - { offsetInCU: 0x6B809, offset: 0x2F4AFC, size: 0x8, addend: 0x0, symName: '__ZZN4grpc15ServerInterface16BaseAsyncRequest39ContinueFinalizeResultAfterInterceptionEvEN3$_18__invokeEPvP18grpc_cq_completion', symObjAddr: 0x5438, symBinAddr: 0x25F70, symSize: 0x10 }
  - { offsetInCU: 0x6B837, offset: 0x2F4B2A, size: 0x8, addend: 0x0, symName: '__ZZN4grpc15ServerInterface16BaseAsyncRequest39ContinueFinalizeResultAfterInterceptionEvEN3$_18__invokeEPvP18grpc_cq_completion', symObjAddr: 0x5438, symBinAddr: 0x25F70, symSize: 0x10 }
  - { offsetInCU: 0x6C078, offset: 0x2F536B, size: 0x8, addend: 0x0, symName: __ZN4grpc15ServerInterfaceD1Ev, symObjAddr: 0x5774, symBinAddr: 0x31FB0, symSize: 0x4 }
  - { offsetInCU: 0x6C0A1, offset: 0x2F5394, size: 0x8, addend: 0x0, symName: __ZN4grpc15ServerInterfaceD0Ev, symObjAddr: 0x5778, symBinAddr: 0x31FB4, symSize: 0x4 }
  - { offsetInCU: 0x6C0CA, offset: 0x2F53BD, size: 0x8, addend: 0x0, symName: __ZN4grpc15ServerInterface30RegisterCallbackGenericServiceEPNS_22CallbackGenericServiceE, symObjAddr: 0x577C, symBinAddr: 0x260FC, symSize: 0x4 }
  - { offsetInCU: 0x6C0F9, offset: 0x2F53EC, size: 0x8, addend: 0x0, symName: __ZN4grpc15ServerInterface20interceptor_creatorsEv, symObjAddr: 0x5780, symBinAddr: 0x26100, symSize: 0x8 }
  - { offsetInCU: 0x6C120, offset: 0x2F5413, size: 0x8, addend: 0x0, symName: __ZN4grpc15ServerInterface10CallbackCQEv, symObjAddr: 0x5788, symBinAddr: 0x26108, symSize: 0x8 }
  - { offsetInCU: 0x6C163, offset: 0x2F5456, size: 0x8, addend: 0x0, symName: __ZNSt3__120__shared_ptr_pointerIPN4grpc12_GLOBAL__N_122DefaultGlobalCallbacksENS_10shared_ptrINS1_6Server15GlobalCallbacksEE27__shared_ptr_default_deleteIS7_S3_EENS_9allocatorIS3_EEED1Ev, symObjAddr: 0x57A8, symBinAddr: 0x26110, symSize: 0x4 }
  - { offsetInCU: 0x6C185, offset: 0x2F5478, size: 0x8, addend: 0x0, symName: __ZNSt3__120__shared_ptr_pointerIPN4grpc12_GLOBAL__N_122DefaultGlobalCallbacksENS_10shared_ptrINS1_6Server15GlobalCallbacksEE27__shared_ptr_default_deleteIS7_S3_EENS_9allocatorIS3_EEED1Ev, symObjAddr: 0x57A8, symBinAddr: 0x26110, symSize: 0x4 }
  - { offsetInCU: 0x6C1BB, offset: 0x2F54AE, size: 0x8, addend: 0x0, symName: __ZNSt3__120__shared_ptr_pointerIPN4grpc12_GLOBAL__N_122DefaultGlobalCallbacksENS_10shared_ptrINS1_6Server15GlobalCallbacksEE27__shared_ptr_default_deleteIS7_S3_EENS_9allocatorIS3_EEED0Ev, symObjAddr: 0x57AC, symBinAddr: 0x26114, symSize: 0x14 }
  - { offsetInCU: 0x6C21E, offset: 0x2F5511, size: 0x8, addend: 0x0, symName: __ZNSt3__120__shared_ptr_pointerIPN4grpc12_GLOBAL__N_122DefaultGlobalCallbacksENS_10shared_ptrINS1_6Server15GlobalCallbacksEE27__shared_ptr_default_deleteIS7_S3_EENS_9allocatorIS3_EEE16__on_zero_sharedEv, symObjAddr: 0x57C0, symBinAddr: 0x26128, symSize: 0x10 }
  - { offsetInCU: 0x6C264, offset: 0x2F5557, size: 0x8, addend: 0x0, symName: __ZNKSt3__120__shared_ptr_pointerIPN4grpc12_GLOBAL__N_122DefaultGlobalCallbacksENS_10shared_ptrINS1_6Server15GlobalCallbacksEE27__shared_ptr_default_deleteIS7_S3_EENS_9allocatorIS3_EEE13__get_deleterERKSt9type_info, symObjAddr: 0x57D0, symBinAddr: 0x26138, symSize: 0x3C }
  - { offsetInCU: 0x6C356, offset: 0x2F5649, size: 0x8, addend: 0x0, symName: __ZNSt3__120__shared_ptr_pointerIPN4grpc12_GLOBAL__N_122DefaultGlobalCallbacksENS_10shared_ptrINS1_6Server15GlobalCallbacksEE27__shared_ptr_default_deleteIS7_S3_EENS_9allocatorIS3_EEE21__on_zero_shared_weakEv, symObjAddr: 0x580C, symBinAddr: 0x26174, symSize: 0x4 }
  - { offsetInCU: 0x6C38C, offset: 0x2F567F, size: 0x8, addend: 0x0, symName: __ZNSt3__120__shared_ptr_pointerIPN4grpc12_GLOBAL__N_122DefaultGlobalCallbacksENS_10shared_ptrINS1_6Server15GlobalCallbacksEE27__shared_ptr_default_deleteIS7_S3_EENS_9allocatorIS3_EEE21__on_zero_shared_weakEv, symObjAddr: 0x580C, symBinAddr: 0x26174, symSize: 0x4 }
  - { offsetInCU: 0x6C3AE, offset: 0x2F56A1, size: 0x8, addend: 0x0, symName: __ZNSt3__120__shared_ptr_pointerIPN4grpc12_GLOBAL__N_122DefaultGlobalCallbacksENS_10shared_ptrINS1_6Server15GlobalCallbacksEE27__shared_ptr_default_deleteIS7_S3_EENS_9allocatorIS3_EEE21__on_zero_shared_weakEv, symObjAddr: 0x580C, symBinAddr: 0x26174, symSize: 0x4 }
  - { offsetInCU: 0x6C3D6, offset: 0x2F56C9, size: 0x8, addend: 0x0, symName: __ZNSt3__120__shared_ptr_pointerIPN4grpc12_GLOBAL__N_122DefaultGlobalCallbacksENS_10shared_ptrINS1_6Server15GlobalCallbacksEE27__shared_ptr_default_deleteIS7_S3_EENS_9allocatorIS3_EEE21__on_zero_shared_weakEv, symObjAddr: 0x580C, symBinAddr: 0x26174, symSize: 0x4 }
  - { offsetInCU: 0x6C3FA, offset: 0x2F56ED, size: 0x8, addend: 0x0, symName: __ZNSt3__120__shared_ptr_pointerIPN4grpc12_GLOBAL__N_122DefaultGlobalCallbacksENS_10shared_ptrINS1_6Server15GlobalCallbacksEE27__shared_ptr_default_deleteIS7_S3_EENS_9allocatorIS3_EEE21__on_zero_shared_weakEv, symObjAddr: 0x580C, symBinAddr: 0x26174, symSize: 0x4 }
  - { offsetInCU: 0x6C425, offset: 0x2F5718, size: 0x8, addend: 0x0, symName: __ZN4grpc12_GLOBAL__N_122DefaultGlobalCallbacksD1Ev, symObjAddr: 0x5810, symBinAddr: 0x26178, symSize: 0x4 }
  - { offsetInCU: 0x6C481, offset: 0x2F5774, size: 0x8, addend: 0x0, symName: __ZN4grpc12_GLOBAL__N_122DefaultGlobalCallbacksD0Ev, symObjAddr: 0x585C, symBinAddr: 0x2617C, symSize: 0x4 }
  - { offsetInCU: 0x6C4AA, offset: 0x2F579D, size: 0x8, addend: 0x0, symName: __ZN4grpc6Server15GlobalCallbacks15UpdateArgumentsEPNS_16ChannelArgumentsE, symObjAddr: 0x5860, symBinAddr: 0x26180, symSize: 0x4 }
  - { offsetInCU: 0x6C4D9, offset: 0x2F57CC, size: 0x8, addend: 0x0, symName: __ZN4grpc12_GLOBAL__N_122DefaultGlobalCallbacks21PreSynchronousRequestEPNS_13ServerContextE, symObjAddr: 0x5864, symBinAddr: 0x26184, symSize: 0x4 }
  - { offsetInCU: 0x6C504, offset: 0x2F57F7, size: 0x8, addend: 0x0, symName: __ZN4grpc12_GLOBAL__N_122DefaultGlobalCallbacks22PostSynchronousRequestEPNS_13ServerContextE, symObjAddr: 0x5868, symBinAddr: 0x26188, symSize: 0x4 }
  - { offsetInCU: 0x6C52F, offset: 0x2F5822, size: 0x8, addend: 0x0, symName: __ZN4grpc6Server15GlobalCallbacks14PreServerStartEPS0_, symObjAddr: 0x586C, symBinAddr: 0x2618C, symSize: 0x4 }
  - { offsetInCU: 0x6C55E, offset: 0x2F5851, size: 0x8, addend: 0x0, symName: __ZN4grpc6Server15GlobalCallbacks7AddPortEPS0_RKNSt3__112basic_stringIcNS3_11char_traitsIcEENS3_9allocatorIcEEEEPNS_17ServerCredentialsEi, symObjAddr: 0x5870, symBinAddr: 0x26190, symSize: 0x4 }
  - { offsetInCU: 0x6C5FC, offset: 0x2F58EF, size: 0x8, addend: 0x0, symName: __ZN4grpc6Server24SyncRequestThreadManagerD1Ev, symObjAddr: 0x5874, symBinAddr: 0x26194, symSize: 0x44 }
  - { offsetInCU: 0x6C6DC, offset: 0x2F59CF, size: 0x8, addend: 0x0, symName: __ZN4grpc6Server24SyncRequestThreadManagerD0Ev, symObjAddr: 0x58B8, symBinAddr: 0x261D8, symSize: 0x48 }
  - { offsetInCU: 0x6C7C6, offset: 0x2F5AB9, size: 0x8, addend: 0x0, symName: __ZN4grpc6Server24SyncRequestThreadManager11PollForWorkEPPvPb, symObjAddr: 0x5900, symBinAddr: 0x26220, symSize: 0xAC }
  - { offsetInCU: 0x6C88E, offset: 0x2F5B81, size: 0x8, addend: 0x0, symName: __ZN4grpc6Server24SyncRequestThreadManager6DoWorkEPvbb, symObjAddr: 0x59AC, symBinAddr: 0x262CC, symSize: 0x48 }
  - { offsetInCU: 0x6C8EF, offset: 0x2F5BE2, size: 0x8, addend: 0x0, symName: __ZN4grpc6Server24SyncRequestThreadManager6DoWorkEPvbb, symObjAddr: 0x59AC, symBinAddr: 0x262CC, symSize: 0x48 }
  - { offsetInCU: 0x6C9AC, offset: 0x2F5C9F, size: 0x8, addend: 0x0, symName: __ZN4grpc6Server24SyncRequestThreadManager8ShutdownEv, symObjAddr: 0x59F4, symBinAddr: 0x26314, symSize: 0x24 }
  - { offsetInCU: 0x6C9C0, offset: 0x2F5CB3, size: 0x8, addend: 0x0, symName: __ZN4grpc6Server24SyncRequestThreadManager6DoWorkEPvbb.cold.1, symObjAddr: 0xEEA8, symBinAddr: 0x321A4, symSize: 0x48 }
  - { offsetInCU: 0x6CA56, offset: 0x2F5D49, size: 0x8, addend: 0x0, symName: __ZN4grpc6Server24SyncRequestThreadManager6DoWorkEPvbb.cold.2, symObjAddr: 0xEEF0, symBinAddr: 0x321EC, symSize: 0x28 }
  - { offsetInCU: 0x6CA6E, offset: 0x2F5D61, size: 0x8, addend: 0x0, symName: __ZN4grpc6Server24SyncRequestThreadManager8ShutdownEv, symObjAddr: 0x59F4, symBinAddr: 0x26314, symSize: 0x24 }
  - { offsetInCU: 0x6CA95, offset: 0x2F5D88, size: 0x8, addend: 0x0, symName: __ZN4grpc6Server24SyncRequestThreadManager4WaitEv, symObjAddr: 0x5A18, symBinAddr: 0x26338, symSize: 0x60 }
  - { offsetInCU: 0x6CB30, offset: 0x2F5E23, size: 0x8, addend: 0x0, symName: __ZN4grpc6Server11SyncRequest7CleanupEv, symObjAddr: 0x64D0, symBinAddr: 0x26D40, symSize: 0x34 }
  - { offsetInCU: 0x6D083, offset: 0x2F6376, size: 0x8, addend: 0x0, symName: __ZN4grpc6Server11SyncRequest28ContinueRunAfterInterceptionEv, symObjAddr: 0x5D80, symBinAddr: 0x26654, symSize: 0x32C }
  - { offsetInCU: 0x6DDC4, offset: 0x2F70B7, size: 0x8, addend: 0x0, symName: __ZN4grpc8internal13MethodHandler16HandlerParameterC2EPNS0_4CallEPNS_17ServerContextBaseEPvNS_6StatusES7_NSt3__18functionIFvvEEE, symObjAddr: 0x6284, symBinAddr: 0x26B58, symSize: 0xD4 }
  - { offsetInCU: 0x6E119, offset: 0x2F740C, size: 0x8, addend: 0x0, symName: __ZN4grpc8internal13MethodHandler16HandlerParameterD2Ev, symObjAddr: 0x63BC, symBinAddr: 0x26C2C, symSize: 0x70 }
  - { offsetInCU: 0x6E465, offset: 0x2F7758, size: 0x8, addend: 0x0, symName: __ZN4grpc15CompletionQueue8TryPluckEPNS_8internal18CompletionQueueTagE12gpr_timespec, symObjAddr: 0x616C, symBinAddr: 0x26A40, symSize: 0x70 }
  - { offsetInCU: 0x6E52C, offset: 0x2F781F, size: 0x8, addend: 0x0, symName: __ZN4grpc15CompletionQueue5PluckEPNS_8internal18CompletionQueueTagE, symObjAddr: 0x61DC, symBinAddr: 0x26AB0, symSize: 0xA0 }
  - { offsetInCU: 0x6E540, offset: 0x2F7833, size: 0x8, addend: 0x0, symName: __ZN4grpc15CompletionQueue5PluckEPNS_8internal18CompletionQueueTagE, symObjAddr: 0x61DC, symBinAddr: 0x26AB0, symSize: 0xA0 }
  - { offsetInCU: 0x6E620, offset: 0x2F7913, size: 0x8, addend: 0x0, symName: __ZN4grpc6Server11SyncRequestD1Ev, symObjAddr: 0x627C, symBinAddr: 0x26B50, symSize: 0x4 }
  - { offsetInCU: 0x6E634, offset: 0x2F7927, size: 0x8, addend: 0x0, symName: __ZN4grpc6Server11SyncRequestD2Ev, symObjAddr: 0x6438, symBinAddr: 0x26CA8, symSize: 0x98 }
